
Alarm.elf:     file format elf32-avr

Sections:
Idx Name          Size      VMA       LMA       File off  Algn
  0 .text         00009fd0  00000000  00000000  00000094  2**1
                  CONTENTS, ALLOC, LOAD, READONLY, CODE
  1 .data         0000009a  00802000  00009fd0  0000a064  2**0
                  CONTENTS, ALLOC, LOAD, DATA
  2 .bss          000001a1  0080209a  0080209a  0000a0fe  2**0
                  ALLOC
  3 .comment      0000005c  00000000  00000000  0000a0fe  2**0
                  CONTENTS, READONLY
  4 .note.gnu.avr.deviceinfo 00000040  00000000  00000000  0000a15c  2**2
                  CONTENTS, READONLY
  5 .debug_aranges 00000840  00000000  00000000  0000a19c  2**0
                  CONTENTS, READONLY, DEBUGGING
  6 .debug_info   00018ee5  00000000  00000000  0000a9dc  2**0
                  CONTENTS, READONLY, DEBUGGING
  7 .debug_abbrev 00005a5a  00000000  00000000  000238c1  2**0
                  CONTENTS, READONLY, DEBUGGING
  8 .debug_line   000051fe  00000000  00000000  0002931b  2**0
                  CONTENTS, READONLY, DEBUGGING
  9 .debug_frame  00001b78  00000000  00000000  0002e51c  2**2
                  CONTENTS, READONLY, DEBUGGING
 10 .debug_str    00006cf6  00000000  00000000  00030094  2**0
                  CONTENTS, READONLY, DEBUGGING
 11 .debug_loc    0000bd54  00000000  00000000  00036d8a  2**0
                  CONTENTS, READONLY, DEBUGGING
 12 .debug_ranges 000007a0  00000000  00000000  00042ade  2**0
                  CONTENTS, READONLY, DEBUGGING

Disassembly of section .text:

00000000 <__vectors>:
       0:	0c 94 cf 2e 	jmp	0x5d9e	; 0x5d9e <__ctors_end>
       4:	0c 94 f0 2e 	jmp	0x5de0	; 0x5de0 <__bad_interrupt>
       8:	0c 94 f0 2e 	jmp	0x5de0	; 0x5de0 <__bad_interrupt>
       c:	0c 94 f0 2e 	jmp	0x5de0	; 0x5de0 <__bad_interrupt>
      10:	0c 94 f0 2e 	jmp	0x5de0	; 0x5de0 <__bad_interrupt>
      14:	0c 94 f0 2e 	jmp	0x5de0	; 0x5de0 <__bad_interrupt>
      18:	0c 94 f0 2e 	jmp	0x5de0	; 0x5de0 <__bad_interrupt>
      1c:	0c 94 f0 2e 	jmp	0x5de0	; 0x5de0 <__bad_interrupt>
      20:	0c 94 f0 2e 	jmp	0x5de0	; 0x5de0 <__bad_interrupt>
      24:	0c 94 f0 2e 	jmp	0x5de0	; 0x5de0 <__bad_interrupt>
      28:	0c 94 f0 2e 	jmp	0x5de0	; 0x5de0 <__bad_interrupt>
      2c:	0c 94 f0 2e 	jmp	0x5de0	; 0x5de0 <__bad_interrupt>
      30:	0c 94 f0 2e 	jmp	0x5de0	; 0x5de0 <__bad_interrupt>
      34:	0c 94 f0 2e 	jmp	0x5de0	; 0x5de0 <__bad_interrupt>
      38:	0c 94 f0 2e 	jmp	0x5de0	; 0x5de0 <__bad_interrupt>
      3c:	0c 94 f0 2e 	jmp	0x5de0	; 0x5de0 <__bad_interrupt>
      40:	0c 94 f0 2e 	jmp	0x5de0	; 0x5de0 <__bad_interrupt>
      44:	0c 94 f0 2e 	jmp	0x5de0	; 0x5de0 <__bad_interrupt>
      48:	0c 94 f0 2e 	jmp	0x5de0	; 0x5de0 <__bad_interrupt>
      4c:	0c 94 f0 2e 	jmp	0x5de0	; 0x5de0 <__bad_interrupt>
      50:	0c 94 f0 2e 	jmp	0x5de0	; 0x5de0 <__bad_interrupt>
      54:	0c 94 f0 2e 	jmp	0x5de0	; 0x5de0 <__bad_interrupt>
      58:	0c 94 f0 2e 	jmp	0x5de0	; 0x5de0 <__bad_interrupt>
      5c:	0c 94 f0 2e 	jmp	0x5de0	; 0x5de0 <__bad_interrupt>
      60:	0c 94 f0 2e 	jmp	0x5de0	; 0x5de0 <__bad_interrupt>
      64:	0c 94 f0 2e 	jmp	0x5de0	; 0x5de0 <__bad_interrupt>
      68:	0c 94 f0 2e 	jmp	0x5de0	; 0x5de0 <__bad_interrupt>
      6c:	0c 94 f0 2e 	jmp	0x5de0	; 0x5de0 <__bad_interrupt>
      70:	0c 94 f0 2e 	jmp	0x5de0	; 0x5de0 <__bad_interrupt>
      74:	0c 94 f0 2e 	jmp	0x5de0	; 0x5de0 <__bad_interrupt>
      78:	0c 94 f0 2e 	jmp	0x5de0	; 0x5de0 <__bad_interrupt>
      7c:	0c 94 f0 2e 	jmp	0x5de0	; 0x5de0 <__bad_interrupt>
      80:	0c 94 f0 2e 	jmp	0x5de0	; 0x5de0 <__bad_interrupt>
      84:	0c 94 f0 2e 	jmp	0x5de0	; 0x5de0 <__bad_interrupt>
      88:	0c 94 f0 2e 	jmp	0x5de0	; 0x5de0 <__bad_interrupt>
      8c:	0c 94 f0 2e 	jmp	0x5de0	; 0x5de0 <__bad_interrupt>
      90:	0c 94 f0 2e 	jmp	0x5de0	; 0x5de0 <__bad_interrupt>
      94:	0c 94 f0 2e 	jmp	0x5de0	; 0x5de0 <__bad_interrupt>
      98:	0c 94 f0 2e 	jmp	0x5de0	; 0x5de0 <__bad_interrupt>
      9c:	0c 94 f0 2e 	jmp	0x5de0	; 0x5de0 <__bad_interrupt>
      a0:	0c 94 f0 2e 	jmp	0x5de0	; 0x5de0 <__bad_interrupt>
      a4:	0c 94 f0 2e 	jmp	0x5de0	; 0x5de0 <__bad_interrupt>
      a8:	0c 94 f0 2e 	jmp	0x5de0	; 0x5de0 <__bad_interrupt>
      ac:	0c 94 f0 2e 	jmp	0x5de0	; 0x5de0 <__bad_interrupt>
      b0:	0c 94 f0 2e 	jmp	0x5de0	; 0x5de0 <__bad_interrupt>
      b4:	0c 94 f0 2e 	jmp	0x5de0	; 0x5de0 <__bad_interrupt>
      b8:	0c 94 f0 2e 	jmp	0x5de0	; 0x5de0 <__bad_interrupt>
      bc:	0c 94 24 3a 	jmp	0x7448	; 0x7448 <__vector_47>
      c0:	0c 94 f0 2e 	jmp	0x5de0	; 0x5de0 <__bad_interrupt>
      c4:	0c 94 f0 2e 	jmp	0x5de0	; 0x5de0 <__bad_interrupt>
      c8:	0c 94 f0 2e 	jmp	0x5de0	; 0x5de0 <__bad_interrupt>
      cc:	0c 94 f0 2e 	jmp	0x5de0	; 0x5de0 <__bad_interrupt>
      d0:	0c 94 f0 2e 	jmp	0x5de0	; 0x5de0 <__bad_interrupt>
      d4:	0c 94 f0 2e 	jmp	0x5de0	; 0x5de0 <__bad_interrupt>
      d8:	0c 94 f0 2e 	jmp	0x5de0	; 0x5de0 <__bad_interrupt>
      dc:	0c 94 f0 2e 	jmp	0x5de0	; 0x5de0 <__bad_interrupt>
      e0:	0c 94 f0 2e 	jmp	0x5de0	; 0x5de0 <__bad_interrupt>
      e4:	0c 94 f0 2e 	jmp	0x5de0	; 0x5de0 <__bad_interrupt>
      e8:	0c 94 f0 2e 	jmp	0x5de0	; 0x5de0 <__bad_interrupt>
      ec:	0c 94 f0 2e 	jmp	0x5de0	; 0x5de0 <__bad_interrupt>
      f0:	0c 94 f0 2e 	jmp	0x5de0	; 0x5de0 <__bad_interrupt>
      f4:	0c 94 f0 2e 	jmp	0x5de0	; 0x5de0 <__bad_interrupt>
      f8:	0c 94 f0 2e 	jmp	0x5de0	; 0x5de0 <__bad_interrupt>
      fc:	0c 94 f0 2e 	jmp	0x5de0	; 0x5de0 <__bad_interrupt>
     100:	0c 94 f0 2e 	jmp	0x5de0	; 0x5de0 <__bad_interrupt>
     104:	0c 94 f0 2e 	jmp	0x5de0	; 0x5de0 <__bad_interrupt>
     108:	0c 94 f0 2e 	jmp	0x5de0	; 0x5de0 <__bad_interrupt>
     10c:	0c 94 f0 2e 	jmp	0x5de0	; 0x5de0 <__bad_interrupt>
     110:	0c 94 f0 2e 	jmp	0x5de0	; 0x5de0 <__bad_interrupt>
     114:	0c 94 f0 2e 	jmp	0x5de0	; 0x5de0 <__bad_interrupt>
     118:	0c 94 f0 2e 	jmp	0x5de0	; 0x5de0 <__bad_interrupt>
     11c:	0c 94 f0 2e 	jmp	0x5de0	; 0x5de0 <__bad_interrupt>
     120:	0c 94 f0 2e 	jmp	0x5de0	; 0x5de0 <__bad_interrupt>
     124:	0c 94 f0 2e 	jmp	0x5de0	; 0x5de0 <__bad_interrupt>
     128:	0c 94 f0 2e 	jmp	0x5de0	; 0x5de0 <__bad_interrupt>
     12c:	0c 94 f0 2e 	jmp	0x5de0	; 0x5de0 <__bad_interrupt>
     130:	0c 94 f0 2e 	jmp	0x5de0	; 0x5de0 <__bad_interrupt>
     134:	0c 94 69 3a 	jmp	0x74d2	; 0x74d2 <__vector_77>
     138:	0c 94 f0 2e 	jmp	0x5de0	; 0x5de0 <__bad_interrupt>
     13c:	0c 94 f0 2e 	jmp	0x5de0	; 0x5de0 <__bad_interrupt>
     140:	0c 94 f0 2e 	jmp	0x5de0	; 0x5de0 <__bad_interrupt>
     144:	0c 94 f0 2e 	jmp	0x5de0	; 0x5de0 <__bad_interrupt>
     148:	0c 94 f0 2e 	jmp	0x5de0	; 0x5de0 <__bad_interrupt>
     14c:	0c 94 f0 2e 	jmp	0x5de0	; 0x5de0 <__bad_interrupt>
     150:	0c 94 f0 2e 	jmp	0x5de0	; 0x5de0 <__bad_interrupt>
     154:	0c 94 f0 2e 	jmp	0x5de0	; 0x5de0 <__bad_interrupt>
     158:	0c 94 f0 2e 	jmp	0x5de0	; 0x5de0 <__bad_interrupt>
     15c:	0c 94 f0 2e 	jmp	0x5de0	; 0x5de0 <__bad_interrupt>
     160:	0c 94 f0 2e 	jmp	0x5de0	; 0x5de0 <__bad_interrupt>
     164:	0c 94 f0 2e 	jmp	0x5de0	; 0x5de0 <__bad_interrupt>
     168:	0c 94 f0 2e 	jmp	0x5de0	; 0x5de0 <__bad_interrupt>
     16c:	0c 94 f0 2e 	jmp	0x5de0	; 0x5de0 <__bad_interrupt>
     170:	0c 94 f0 2e 	jmp	0x5de0	; 0x5de0 <__bad_interrupt>
     174:	0c 94 f0 2e 	jmp	0x5de0	; 0x5de0 <__bad_interrupt>
     178:	0c 94 f0 2e 	jmp	0x5de0	; 0x5de0 <__bad_interrupt>
     17c:	0c 94 f0 2e 	jmp	0x5de0	; 0x5de0 <__bad_interrupt>
     180:	0c 94 f0 2e 	jmp	0x5de0	; 0x5de0 <__bad_interrupt>
     184:	0c 94 f0 2e 	jmp	0x5de0	; 0x5de0 <__bad_interrupt>
     188:	0c 94 f0 2e 	jmp	0x5de0	; 0x5de0 <__bad_interrupt>
     18c:	0c 94 f0 2e 	jmp	0x5de0	; 0x5de0 <__bad_interrupt>
     190:	0c 94 f0 2e 	jmp	0x5de0	; 0x5de0 <__bad_interrupt>
     194:	0c 94 f0 2e 	jmp	0x5de0	; 0x5de0 <__bad_interrupt>
     198:	0c 94 f0 2e 	jmp	0x5de0	; 0x5de0 <__bad_interrupt>
     19c:	0c 94 f0 2e 	jmp	0x5de0	; 0x5de0 <__bad_interrupt>
     1a0:	0c 94 c5 3c 	jmp	0x798a	; 0x798a <__vector_104>
     1a4:	0c 94 f0 2e 	jmp	0x5de0	; 0x5de0 <__bad_interrupt>
     1a8:	0c 94 f0 2e 	jmp	0x5de0	; 0x5de0 <__bad_interrupt>
     1ac:	0c 94 f0 2e 	jmp	0x5de0	; 0x5de0 <__bad_interrupt>
     1b0:	0c 94 f0 2e 	jmp	0x5de0	; 0x5de0 <__bad_interrupt>
     1b4:	0c 94 f0 2e 	jmp	0x5de0	; 0x5de0 <__bad_interrupt>
     1b8:	0c 94 f0 2e 	jmp	0x5de0	; 0x5de0 <__bad_interrupt>
     1bc:	0c 94 f0 2e 	jmp	0x5de0	; 0x5de0 <__bad_interrupt>
     1c0:	0c 94 f0 2e 	jmp	0x5de0	; 0x5de0 <__bad_interrupt>
     1c4:	0c 94 f0 2e 	jmp	0x5de0	; 0x5de0 <__bad_interrupt>
     1c8:	0c 94 f0 2e 	jmp	0x5de0	; 0x5de0 <__bad_interrupt>
     1cc:	0c 94 f0 2e 	jmp	0x5de0	; 0x5de0 <__bad_interrupt>
     1d0:	0c 94 f0 2e 	jmp	0x5de0	; 0x5de0 <__bad_interrupt>
     1d4:	0c 94 f0 2e 	jmp	0x5de0	; 0x5de0 <__bad_interrupt>
     1d8:	0c 94 f0 2e 	jmp	0x5de0	; 0x5de0 <__bad_interrupt>
     1dc:	0c 94 38 47 	jmp	0x8e70	; 0x8e70 <__vector_119>
     1e0:	0c 94 60 47 	jmp	0x8ec0	; 0x8ec0 <__vector_120>
     1e4:	0c 94 f0 2e 	jmp	0x5de0	; 0x5de0 <__bad_interrupt>
     1e8:	0c 94 f0 2e 	jmp	0x5de0	; 0x5de0 <__bad_interrupt>
     1ec:	0c 94 f0 2e 	jmp	0x5de0	; 0x5de0 <__bad_interrupt>
     1f0:	0c 94 f0 2e 	jmp	0x5de0	; 0x5de0 <__bad_interrupt>
     1f4:	0c 94 f0 2e 	jmp	0x5de0	; 0x5de0 <__bad_interrupt>
     1f8:	0c 94 f0 2e 	jmp	0x5de0	; 0x5de0 <__bad_interrupt>
     1fc:	b0 32       	cpi	r27, 0x20	; 32
     1fe:	b0 32       	cpi	r27, 0x20	; 32
     200:	b0 32       	cpi	r27, 0x20	; 32
     202:	6f 33       	cpi	r22, 0x3F	; 63
     204:	6f 33       	cpi	r22, 0x3F	; 63
     206:	da 32       	cpi	r29, 0x2A	; 42
     208:	ec 32       	cpi	r30, 0x2C	; 44
     20a:	03 33       	cpi	r16, 0x33	; 51
     20c:	12 33       	cpi	r17, 0x32	; 50
     20e:	21 33       	cpi	r18, 0x31	; 49
     210:	3c 33       	cpi	r19, 0x3C	; 60
     212:	6f 33       	cpi	r22, 0x3F	; 63
     214:	6f 33       	cpi	r22, 0x3F	; 63
     216:	6f 33       	cpi	r22, 0x3F	; 63
     218:	57 33       	cpi	r21, 0x37	; 55
     21a:	51 48       	sbci	r21, 0x81	; 129
     21c:	6a 48       	sbci	r22, 0x8A	; 138
     21e:	4e 48       	sbci	r20, 0x8E	; 142
     220:	7e 48       	sbci	r23, 0x8E	; 142
     222:	88 48       	sbci	r24, 0x88	; 136
     224:	92 48       	sbci	r25, 0x82	; 130
     226:	9c 48       	sbci	r25, 0x8C	; 140
     228:	4a 48       	sbci	r20, 0x8A	; 138
     22a:	46 48       	sbci	r20, 0x86	; 134
     22c:	42 48       	sbci	r20, 0x82	; 130
     22e:	3e 48       	sbci	r19, 0x8E	; 142

00000230 <__trampolines_start>:
     230:	0c 94 3e 48 	jmp	0x907c	; 0x907c <ucg_comm_xmega+0x26>
     234:	0c 94 03 33 	jmp	0x6606	; 0x6606 <ucg_com_SendCmdSeq+0xfa>
     238:	0c 94 12 33 	jmp	0x6624	; 0x6624 <ucg_com_SendCmdSeq+0x118>
     23c:	0c 94 57 33 	jmp	0x66ae	; 0x66ae <ucg_com_SendCmdSeq+0x1a2>
     240:	0c 94 d6 45 	jmp	0x8bac	; 0x8bac <uartF0_fgetc>
     244:	0c 94 92 48 	jmp	0x9124	; 0x9124 <ucg_comm_xmega+0xce>
     248:	0c 94 84 39 	jmp	0x7308	; 0x7308 <ucg_dev_rotate90>
     24c:	0c 94 9c 48 	jmp	0x9138	; 0x9138 <ucg_comm_xmega+0xe2>
     250:	0c 94 da 32 	jmp	0x65b4	; 0x65b4 <ucg_com_SendCmdSeq+0xa8>
     254:	0c 94 6a 48 	jmp	0x90d4	; 0x90d4 <ucg_comm_xmega+0x7e>
     258:	0c 94 21 33 	jmp	0x6642	; 0x6642 <ucg_com_SendCmdSeq+0x136>
     25c:	0c 94 ec 32 	jmp	0x65d8	; 0x65d8 <ucg_com_SendCmdSeq+0xcc>
     260:	0c 94 48 35 	jmp	0x6a90	; 0x6a90 <ucg_ext_st7735_18>
     264:	0c 94 30 36 	jmp	0x6c60	; 0x6c60 <ucg_font_calc_vref_font>
     268:	0c 94 51 48 	jmp	0x90a2	; 0x90a2 <ucg_comm_xmega+0x4c>
     26c:	0c 94 c0 35 	jmp	0x6b80	; 0x6b80 <ucg_dev_st7735_18x128x160>
     270:	0c 94 3c 33 	jmp	0x6678	; 0x6678 <ucg_com_SendCmdSeq+0x16c>
     274:	0c 94 42 48 	jmp	0x9084	; 0x9084 <ucg_comm_xmega+0x2e>
     278:	0c 94 99 47 	jmp	0x8f32	; 0x8f32 <ucg_Putc>
     27c:	0c 94 b0 32 	jmp	0x6560	; 0x6560 <ucg_com_SendCmdSeq+0x54>
     280:	0c 94 16 46 	jmp	0x8c2c	; 0x8c2c <uartF0_fputc>
     284:	0c 94 9b 33 	jmp	0x6736	; 0x6736 <ucg_ext_none>
     288:	0c 94 4e 48 	jmp	0x909c	; 0x909c <ucg_comm_xmega+0x46>
     28c:	0c 94 88 48 	jmp	0x9110	; 0x9110 <ucg_comm_xmega+0xba>
     290:	0c 94 7e 48 	jmp	0x90fc	; 0x90fc <ucg_comm_xmega+0xa6>
     294:	0c 94 46 48 	jmp	0x908c	; 0x908c <ucg_comm_xmega+0x36>
     298:	0c 94 2b 48 	jmp	0x9056	; 0x9056 <ucg_comm_xmega>
     29c:	0c 94 4a 48 	jmp	0x9094	; 0x9094 <ucg_comm_xmega+0x3e>
     2a0:	0c 94 6f 33 	jmp	0x66de	; 0x66de <ucg_com_SendCmdSeq+0x1d2>

000002a4 <__trampolines_end>:
     2a4:	f4 10       	cpse	r15, r4
     2a6:	10 10       	cpse	r1, r0
     2a8:	28 f5       	brcc	.+74     	; 0x2f4 <ucg_st7735_set_pos_dir1_seq+0x4>
	...

000002ab <ucg_st7735_set_pos_dir3_seq>:
     2ab:	f4 11 36 80 11 36 80 10 2a a0 00 00 a0 ff 00 a0     ..6..6..*.......
     2bb:	00 00 a0 ff 00 10 2b b0 00 00 b0 ff 00 62 00 9f     ......+......b..
     2cb:	10 2c 70 00                                         .,p.

000002cf <ucg_st7735_set_pos_dir2_seq>:
     2cf:	f4 11 36 40 11 36 40 10 2a a0 00 00 a0 ff 00 62     ..6@.6@.*......b
     2df:	00 7f 10 2b b8 01 00 b0 ff 00 62 00 9f 10 2c 70     ...+......b...,p
	...

000002f0 <ucg_st7735_set_pos_dir1_seq>:
     2f0:	f4 11 36 00 10 2a a0 00 00 a0 ff 00 a0 00 00 a0     ..6..*..........
     300:	ff 00 10 2b b0 00 00 b0 ff 00 62 00 9f 10 2c 70     ...+......b...,p
	...

00000311 <ucg_st7735_set_pos_dir0_seq>:
     311:	f4 11 36 00 10 2a a0 00 00 a0 ff 00 62 00 7f 10     ..6..*......b...
     321:	2b b0 00 00 b0 ff 00 62 00 9f 10 2c 70 00           +......b...,p.

0000032f <ucg_st7735_set_pos_seq>:
     32f:	f4 11 36 00 10 2a a0 00 00 a0 ff 00 62 00 7f 10     ..6..*......b...
     33f:	2b b0 00 00 b0 ff 00 62 00 9f 10 2c 70 00           +......b...,p.

0000034d <ucg_tft_128x160_st7735_init_seq>:
     34d:	fd f1 f5 80 05 f0 80 05 f1 80 32 f4 10 11 80 0a     ..........2.....
     35d:	10 13 10 20 11 3a 06 10 29 11 36 00 14 2a 00 00     ... .:..).6..*..
     36d:	00 7f 14 2b 00 00 00 9f 10 2c f5 00                 ...+.....,..

00000379 <ucg_font_fur35_hf>:
     379:	bd 01 05 04 06 07 01 05 07 30 40 fe f3 23 f7 24     .........0@..#.$
     389:	fa 08 02 11 33 20 0c 0e f0 70 7e f8 ff ff 3f 0e     ....3 ...p~...?.
     399:	00 21 15 12 f0 90 7e f8 f7 4a ab ff ff ff 3e 54     .!....~..J....>T
     3a9:	4a ab fb f0 c3 00 22 31 16 f0 b0 7e f8 9f 2b a5     J....."1...~..+.
     3b9:	9c 52 0a 22 a5 20 62 08 22 86 20 62 08 22 86 20     .R.". b.". b.". 
     3c9:	62 08 22 86 20 62 08 22 86 20 62 46 1a 67 a4 71     b.". b.". bF.g.q
     3d9:	c6 87 ff ff bf 04 00 23 65 24 f0 20 7f f8 ff df     .......#e$. ....
     3e9:	20 86 d8 71 c6 1d 86 58 62 88 25 66 dc 61 88 25      ..q...Xb.%f.a.%
     3f9:	86 58 62 c6 1d 67 58 62 c8 7b 80 a5 07 58 7a 80     .Xb..gXb.{...Xz.
     409:	3d 62 c6 1d 67 dc 61 88 25 86 d8 71 c6 1d 86 58     =b..g.a.%..q...X
     419:	62 c8 7b 80 a5 07 58 7a 80 3d 62 c6 1d 67 dc 61     b.{...Xz.=b..g.a
     429:	88 25 86 58 62 c6 1d 86 58 62 88 25 66 dc 71 86     .%.Xb...Xb.%f.q.
     439:	25 86 58 62 88 1d 67 7c f8 ff 51 00 24 6c 1b f0     %.Xb..g|..Q.$l..
     449:	d8 7e f8 6f 8b 2c ab 09 ba f5 80 48 0f 8c 54 88     .~.o.,.....H..T.
     459:	18 e5 94 22 08 39 c4 08 52 0c 31 82 94 52 8c 20     ...".9..R.1..R. 
     469:	a5 14 23 1e 31 e2 11 23 5e 29 e2 9d 21 e0 82 ee     ..#.1..#^)..!...
     479:	bd f6 5e 8b 22 20 28 88 79 a2 94 27 4a 79 c2 90     ..^." (.y..'Jy..
     489:	27 0c 21 c5 08 53 46 31 c2 10 52 8c 30 84 14 23     '.!..SF1..R.0..#
     499:	0c 29 a5 88 52 8a 21 82 18 f3 40 41 0f 0c f5 40     .)..R.!...@A...@
     4a9:	60 8d 8a 2c f7 e1 b7 00 25 89 2c f0 60 7f f8 ff     `..,....%.,.`...
     4b9:	ff d2 90 06 0e b8 1a 79 8d 8d 67 48 51 e4 15 53     .......y..gHQ..S
     4c9:	d2 78 e5 14 34 60 41 04 0d 58 10 39 23 16 44 ce     .x..4`A..X.9#.D.
     4d9:	88 05 11 33 64 41 a4 10 59 10 29 63 96 53 c8 a8     ...3dA..Y.)c.S..
     4e9:	e4 14 32 aa 21 85 8c db ca c0 ab 0c 63 de 31 84     ..2.!.......c.1.
     4f9:	28 3d 48 bb 64 14 52 ee 18 c5 94 3a 48 39 a4 0e     (=H.d.R....:H9..
     509:	42 50 99 a3 10 54 e6 28 04 15 39 4a 41 25 12 43     BP...T.(..9JA%.C
     519:	50 89 e3 10 54 20 39 04 15 38 50 39 04 8e 54 4c     P...T 9..8P9..TL
     529:	81 43 15 52 e0 60 0d 8e a6 e2 80 e6 c3 ff 7f 16     .C.R.`..........
     539:	00 26 6a 25 f0 28 7f f8 ff 0f 25 dd ee ab c6 90     .&j%.(....%.....
     549:	5a 10 a1 24 11 4a 12 a1 24 11 5a 0e a9 c5 14 5b     Z..$.J..$.Z....[
     559:	48 b9 26 98 bc 36 e2 28 15 97 52 61 0c 95 65 84     H.&..6.(..Ra..e.
     569:	39 65 15 62 4c 51 c5 98 52 54 39 86 94 54 d0 19     9e.bLQ..RT9..T..
     579:	25 95 64 06 51 45 19 41 54 59 26 10 55 98 52 a5     %.d.QE.ATY&.U.R.
     589:	a1 55 dc 61 c5 19 66 18 62 26 ad f5 00 5b 0f 10     .U.a..f.b&...[..
     599:	61 d8 2b a6 2d 64 3e fc ff 61 00 27 13 12 f0 90     a.+.-d>..a.'....
     5a9:	7e f8 f7 4a ab 1c fd b9 f1 a6 0f ff ff 07 28 24     ~..J..........($
     5b9:	11 f0 88 7e f8 83 c3 8d 46 da 68 14 23 8d c6 0a     ...~....F.h.#...
     5c9:	23 8d 62 f5 ff 35 5a 2b 8d ce 91 46 dc 70 c4 4d     #.b..5Z+...F.p.M
     5d9:	1f 0e 29 2a 11 f0 88 7e f8 5b e3 0d 37 1c 69 c4     ..)*...~.[..7.i.
     5e9:	91 46 39 d2 68 ad b0 d2 e8 ff 63 15 23 8d 62 85     .F9.h.....c.#.b.
     5f9:	91 46 31 d2 48 1b 6e b4 f1 e1 0a 00 2a 40 1f f0     .F1.H.n.....*@..
     609:	f8 7e f8 ff 5b a2 08 4a 0a 99 64 10 4a 06 a9 63     .~..[..J..d.J..c
     619:	8c 3b c2 c8 22 88 29 4a 29 82 3d 40 d8 03 84 95     .;..".)J).=@....
     629:	31 46 99 25 8f 30 2e 09 c4 8e 31 2a 19 64 92 42     1F.%.0....1*.d.B
     639:	e6 28 c3 86 12 3e fc ff ff 3f 06 00 2b 59 31 f0     .(...>...?..+Y1.
     649:	88 7f f8 ff ff ff 1f 1c 1f bc f1 c1 1b 1f bc f1     ................
     659:	c1 1b 1f bc f1 c1 1b 1f bc f1 c1 1b 1f bc f1 c1     ................
     669:	1b 1f bc f1 c1 1b 1f 88 07 1c 7d c0 d1 07 dc 07     ..........}.....
     679:	62 7c f0 c6 07 6f 7c f0 c6 07 6f 7c f0 c6 07 6f     b|...o|...o|...o
     689:	7c f0 c6 07 6f 7c f0 c6 07 6f 7c f0 c6 07 6f 7c     |...o|...o|...o|
     699:	f8 ff 7f 09 00 2c 1a 0d f0 68 7e f8 ff 5f 30 a7     .....,...h~.._0.
     6a9:	a0 72 0a aa 10 41 05 91 44 d2 48 e4 c3 0a 00 2d     .r...A..D.H....-
     6b9:	10 10 f0 80 7e f8 ff 5f 61 84 f7 e1 7f 1d 00 2e     ....~.._a.......
     6c9:	0f 0d f0 68 7e f8 ff 5f 28 a8 de 87 17 01 2f 37     ...h~.._(...../7
     6d9:	13 f0 98 7e f8 47 c7 23 6f c0 f1 c8 1b 70 3c f2     ...~.G.#o....p<.
     6e9:	06 9c 1e 79 03 8e 47 de 80 d3 23 6f c0 f1 c8 1b     ...y..G...#o....
     6f9:	70 3c ea 0d 38 1e 79 03 8e 47 de 80 d3 23 6f c0     p<..8.y..G...#o.
     709:	f1 c8 87 2f 02 30 5b 1b f0 d8 7e f8 7f 4a 41 d6     .../.0[...~..JA.
     719:	1e 08 eb 81 a0 ca 31 a9 a0 4a 95 43 56 39 84 11     ......1..J.CV9..
     729:	53 18 31 85 95 52 58 29 85 95 52 58 29 85 95 52     S.1..RX)..RX)..R
     739:	58 29 85 95 52 58 29 85 95 52 58 29 85 95 52 58     X)..RX)..RX)..RX
     749:	29 85 95 52 58 31 84 15 43 18 39 84 91 53 54 41     )..RX1..C.9..STA
     759:	44 15 54 25 63 8c 7a 20 30 e7 58 4c 1f fe ef 01     D.T%c.z 0.XL....
     769:	31 20 1b f0 d8 7e f8 ff 96 a1 67 22 99 e0 7a ec     1 ...~....g"..z.
     779:	99 50 1e 19 e5 89 52 6c fd ff ff f7 e1 7f 12 00     .P....Rl........
     789:	32 39 1b f0 d8 7e f8 7f 4b bd d6 de 7a 40 28 73     29...~..K...z@(s
     799:	0a 32 89 a0 a2 ca 29 aa 9c a2 ca 29 aa d8 ca 12     .2....)....)....
     7a9:	5b 6a a9 a6 56 d5 50 fb d1 43 ed ea 03 c6 3c 60     [j..V.P..C....<`
     7b9:	cc 03 c6 3c 60 3e fc 5f 02 33 49 1b f0 d8 7e f8     ...<`>._.3I...~.
     7c9:	7f 4a 3d c7 1e 08 eb 01 91 cc 31 a8 a4 72 ca 22     .J=.......1..r."
     7d9:	a7 2c 72 ca 2a 96 5c 62 4b 2d f3 40 15 d1 4c 52     .,r.*.\bK-.@..LR
     7e9:	d5 73 2b 5b 6e b1 55 29 ac 94 c2 4a 31 ab 14 b3     .s+[n.U)...J1...
     7f9:	c8 29 aa 9c 63 0e 7a 60 a8 07 02 73 4f 7d f8 bf     .)..c.z`...sO}..
     809:	07 00 34 48 1b f0 d8 7e f8 ff 9a a1 d7 44 32 45     ..4H...~.....D2E
     819:	15 49 28 90 88 f2 8a 28 8f 8c e2 08 29 ad 90 d2     .I(....(....)...
     829:	48 29 8c 98 b2 8a 29 8b 9c a2 08 2a a9 a0 92 48     H)....)....*...H
     839:	2a 88 a8 72 8a 2a 87 ac 72 1e 48 e3 81 34 1e 48     *..r.*..r.H..4.H
     849:	e3 81 24 8b ad bf 0f ff 83 00 35 41 1b f0 d8 7e     ..$.......5A...~
     859:	f8 ff c4 03 23 3d 30 d2 03 23 3d 30 52 b1 f5 27     ....#=0..#=0R..'
     869:	4e 2b 41 ad 07 84 42 a5 24 83 2a 45 10 59 e5 10     N+A...B.$.*E.Y..
     879:	46 2e 7d a6 30 62 ca 2a a6 2c 72 8a 2a c8 9c a2     F.}.0b.*.,r.*...
     889:	1e 10 ea 81 d0 da 53 1f fe 37 01 36 52 1b f0 d8     ......S..7.6R...
     899:	7e f8 7f 4b bd d6 de 3a a5 a8 82 aa 54 50 51 e4     ~..K...:....TPQ.
     8a9:	94 45 4e b1 e4 d2 91 c3 c8 50 a9 88 76 4a 70 27     .EN......P..vJp'
     8b9:	95 63 4e 2a c6 ac 52 cc 2a a5 34 52 4a 23 a5 34     .cN*..R.*.4RJ#.4
     8c9:	52 4a 2b a4 34 52 4a 23 86 34 62 ca 2a a6 2c 82     RJ+.4RJ#.4b.*.,.
     8d9:	cc 31 e9 01 b1 5e 6b 30 7d f8 bf 07 00 37 36 1b     .1...^k0}....76.
     8e9:	f0 d8 7e f8 ff c2 03 c6 3c 60 cc 03 c6 3c 60 2e     ..~.....<`...<`.
     8f9:	b1 c5 12 5b 59 62 ab 5a 6c b1 c4 56 96 d8 aa 16     ...[Yb.Zl..V....
     909:	5b d5 62 4b 2d b6 aa c5 96 6a 6a b1 a5 16 5b 3e     [.bK-....jj...[>
     919:	fc 0f 03 38 58 1b f0 d8 7e f8 7f 6a b9 b7 1e 10     ...8X...~..j....
     929:	e9 01 82 cc b1 92 31 65 15 53 56 31 65 15 53 56     ......1e.SV1e.SV
     939:	31 65 95 43 16 41 25 95 64 8a 59 cf ad c7 dc 5b     1e.C.A%.d.Y....[
     949:	c5 98 54 9d b2 c8 21 ac 94 d2 48 29 8d 94 d2 48     ..T...!...H)...H
     959:	29 8d 94 d2 48 29 8d 94 c2 8a 29 ab 18 83 0c 7a     )...H)....)....z
     969:	80 a4 07 c4 7a 6e 7d f8 3f 07 00 39 54 1b f0 d8     ....zn}.?..9T...
     979:	7e f8 7f 6a 39 c7 1e 08 ea 81 81 ac 53 54 39 64     ~..j9.......ST9d
     989:	15 53 58 29 85 95 52 58 29 85 95 52 58 29 85 95     .SX)..RX)..RX)..
     999:	52 58 29 65 19 43 96 31 25 1d 73 0c 3a 0f 14 d4     RX)e.C.1%.s.:...
     9a9:	42 49 4b 94 75 48 b1 95 25 97 d8 72 c8 2a 87 a8     BIK.uH..%..r.*..
     9b9:	82 4a aa 4e 51 0f 88 f5 5a 7b ea c3 ff 41 00 3a     .J.NQ...Z{...A.:
     9c9:	13 0d f0 68 7e f8 df 2b a8 de 87 97 0a aa f7 e1     ...h~..+........
     9d9:	45 00 3b 1c 0d f0 68 7e f8 df 2b a8 de 87 97 cc     E.;...h~..+.....
     9e9:	29 a8 3a 05 15 44 12 41 24 51 69 7c 58 01 3c 4e     ).:..D.A$Qi|X.<N
     9f9:	31 f0 88 7f f8 ff ff ff ff 11 f1 41 2b 1f ac f3     1..........A+...
     a09:	01 42 1f 1c f4 01 3a 1f 20 f4 01 3a 1f a0 f3 41     .B....:. ..:...A
     a19:	3a 1f a0 f3 81 2a 1f b4 f1 c1 33 1f b8 f3 41 3b     :....*....3...A;
     a29:	1f b8 f3 41 43 1f b4 f3 41 43 1f 34 f4 41 3b 1f     ...AC...AC.4.A;.
     a39:	b4 f3 81 23 1f 40 f1 e1 ff ff 2f 00 3d 25 31 f0     ...#.@..../.=%1.
     a49:	88 7f f8 ff ff ff ff ff dd 07 1c 7d c0 d1 07 dc     ...........}....
     a59:	87 ff c8 03 8e 3e e0 e8 03 ee c3 ff ff ff ff 06     .....>..........
     a69:	00 3e 4e 31 f0 88 7f f8 ff ff ff ff 90 f8 00 96     .>N1............
     a79:	0f da f9 a0 a1 0f 1a fa a0 9d 0f 1a fa a0 9d 0f     ................
     a89:	dc f9 a0 9d 0f dc f9 c0 95 0f de f8 80 99 0f d2     ................
     a99:	f9 20 9d 0f d0 f9 00 a1 0f d0 f9 00 a1 0f 0e fa     . ..............
     aa9:	00 9d 0f d2 f9 60 91 0f 9c f8 f0 ff ff c7 01 3f     .....`.........?
     ab9:	2d 19 f0 c8 7e f8 bf a4 5c 5b 0f 04 f4 80 38 28     -...~...\[....8(
     ac9:	a8 62 92 29 83 15 23 58 a1 35 4a 68 99 b5 49 66     .b.)..#X.5Jh..If
     ad9:	8d 92 4a df 87 8d 42 eb 3e fc af 02 40 ab 30 f0     ..J...B.>...@.0.
     ae9:	80 7f f8 ff ff c7 d4 07 e4 01 d1 1f 30 f9 01 55     ............0..U
     af9:	93 4a f3 c0 13 0d 35 cf dc e2 4a 2e ac ec a2 0a     .J....5...J.....
     b09:	2f aa 24 33 8a 21 a9 20 15 8a 29 a8 9c 07 c4 21     /.$3.!. ..)....!
     b19:	88 1c 43 d0 21 88 9c 72 cc 29 a6 42 e6 14 53 a5     ..C.!..r.).B..S.
     b29:	72 8a 29 86 a8 72 8a 29 86 a8 72 8a 29 86 a8 72     r.)..r.)..r.)..r
     b39:	8a 29 a5 a8 72 8a 29 a5 a8 72 8a 29 86 a8 72 8a     .)..r.)..r.)..r.
     b49:	29 86 a8 72 8a 29 86 a8 72 08 22 a6 a4 62 0a 22     )..r.)..r."..b."
     b59:	a6 20 63 0a 2a a6 18 44 4a 2a a7 90 07 86 22 87     . c.*..DJ*....".
     b69:	09 b6 ca 51 63 31 83 8c 49 ae d8 02 cd 07 cc 7c     ...Qc1..I......|
     b79:	c0 ce 07 eb 7c b0 d4 12 fb 01 c3 1f 28 1f 80 07     ....|.......(...
     b89:	c4 07 83 7d f8 4b 00 41 5d 24 f0 20 7f f8 ff 9f     ...}.K.A]$. ....
     b99:	30 de 74 c4 d1 4e 5b 69 12 4a 2e a2 60 32 ca 2d     0.t..N[i.J..`2.-
     ba9:	a4 d8 42 4a 2d a5 d4 62 0a 25 a7 cc 82 8a 2c a8     ..BJ-..b.%....,.
     bb9:	c4 a2 0a 2c aa 40 b2 ca 2b ac b8 c2 4a 7b 20 b1     ...,.@..+...J{ .
     bc9:	07 d2 7a 40 ad 07 96 22 92 a4 22 0b 2a b2 9c 42     ..z@..."..".*..B
     bd9:	8b 29 b4 18 52 4b 29 b6 90 62 cb 28 b8 88 82 cb     .)..RK)..b.(....
     be9:	87 ff 1f 01 42 64 20 f0 00 7f f8 ff a3 0f 0c f7     ....Bd .........
     bf9:	40 61 0f 1c f5 00 4a 65 9d 54 9a 41 c5 15 54 1e     @a....Je.T.A..T.
     c09:	41 e5 11 54 1e 41 e5 11 54 1e 41 c5 15 54 5a 49     A..T.A..T.A..TZI
     c19:	65 19 f5 80 59 0f 90 f6 40 61 0f 1c 55 d6 49 c5     e...Y...@a..U.I.
     c29:	15 54 5e 39 e5 95 53 20 39 05 92 53 60 31 05 92     .T^9..S 9..S`1..
     c39:	53 5e 39 e5 95 53 da 39 65 21 f4 00 4a 0f 1c f5     S^9..S.9e!..J...
     c49:	80 59 0f 8c 0f ff ef 02 43 3f 20 f0 00 7f f8 ff     .Y......C? .....
     c59:	ed 35 df 7b 80 b0 07 ca 3a c9 a8 d2 0a 2a ae a0     .5.{....:....*..
     c69:	f2 c8 29 90 9c 02 c9 21 9c ec fa 1f a7 f1 02 09     ..)....!........
     c79:	22 90 a0 e2 4a 2a ad 24 a3 cc 7a a0 b4 07 c6 7b     "...J*.$..z....{
     c89:	20 48 f6 e1 ff bb 00 44 62 22 f0 10 7f f8 ff 57      H.....Db".....W
     c99:	df 7c 80 bc 07 4c 7b e0 b0 a2 d0 2a ec a8 e2 4c     .|...L{....*...L
     ca9:	2a af a4 02 0b 2a b0 a0 12 cb 29 b1 9c 12 cb 29     *....*....)....)
     cb9:	92 9c 22 c9 29 92 9c 22 c9 29 b2 98 22 c9 29 92     ..".)..".)..".).
     cc9:	9c 22 c9 29 92 9c 12 cb 29 b1 9c 12 09 2a b0 a0     .".)....)....*..
     cd9:	f2 0c 2a af a4 e2 4c 2a ec a8 a2 d0 7a e0 b0 07     ..*...L*....z...
     ce9:	4c 7b 80 bc f7 e1 ff bb 00 45 32 1d f0 e8 7e f8     L{.......E2...~.
     cf9:	ff 8d 07 ce 79 e0 9c 07 ce 79 e0 9c 82 eb 3f fc     ....y....y....?.
     d09:	80 41 0f 18 f4 80 41 0f 18 54 70 fd 0f 3f 70 ce     .A....A..Tp..?p.
     d19:	03 e7 3c 70 ce 03 e7 c3 ff 21 00 46 28 1b f0 d8     ..<p.....!.F(...
     d29:	7e f8 ff c4 03 e5 3c 50 ce 03 e5 3c 50 4e b1 f5     ~.....<P...<PN..
     d39:	9f 7d 80 a0 07 08 7a 80 a0 07 08 2a b6 fe 7f 1f     .}....z....*....
     d49:	fe c7 01 47 64 24 f0 20 7f f8 ff 2f 84 de ea 03     ...Gd$. .../....
     d59:	42 3e 40 de 03 a7 1d 75 96 71 46 15 58 52 91 24     B>@....u.qF.XR.$
     d69:	91 49 50 f9 00 90 0f 02 f9 00 94 0f 40 f9 00 94     .IP.........@...
     d79:	0f 40 f9 00 14 d6 4c 61 cd 14 d6 4c 61 cd 14 5a     .@....La...La..Z
     d89:	4c a1 e5 10 5a 4e 99 e5 94 59 4e 99 05 15 59 50     L...ZN...YN...YP
     d99:	91 25 95 58 92 81 45 9d 66 d6 03 8a 3d 90 dc 03     .%.X..E.f...=...
     da9:	26 be 0f ff bf 05 00 48 65 22 f0 10 7f f8 ff 57     &......He".....W
     db9:	0b 2c a8 c0 82 0a 2c a8 c0 82 0a 2c a8 c0 82 0a     .,....,....,....
     dc9:	2c a8 c0 82 0a 2c a8 c0 82 0a 2c a8 c0 82 0a 2c     ,....,....,....,
     dd9:	a8 c0 82 0a 2c e8 81 85 1e 58 e8 81 85 1e 58 a8     ....,....X....X.
     de9:	c0 82 0a 2c a8 c0 82 0a 2c a8 c0 82 0a 2c a8 c0     ...,....,....,..
     df9:	82 0a 2c a8 c0 82 0a 2c a8 c0 82 0a 2c a8 c0 82     ..,....,....,...
     e09:	0a 2c a8 c0 82 0a 2c 1f fe 3f 06 00 49 11 0c f0     .,....,..?..I...
     e19:	60 7e f8 54 39 f5 ff ff ff df 87 47 00 4a 27 1b     `~.T9......G.J'.
     e29:	f0 d8 7e f8 ff 62 b1 f5 ff ff 67 c9 29 8b 9c b2     ..~..b....g.)...
     e39:	c8 29 aa 20 92 0c 2a c7 a8 07 c2 7a 20 34 06 d5     .). ..*....z 4..
     e49:	87 ff 4d 00 4b 5f 20 f0 00 7f f8 ff a3 a5 19 54     ..M.K_ ........T
     e59:	98 49 65 19 55 94 59 25 19 56 90 69 05 15 57 4e     .Ie.U.Y%.V.i..WN
     e69:	79 c5 14 58 4a 89 85 98 58 86 91 45 98 59 82 a1     y..XJ...X..E.Y..
     e79:	ab 2a bb 2a a3 25 9c 59 c4 91 65 9c 58 88 89 a5     .*.*.%.Y..e.X...
     e89:	18 58 ca 79 c5 1c 57 ce 69 05 99 56 92 61 45 99     .X.y..W.i..V.aE.
     e99:	55 d4 51 65 9d 54 d8 41 a5 19 54 9c 39 e5 99 0f     U.Qe.T.A..T.9...
     ea9:	ff ef 01 4c 1c 19 f0 c8 7e f8 7f a1 d0 fa ff ff     ...L....~.......
     eb9:	ff e8 03 a5 3c 50 ca 03 a5 3c 50 3e fc 07 01 4d     ....<P...<P>...M
     ec9:	9a 2b f0 58 7f f8 ff ff 14 a2 07 a1 89 10 9a 08     .+.X............
     ed9:	a5 98 50 8a 09 a5 98 90 7a 0a a9 47 42 41 25 90     ..P.....z..GBA%.
     ee9:	47 42 41 25 94 56 42 41 45 90 46 44 41 45 90 46     GBA%.VBAE.FDAE.F
     ef9:	44 41 45 94 55 44 41 65 90 45 46 41 65 94 54 46     DAE.UDAe.EFAe.TF
     f09:	41 65 94 54 46 41 85 90 44 48 41 85 94 53 48 41     Ae.TFA..DHA..SHA
     f19:	85 94 43 4a 41 a5 90 43 4a 41 a5 d4 50 31 a4 10     ..CJA..CJA..P1..
     f29:	53 50 31 a4 10 53 50 31 65 14 53 50 39 64 90 53     SP1..SP1e.SP9d.S
     f39:	50 39 44 94 53 50 39 25 94 53 50 41 24 10 54 a1     P9D.SP9%.SPA$.T.
     f49:	84 aa 74 52 41 25 9d 54 50 49 27 15 54 54 85 8a     ..tRA%.TPI'.TT..
     f59:	aa 50 51 d5 87 ff ff 0a 00 4e 79 23 f0 18 7f f8     .PQ......Ny#....
     f69:	ff cf 9c 57 d0 79 05 21 57 50 6a 05 a5 56 90 62     ...W.y.!WPj..V.b
     f79:	05 29 56 d0 5a 05 95 50 56 41 25 18 55 50 11 45     .)V.Z..PVA%.UP.E
     f89:	15 54 84 49 05 95 61 50 35 0c aa 88 39 05 95 52     .T.I..aP5...9..R
     f99:	4e 41 a5 18 53 50 31 15 2a c6 94 82 ca 29 a5 a0     NA..SP1.*....)..
     fa9:	72 0c 29 a8 20 33 0a 2a c8 8c 82 4a 32 a2 a0 a2     r.). 3.*...J2...
     fb9:	8a 28 a8 28 13 0a 2a ab 84 82 ca 5a a8 30 85 0a     .(.(..*....Z.0..
     fc9:	53 a8 b4 84 4a 4b a8 38 84 ca 3b a8 bc f3 e1 ff     S...JK.8..;.....
     fd9:	cb 00 4f 60 25 f0 28 7f f8 ff 2f 35 fb 80 98 0f     ..O`%.(.../5....
     fe9:	90 f8 80 79 66 99 66 2d 03 8b 2a b1 a4 32 0b 2a     ...yf.f-..*..2.*
     ff9:	b3 20 52 09 22 95 9c 52 8b 29 b5 98 52 8b 29 b5     . R."..R.)..R.).
    1009:	98 52 8b 29 b5 98 52 8b 29 b5 98 52 8b 29 b5 1c     .R.)..R.)..R.)..
    1019:	52 09 22 95 a0 32 0b 2a b3 24 22 8b 2a b1 ac f2     R."..2.*.$".*...
    1029:	4a 2b cd b4 93 ce 7b c0 c4 07 08 7d 78 7d f8 ff     J+....{....}x}..
    1039:	47 00 50 40 1e f0 f0 7e f8 ff cd f7 1e 18 ec 81     G.P@...~........
    1049:	a2 1e 30 a9 24 84 0a 2b a8 b4 72 4a 2b a7 b4 72     ..0.$..+..rJ+..r
    1059:	4a 2b a7 b4 72 4a 2b a7 b4 72 4a 2b a7 b0 82 4a     J+..rJ+..rJ+...J
    1069:	42 e8 01 93 1e 28 ea 81 c1 de 2b b9 fe bf 0f ff     B....(....+.....
    1079:	0f 01 51 65 26 f0 30 7f f8 ff 2f b3 fb 80 a0 0f     ..Qe&.0.../.....
    1089:	10 f9 80 81 66 19 67 9a 61 06 96 55 62 51 65 96     ....f.g.a..UbQe.
    1099:	54 66 49 a4 92 44 2a 41 a5 96 53 6a 39 a5 96 53     TfI..D*A..Sj9..S
    10a9:	6a 39 a5 96 53 6a 39 a5 96 53 6a 39 a5 96 53 6a     j9..Sj9..Sj9..Sj
    10b9:	41 a4 92 44 2a 49 65 96 54 66 51 44 96 55 62 61     A..D*Ie.TfQD.Uba
    10c9:	e5 15 57 9a 71 27 1d f8 80 09 47 3d d0 d8 03 cb     ..W.q'....G=....
    10d9:	3d 90 3e fc ff 33 00 52 64 1e f0 f0 7e f8 ff cd     =.>..3.Rd...~...
    10e9:	07 82 7b 80 ac 07 4c 7a e0 a0 a2 0e 2a cc 9c d2     ..{...Lz....*...
    10f9:	ca 29 8e 9c e2 c8 29 8e 9c e2 c8 29 8e 9c d2 ca     .)....)....)....
    1109:	29 ac a0 a2 4c 7a a0 a8 07 06 7b 80 ac 07 8a 2a     )...Lz....{....*
    1119:	ca a4 b2 4a 2a ac a0 c2 0a 2a ac a0 d2 08 2a 8d     ...J*....*....*.
    1129:	a0 d2 ca 29 ad 9c d2 ca 29 8e 9c e2 c8 29 8e 9c     ...)....)....)..
    1139:	e2 8a 29 ae 98 f2 c8 87 ff a3 00 53 4e 20 f0 00     ..)........SN ..
    1149:	7f f8 ff e5 35 1f 08 ef 81 d1 1e 28 ab 52 a5 95     ....5......(.R..
    1159:	44 1e 49 e4 11 54 1e 49 84 13 5e b6 d1 28 ab eb     D.I..T.I..^..(..
    1169:	e6 03 41 3e 10 a6 bb 4a 9f 5d 78 d9 95 29 b0 98     ..A>...J.]x..)..
    1179:	02 8b 29 b0 9c f2 08 2a ae a0 a3 8c 7a e0 ac 07     ..)....*....z...
    1189:	4a 7b 40 44 f6 e1 ff cb 00 54 1c 1e f0 f0 7e f8     J{@D.....T....~.
    1199:	ff c1 07 9a 78 a0 89 07 9a 78 a0 b5 92 eb ff ff     ....x....x......
    11a9:	ff fb f0 ff 00 55 64 23 f0 18 7f f8 ff cf 14 59     .....Ud#.......Y
    11b9:	4e 91 e5 14 59 4e 91 e5 14 59 4e 91 e5 14 59 4e     N...YN...YN...YN
    11c9:	91 e5 14 59 4e 91 e5 14 59 4e 91 e5 14 59 4e 91     ...YN...YN...YN.
    11d9:	e5 14 59 4e 91 e5 14 59 4e 91 e5 14 59 4e 91 e5     ..YN...YN...YN..
    11e9:	14 49 50 91 04 15 49 50 91 04 15 49 12 89 25 91     .IP...IP...I..%.
    11f9:	58 52 81 44 95 57 56 69 66 1d 65 da 03 e6 3d 50     XR.D.WVif.e...=P
    1209:	e0 03 82 b6 0f ff bf 00 00 56 5a 1f f0 f8 7e f8     .........VZ...~.
    1219:	ff 0b 65 16 61 64 19 25 9a 51 62 21 06 96 52 9e     ..e.ad.%.Qb!..R.
    1229:	29 e5 15 63 5c 39 a5 99 53 5a 41 86 95 54 96 49     )..c\9..SZA..T.I
    1239:	65 15 65 54 59 25 99 55 52 69 05 95 56 8e 69 e5     e.eTY%.URi..V.i.
    1249:	94 57 4c 79 a5 14 58 4a 89 85 94 58 46 91 65 94     .WLy..XJ...XF.e.
    1259:	59 44 99 25 14 5a 42 a9 aa 26 9b 2e ba 27 5b 1f     YD.%.ZB..&...'[.
    1269:	fe 1f 03 57 a0 2f f0 78 7f f8 ff ff 4b c5 99 57     ...W./.x....K..W
    1279:	44 71 a7 19 51 dc 69 85 14 86 5a 21 85 a1 56 48     Dq..Q.i...Z!..VH
    1289:	61 69 15 53 16 09 64 15 53 54 09 64 15 53 54 09     ai.S..d.ST.d.ST.
    1299:	64 91 53 14 11 25 15 54 12 19 24 15 54 0d 92 0a     d.S..%.T..$.T...
    12a9:	aa 06 49 44 11 44 48 39 45 95 43 0a 39 45 15 53     ..ID.DH9E.C.9E.S
    12b9:	0a 39 84 11 43 4c 29 85 11 43 0e 29 85 95 42 0e     .9..CL)..C.)..B.
    12c9:	29 85 15 52 0e 29 c4 11 42 50 19 c5 95 41 12 19     )..R.)..BP...A..
    12d9:	c5 95 41 12 19 04 12 51 12 19 04 12 41 54 09 05     ..A....Q....AT..
    12e9:	96 40 16 09 24 aa 45 02 91 88 91 40 24 6a 48 a2     .@..$.E....@$jH.
    12f9:	76 e8 69 87 1a 77 a8 79 c5 96 57 2c 81 e5 c3 ff     v.i..w.y..W,....
    1309:	ff 09 00 58 5b 22 f0 10 7f f8 ff 47 0d 34 c7 38     ...X[".....G.4.8
    1319:	93 4c 2b ca 30 b3 8c 32 cd a4 e2 0c 32 cf 9c 12     .L+.0..2....2...
    1329:	8b 29 d2 90 42 cd 28 b5 88 62 17 56 19 e9 c3 cd     .)..B.(..b.V....
    1339:	46 39 65 75 4b 30 b5 8c 52 cb 30 b3 14 13 8d 29     F9euK0..R.0....)
    1349:	b1 1c f3 4a 32 cd a8 d2 ca 32 ab 34 93 8c 33 a8     ...J2....2.4..3.
    1359:	3c 73 4a 34 c5 c4 43 ca 34 1f fe 3f 05 00 59 3c     <sJ4..C.4..?..Y<
    1369:	20 f0 00 7f f8 ff 8b 66 96 61 62 29 05 9a 62 5e      ......f.ab)..b^
    1379:	39 a6 19 54 5a 49 66 d5 96 49 a5 95 54 5c 39 e5     9..TZIf..I..T\9.
    1389:	99 52 62 29 25 9a 51 66 19 85 96 50 6a 09 e4 a6     .Rb)%.Qf...Pj...
    1399:	8b b2 d9 f5 ff fb f0 ff 34 00 5a 34 1d f0 e8 7e     ........4.Z4...~
    13a9:	f8 ff 89 07 52 79 20 95 07 52 79 20 5d cb da ec     ....Ry ..Ry ]...
    13b9:	b1 36 7b ac cd 1e 6b b3 c7 da ec b1 36 7b ac b9     .6{...k.....6{..
    13c9:	0f 28 f2 80 22 0f 28 f2 80 fa f0 7f 07 00 5b 16     .(..".(.......[.
    13d9:	13 f0 98 7e f8 e7 93 4a aa b8 fa ff ff ff ff b9     ...~...J........
    13e9:	a4 b2 0f 01 5c 2a 13 f0 98 7e f8 87 08 9c 41 02     ....\*...~....A.
    13f9:	27 48 e0 0c 12 38 41 02 27 48 e0 0c 12 38 41 02     'H...8A.'H...8A.
    1409:	67 90 c0 09 12 38 41 02 67 90 7c f8 0c 00 5d 15     g....8A.g.|...].
    1419:	14 f0 a0 7e f8 0f a6 95 5e fd ff ff ff ff ad dc     ...~....^.......
    1429:	87 06 00 5e 6b 30 f0 80 7f f8 ff ff ff 77 c8 07     ...^k0.......w..
    1439:	8d 7c d0 c8 07 cc 7c b0 cc 07 4b 08 f1 81 1a 62     .|....|...K....b
    1449:	7c 90 86 18 1f a0 41 c4 07 68 90 f1 c1 19 64 7c     |.....A..h....d|
    1459:	60 a6 0f ca 30 e3 83 22 90 f8 80 0c 34 3e 18 03     `...0.."....4>..
    1469:	8d 0f 86 50 e2 03 31 d4 f8 20 0c 35 3e 00 83 0d     ...P..1.. .5>...
    1479:	3f d8 f0 83 8d 3e dc e0 c3 0d 2e a0 d8 03 0e 3d     ?....>.........=
    1489:	e0 c8 43 0e 3c e4 c0 43 8e 0f ff ff 07 01 5f 13     ..C.<..C......_.
    1499:	18 f0 c0 7e f8 ff ff ff ff 97 1f f8 01 f6 e1 35     ...~...........5
    14a9:	00 60 17 0b f0 58 7e b8 59 0e 39 e5 10 44 d0 48     .`...X~.Y.9..D.H
    14b9:	03 11 34 3e fc 7f 1e 00 61 42 1a f0 d0 7e f8 ff     ..4>....aB...~..
    14c9:	ff 02 6b 4f 3d 20 90 39 05 95 54 0e 51 c5 94 45     ..kO= .9..T.Q..E
    14d9:	2c d5 9a 7a 20 a0 07 c6 41 a6 18 93 8a 29 aa 94     ,..z ...A....)..
    14e9:	b2 4a 29 ab 94 b2 4a 29 ca 94 a2 8c 29 07 99 17     .J)...J)....)...
    14f9:	08 62 82 a4 44 ca 87 ff 65 00 62 4b 1c f0 e0 7e     .b..D...e.bK...~
    1509:	f8 ff 62 b9 f5 bf 91 56 09 2d 3d 50 10 3a 05 9d     ..b....V.-=P.:..
    1519:	54 8e 59 e4 98 55 4c 61 c5 94 46 4c 69 c4 94 46     T.Y..ULa..FLi..F
    1529:	4c 69 c4 94 46 4c 69 c4 94 46 4c 69 c4 14 56 4c     Li..FLi..FLi..VL
    1539:	61 e4 18 55 ce 41 05 21 63 d0 03 24 95 c0 54 19     a..U.A.!c..$..T.
    1549:	e8 c3 ff 05 00 63 31 19 f0 c8 7e f8 ff 7f 66 35     .....c1...~...f5
    1559:	a7 1e 08 a8 1c 63 4a 2a a6 28 62 c8 22 a5 2c 52     .....cJ*.(b.".,R
    1569:	0a ad bf 45 0c 59 c4 94 54 4c 49 e5 54 e9 81 a0     ...E.Y..TLI.T...
    1579:	5c 53 1f fe 07 01 64 4c 1c f0 e0 7e f8 ff 8d 72     \S....dL...~...r
    1589:	eb bf 95 46 49 4c 14 e4 42 39 c6 a4 53 10 32 45     ...FIL..B9..S.2E
    1599:	1d 53 96 31 84 99 52 98 29 a5 95 52 5a 29 a5 95     .S.1..R.)..RZ)..
    15a9:	52 5a 29 a5 95 52 5a 29 a5 15 43 98 31 65 19 53     RZ)..RZ)..C.1e.S
    15b9:	d4 39 25 1d 54 4c 4a 0f 10 c5 42 61 68 94 0f ff     .9%.TLJ...Bah...
    15c9:	d3 00 65 3c 1a f0 d0 7e f8 ff ff c4 6a 6e 3d 10     ..e<...~....jn=.
    15d9:	92 39 05 11 55 4c 59 c4 10 56 0a 61 85 14 56 c8     .9..ULY..V.a..V.
    15e9:	03 87 3c 70 c8 03 87 94 5a b3 84 95 42 58 29 45     ..<p....Z...BX)E
    15f9:	95 53 52 41 e5 94 f4 40 60 cd a9 0f ff 07 66 1c     .SRA...@`.....f.
    1609:	11 f0 88 7e f8 7b e9 28 b3 4c 61 a4 11 56 0f 3d     ...~.{.(.La..V.=
    1619:	f1 99 c2 ea ff ff 3e fc 38 00 67 5a 1c f0 e0 7e     ......>.8.gZ...~
    1629:	f8 ff ff 5d 25 4a 6a a1 a0 07 ca 31 07 1d a2 8e     ...]%Jj....1....
    1639:	29 cb 18 c2 4c 29 cc 94 d2 4a 29 ad 94 d2 4a 29     )...L)...J)...J)
    1649:	ad 94 d2 4a 29 ad 94 d2 4a 29 ad 18 c2 8c 29 cb     ...J)...J)....).
    1659:	98 a2 ce 29 08 9d 53 12 72 a1 a8 25 0a 3b 84 60     ...)..S.r..%.;.`
    1669:	ea 94 55 4e 59 e5 14 55 52 95 4e 31 eb 81 e0 98     ..UNY..UR.N1....
    1679:	44 1f e6 01 68 4b 1b f0 d8 7e f8 ff 42 b1 f5 3f     D...hK...~..B..?
    1689:	a1 54 09 0d 3d 40 10 32 e6 98 54 4e 59 c5 94 55     .T..=@.2..TNY..U
    1699:	4c 59 c5 94 55 4c 59 c5 94 55 4c 59 c5 94 55 4c     LY..ULY..ULY..UL
    16a9:	59 c5 94 55 4c 59 c5 94 55 4c 59 c5 94 55 4c 59     Y..ULY..ULY..ULY
    16b9:	c5 94 55 4c 59 c5 94 55 4c 59 e5 c3 ff 1a 00 69     ..ULY..ULY.....i
    16c9:	14 0b f0 58 7e 78 b8 98 da 87 6a 31 f5 ff ff fb     ...X~x....j1....
    16d9:	70 16 00 6a 18 0e f0 70 7e f8 b5 92 6a 1f e6 4a     p..j...p~...j..J
    16e9:	aa ff ff ff cf 9c 63 50 f9 20 02 6b 45 18 f0 c0     ......cP. .kE...
    16f9:	7e f8 bf 57 66 fd 0f 99 52 8e 31 c5 98 53 8a 41     ~..Wf...R.1..S.A
    1709:	85 98 54 48 51 65 94 55 44 61 25 94 a6 5c 7a ca     ..THQe.UDa%..\z.
    1719:	ad 56 82 61 45 98 55 46 59 65 18 55 88 49 a5 18     .V.aE.UFYe.U.I..
    1729:	54 4c 41 c5 98 53 8e 31 05 99 52 52 f9 f0 1f 01     TLA..S.1..RR....
    1739:	6c 11 0b f0 58 7e 78 b8 98 fa ff ff ff ef c3 59     l...X~x........Y
    1749:	00 6d 5a 2b f0 58 7f f8 ff ff ff bf 52 46 32 69     .mZ+.X......RF2i
    1759:	95 c0 08 4b 0f 10 e1 10 32 25 10 53 90 49 27 95     ...K....2%.S.I'.
    1769:	63 d2 49 e5 94 55 16 39 65 95 45 4e 59 65 91 53     c.I..U.9e.ENYe.S
    1779:	56 65 ca aa 4c 59 95 29 ab 32 65 55 a6 ac ca 94     Ve..LY.).2eU....
    1789:	55 99 b2 2a 53 56 65 ca aa 4c 59 95 29 ab 32 65     U..*SVe..LY.).2e
    1799:	55 a6 ac ca 94 55 7d f8 ff 1f 04 6e 48 1b f0 d8     U....U}....nH...
    17a9:	7e f8 ff ff 6e 11 4a 95 c0 d2 03 04 9d 63 a5 72     ~...n.J......c.r
    17b9:	ca 2a a6 ac 62 ca 2a a6 ac 62 ca 2a a6 ac 62 ca     .*..b.*..b.*..b.
    17c9:	2a a6 ac 62 ca 2a a6 ac 62 ca 2a a6 ac 62 ca 2a     *..b.*..b.*..b.*
    17d9:	a6 ac 62 ca 2a a6 ac 62 ca 2a a6 ac 62 ca 2a 1f     ..b.*..b.*..b.*.
    17e9:	fe 2f 01 6f 45 1c f0 e0 7e f8 ff ff 61 05 5d 7b     ./.oE...~...a.]{
    17f9:	20 ac 72 4c 2a c9 9c b2 ca 29 ac 18 d2 4a 29 8e      .rL*....)...J).
    1809:	94 e2 48 29 8e 94 e2 48 29 8e 94 e2 48 29 8e 94     ..H)...H)...H)..
    1819:	e2 88 21 ad 98 c2 8a 29 ab a0 92 4c 2a c7 ac 07     ..!....)...L*...
    1829:	42 73 50 7d f8 bf 0e 00 70 4c 1c f0 e0 7e f8 ff     BsP}....pL...~..
    1839:	ff c9 32 d2 2a a1 a5 07 0a 42 c7 9c 93 ca 31 ab     ..2.*....B....1.
    1849:	18 b3 8a 29 8d 98 d2 4a 29 ad 94 d2 4a 29 ad 94     ...)...J)...J)..
    1859:	d2 4a 29 ad 94 d2 4a 29 ad 94 d2 4a 31 ab 18 b3     .J)...J)...J1...
    1869:	8a 39 a9 1c 74 cc 79 a0 a0 12 5a 2a 23 ad 72 eb     .9..t.y...Z*#.r.
    1879:	df 87 43 00 71 4b 1c f0 e0 7e f8 ff ff dd 34 4a     ..C.qK...~....4J
    1889:	62 a2 a0 07 ca 31 07 9d 92 8e 29 cb 98 b2 4c 29     b....1....)...L)
    1899:	ad 94 d2 4a 29 ad 94 d2 4a 29 ad 94 d2 4a 29 ad     ...J)...J)...J).
    18a9:	94 d2 4a 29 ad 94 d2 8a 29 cb 98 b2 cc 29 e9 1c     ..J)....)....)..
    18b9:	73 10 7a a0 a4 16 ca 4a a3 dc fa ef c3 2c 00 72     s.z....J.....,.r
    18c9:	1a 11 f0 88 7e f8 ff 78 19 85 94 70 48 47 12 3a     ....~..x...pHG.:
    18d9:	ca ac c2 ea ff ef c3 af 01 73 36 18 f0 c0 7e f8     .........s6...~.
    18e9:	ff 3f b5 98 4b 0f 84 53 1d 92 c8 21 89 1c 92 c8     .?..K..S...!....
    18f9:	21 b4 4c 14 97 6b ad 3d 25 cd 2c 94 94 a2 48 29     !.L..k.=%.,...H)
    1909:	8a 94 92 8a 29 c7 98 07 04 7a 6b 7d f8 9f 00 74     ....)....zk}...t
    1919:	1a 10 f0 80 7e f8 6f 86 36 56 bd e3 84 67 ca aa     ....~.o.6V...g..
    1929:	ff 7f 2c 9d 84 d0 87 ef 02 75 49 1b f0 d8 7e f8     ..,......uI...~.
    1939:	ff ff cd b2 8a 29 ab 98 b2 8a 29 ab 98 b2 8a 29     .....)....)....)
    1949:	ab 98 b2 8a 29 ab 98 b2 8a 29 ab 98 b2 8a 29 ab     ....)....)....).
    1959:	98 b2 8a 29 ab 98 b2 8a 29 ab 98 b2 8a 29 ab 98     ...)....)....)..
    1969:	b2 ca 29 c9 1c 73 0e 7a 80 a0 16 8a 52 a2 7c f8     ..)..s.z....R.|.
    1979:	5f 03 76 3e 1a f0 d0 7e f8 ff ff 6a 71 45 14 47     _.v>...~...jqE.G
    1989:	48 61 85 14 56 4a 59 c4 14 55 4c 51 04 d5 10 51     Ha..VJY..ULQ...Q
    1999:	e5 10 55 4c 51 c5 10 56 0a 61 85 10 47 08 71 45     ..ULQ..V.a..G.qE
    19a9:	94 47 04 81 25 10 98 24 36 0d 35 b4 7c f8 1f 02     .G..%..$6.5.|...
    19b9:	77 71 27 f0 38 7f f8 ff ff ff 0f 14 75 16 11 45     wq'.8.......u..E
    19c9:	1d 55 06 51 47 95 41 d4 51 84 14 44 02 41 a5 10     .U.QG.A.Q..D.A..
    19d9:	44 02 41 c4 10 44 02 41 c4 14 43 06 31 e5 10 43     D.A..D.A..C.1..C
    19e9:	06 31 04 11 43 06 31 04 15 52 08 29 24 11 42 0a     .1..C.1..R.)$.B.
    19f9:	21 44 11 42 0a 21 44 11 42 0c 19 64 11 41 0e 11     !D.B.!D.B..d.A..
    1a09:	84 11 41 0e 11 84 11 41 d0 10 a4 a1 84 1c 4a c8     ..A....A......J.
    1a19:	a1 84 9e 59 06 9a 65 a0 59 26 92 46 3e fc ff 51     ...Y..e.Y&.F>..Q
    1a29:	00 78 42 1a f0 d0 7e f8 ff ff ac 59 a5 94 55 4c     .xB...~....Y..UL
    1a39:	49 e5 98 53 52 31 65 95 42 5a 19 a5 99 50 5e 09     I..SR1e.BZ...P^.
    1a49:	24 a2 79 a6 a1 66 a2 a8 5e 11 c5 91 61 58 21 65     $.y..f..^...aX!e
    1a59:	15 53 52 39 06 15 64 4c 51 a5 14 56 46 69 e6 c3     .SR9..dLQ..VFi..
    1a69:	7f 1d 00 79 48 1a f0 d0 7e f8 ff ff 6a 71 45 14     ...yH...~...jqE.
    1a79:	47 48 61 85 14 56 4a 59 c4 14 55 4c 51 04 d5 a5     GHa..VJY..ULQ...
    1a89:	72 88 2a a6 2c 62 ca 2a 85 b0 42 4a 2b 83 b8 22     r.*.,b.*..BJ+.."
    1a99:	ca 2b a1 bc 12 48 4c 11 49 34 cf 34 b5 aa a4 96     .+...HL.I4.4....
    1aa9:	4a 6a 55 49 2d 95 58 f2 21 0f 00 7a 2e 16 f0 b0     JjUI-.X.!..z....
    1ab9:	7e f8 ff 1f 7a 40 94 07 44 79 40 c4 02 0b 34 cf     ~...z@..Dy@...4.
    1ac9:	c0 0a 9a 67 60 05 cd 33 b0 82 e6 19 58 c5 07 06     ...g`..3....X...
    1ad9:	79 60 90 07 c6 87 7f 09 00 7b 2f 18 f0 c0 7e f8     y`.......{/...~.
    1ae9:	bf 51 e2 81 e8 19 59 cd 32 09 a5 ff 66 99 64 96     .Q....Y.2...f.d.
    1af9:	68 20 82 27 9e 88 a4 a1 85 12 5a 28 fd 8f 16 4a     h .'......Z(...J
    1b09:	68 99 66 a2 78 66 e1 00 7c 11 10 f0 80 7e f8 ba     h.f.xf..|....~..
    1b19:	70 f2 ff ff ff ff ff df 01 7d 30 18 f0 c0 7e f8     p........}0...~.
    1b29:	df 2d f3 44 34 cd 2c 94 d0 42 e9 7f b4 50 42 0b     .-.D4.,..B...PB.
    1b39:	35 12 c5 0b 22 68 62 99 64 96 49 28 fd 37 cb 24     5..."hb.d.I(.7.$
    1b49:	b3 48 f3 10 3c b1 7c 80 00 7e 1c 1a f0 d0 7e f8     .H..<.|..~....~.
    1b59:	ff ff ff d6 49 84 b4 61 c6 03 67 14 d2 46 49 e7     ....I..a..g..FI.
    1b69:	c3 ff ff 1c 00 a0 0c 0e f0 70 7e f8 ff ff 3f 0e     .........p~...?.
    1b79:	00 a1 15 12 f0 90 7e f8 ff f1 d2 ea 3e 54 4a ab     ......~.....>TJ.
    1b89:	ff ff 7f 1f 74 00 a2 5a 1a f0 d0 7e f8 ff af 08     ....t..Z...~....
    1b99:	3c ae b8 d3 15 70 35 b7 1e 08 aa 94 83 4a 19 81     <....p5......J..
    1ba9:	a0 52 84 28 87 18 21 8a 29 65 b4 52 84 2b 45 b8     .R.(..!.)e.R.+E.
    1bb9:	42 86 2b 64 b8 42 c4 2b 63 bc 32 c6 2b 43 c0 32     B.+d.B.+c.2.+C.2
    1bc9:	44 29 87 88 51 ca 29 41 98 72 4a 10 a5 a4 43 8c     D)..Q.)A.rJ...C.
    1bd9:	7a ac 39 05 05 16 77 5c 81 c5 1d 39 7c 78 12 00     z.9...w\...9|x..
    1be9:	a3 33 1b f0 d8 7e f8 7f 31 d4 e5 de 7a 40 24 73     .3...~..1...z@$s
    1bf9:	0c 2a a9 9c b2 8a 29 ab 98 62 eb cd 07 c2 7a 20     .*....)..b....z 
    1c09:	ac 07 82 2b b6 fe 7f f3 01 44 1e 40 e4 01 f4 e1     ...+.....D.@....
    1c19:	7f 0c 00 a4 53 1e f0 f0 7e f8 ff 8b c1 86 32 e8     ....S...~.....2.
    1c29:	28 43 8e 33 8a 29 23 0d a1 c4 58 0f 8c 66 88 71     (C.3.)#...X..f.q
    1c39:	04 91 46 14 61 d3 1a 6e a8 e1 86 1a 6e a8 e1 86     ..F.a..n....n...
    1c49:	1a 6e a8 e1 86 1a 6e ac c1 06 23 8a 34 82 48 3b     .n....n...#.4.H;
    1c59:	e4 ac 07 4a 22 42 89 91 46 31 65 9c 21 87 11 54     ...J"B..F1e.!..T
    1c69:	7c f8 ff bf 06 00 a5 42 1c f0 e0 7e f8 ff 5e 81     |......B...~..^.
    1c79:	45 94 67 46 71 85 14 57 4a 61 c5 14 56 4e 51 05     E.gFq..WJa..VNQ.
    1c89:	15 55 52 41 45 15 54 16 39 e5 28 a3 84 2a 4b 2c     .URAE.T.9.(..*K,
    1c99:	b2 50 19 05 16 51 22 09 45 aa 89 d6 03 4b 3c b0     .P...Q".E....K<.
    1ca9:	58 b9 f5 ff 3e fc 1f 01 a6 15 10 f0 80 7e f8 79     X...>........~.y
    1cb9:	e1 e4 ff 7f 1f 16 85 93 ff ff 7d 80 01 a7 46 16     ..........}...F.
    1cc9:	f0 b0 7e f8 6f ab c5 52 43 e5 08 44 62 5d b4 e0     ..~.o..RC..Db]..
    1cd9:	81 e8 21 88 d8 4a 0e 15 62 4c 65 08 22 a5 a0 42     ..!..J..bLe."..B
    1ce9:	0a 22 a5 20 52 ca 29 c5 94 72 4e 30 a8 29 e5 32     .". R.)..rN0.).2
    1cf9:	78 45 13 8b a4 8b c5 84 54 ce 28 06 b5 c4 da f9     xE......T.(.....
    1d09:	30 0d 00 a8 10 0e f0 70 7e f8 9d 42 74 a4 7c f8     0......p~..Bt.|.
    1d19:	ff df 06 a9 8b 2a f0 50 7f f8 ff bf cc f8 03 01     .....*.P........
    1d29:	3f 50 aa 51 66 12 48 22 91 e4 8d 83 ce 68 c3 30     ?P.Qf.H".....h.0
    1d39:	33 d6 28 af 10 35 c8 21 a6 8c 34 4a 41 c4 0c 34     3.(..5.!..4JA..4
    1d49:	48 51 a4 0c 24 4a 51 c4 88 33 4a 51 c4 4c 85 d4     HQ..$JQ..3JQ.L..
    1d59:	61 84 21 56 18 51 8a 15 46 94 62 85 11 86 58 61     a.!V.Q..F.b...Xa
    1d69:	84 21 56 18 61 88 15 66 14 b2 88 19 47 94 a2 88     .!V.a..f....G...
    1d79:	11 48 94 92 8a 11 68 94 82 88 19 49 18 43 8c 11     .H....h....I.C..
    1d89:	6a 94 67 c6 1a 86 99 d1 c6 41 67 bc 41 47 1c 72     j.g......Ag.AG.r
    1d99:	4c e2 48 35 c8 e0 07 02 67 1f fe ff e7 00 aa 36     L.H5....g......6
    1da9:	13 f0 98 7e f8 0f 1c b5 10 19 e4 4c 66 9c 01 27     ...~.......Lf..'
    1db9:	95 0e 33 86 0c 33 ce 28 03 8d 32 d0 28 e3 90 32     ..3..3.(..2.(..2
    1dc9:	0e 31 64 98 83 c2 40 46 90 0f fa 03 42 3c 20 3e     .1d...@F....B< >
    1dd9:	fc ff 16 00 ab 3e 1b f0 d8 7e f8 ff ff 27 49 21     .....>...~...'I!
    1de9:	8d 14 d2 88 21 8d 14 d2 48 29 ac 14 d2 48 21 8d     ....!...H)...H!.
    1df9:	94 c2 4a 21 8d 14 e2 4a 21 8e 94 e2 48 21 ae 14     ..J!...J!...H!..
    1e09:	e2 48 29 8e 14 e2 88 21 8e 14 f2 48 21 1f fe 3f     .H)....!...H!..?
    1e19:	01 00 ac 19 1e f0 f0 7e f8 ff ff 7f e3 81 45 1e     .......~......E.
    1e29:	58 e4 81 b5 e7 ef c3 ff ff a7 00 ae 92 2a f0 50     X............*.P
    1e39:	7f f8 ff bf cc f8 03 01 3f 50 aa 51 66 12 48 22     ........?P.Qf.H"
    1e49:	11 8c 90 37 88 23 a3 8d f2 c8 58 a4 0c 54 06 51     ...7.#....X..T.Q
    1e59:	c3 0c 35 c8 48 e3 0c 35 ca 40 e3 0c 35 ca 40 02     ..5.H..5.@..5.@.
    1e69:	0d 35 8c 38 03 8d 44 cc 84 06 22 67 18 91 5c 12     .5.8..D..."g..\.
    1e79:	46 24 b6 84 11 c9 25 61 44 1a 88 20 61 44 9a 90     F$....%aD.. aD..
    1e89:	30 22 4d 48 98 81 46 1a 67 1c 81 46 1a 47 20 81     0"MH..F.g..F.G .
    1e99:	86 1a 46 a0 71 86 1a 65 24 71 86 1a 45 a8 61 86     ..F.q..e$q..E.a.
    1ea9:	1a 64 2c 61 86 1a 63 34 81 c5 13 75 c4 21 c7 1c     .d,a..c4...u.!..
    1eb9:	70 d4 a2 0a 7e 20 70 f6 e1 ff 7f 0e 00 af 10 0e     p...~ p.........
    1ec9:	f0 70 7e f8 d5 07 1e 60 1f fe ff b7 01 b0 22 0f     .p~....`......".
    1ed9:	f0 78 7e f8 f1 92 ce 19 63 14 61 06 11 47 10 71     .x~.....c.a..G.q
    1ee9:	04 11 47 90 51 a6 31 ce 49 e5 c3 ff 7f 02 00 b1     ..G.Q.1.I.......
    1ef9:	4e 31 f0 88 7f f8 ff ff ff 1f 1c 1f bc f1 c1 1b     N1..............
    1f09:	1f bc f1 c1 1b 1f bc f1 c1 1b 1f bc f1 c1 1b 1f     ................
    1f19:	88 07 1c 7d c0 d1 07 dc 07 62 7c f0 c6 07 6f 7c     ...}.....b|...o|
    1f29:	f0 c6 07 6f 7c f0 c6 07 6f 7c f0 c6 07 6f 7c f8     ...o|...o|...o|.
    1f39:	f3 0f 38 fa 80 a3 0f b8 0f ff ff b7 01 b2 20 11     ..8........... .
    1f49:	f0 88 7e f8 5b 08 ad c2 0a 21 85 0c 43 1a c5 48     ..~.[....!..C..H
    1f59:	23 ab 6e 91 55 31 37 bc 0f ff 7f 10 00 b3 29 12     #.n.U17.......).
    1f69:	f0 90 7e f8 db e9 30 d3 08 29 85 8c 43 1c c5 8a     ..~...0..)..C...
    1f79:	3a ab 34 e4 08 1c 64 a0 41 06 1a 84 94 42 9a 59     :.4...d.A....B.Y
    1f89:	e9 7c f8 ff 37 01 b4 16 0c f0 60 7e 78 a8 1c 72     .|..7.....`~x..r
    1f99:	ca a1 d0 40 e4 10 34 3e fc ff 39 00 b6 76 1b f0     ...@..4>..9..v..
    1fa9:	d8 7e f8 ff ce 53 0f 88 84 8a 58 a9 08 a5 8a 48     .~...S....X....H
    1fb9:	ab 88 b4 8a 48 ab 88 b4 8a 48 ab 88 b4 8a 48 ab     ....H....H....H.
    1fc9:	88 b4 8a 48 ab 08 a5 8a 58 a9 08 86 8a 78 a5 08     ...H....X....x..
    1fd9:	29 8a 90 a2 08 29 8a 90 a2 08 29 8a 90 a2 08 29     )....)....)....)
    1fe9:	8a 90 a2 08 29 8a 90 a2 08 29 8a 90 a2 08 29 8a     ....)....)....).
    1ff9:	90 a2 08 29 8a 90 a2 08 29 8a 90 a2 08 29 8a 90     ...)....)....)..
    2009:	a2 08 29 8a 90 a2 08 29 8a 90 a2 08 29 8a f8 70     ..)....)....)..p
    2019:	11 00 b7 0f 0d f0 68 7e f8 7f a4 a0 7a 1f fe e7     ......h~....z...
    2029:	00 b8 19 0e f0 70 7e f8 ff ff 19 c1 24 76 0e 52     .....p~.....$v.R
    2039:	45 91 35 09 51 c8 50 04 49 00 b9 16 0e f0 70 7e     E.5.Q.P.I.....p~
    2049:	f8 35 92 0a 32 e7 1c 21 c6 9a ff ef c3 ff 3b 00     .5..2..!......;.
    2059:	ba 3a 15 f0 a8 7e f8 9f 30 4d 29 42 08 22 86 9c     .:...~..0M)B."..
    2069:	81 86 21 88 94 a1 46 19 6a 94 a1 46 19 6a 94 a1     ..!...F.j..F.j..
    2079:	46 19 6a 14 82 88 19 68 1c 62 08 22 84 28 d5 cc     F.j....h.b.".(..
    2089:	87 d6 03 82 3c 20 3e fc ff 03 bb 3e 1b f0 d8 7e     ....< >....>...~
    2099:	f8 ff ff c7 48 21 8e 18 e2 48 21 8f 14 e2 88 21     ....H!...H!....!
    20a9:	8e 14 e2 4a 21 8e 94 e2 48 29 ad 14 d2 48 29 ac     ...J!...H)...H).
    20b9:	90 c2 4a 21 8d 14 d2 88 21 8d 14 d2 48 21 8d 18     ..J!....!...H!..
    20c9:	d2 48 21 1f fe 3f 04 00 bc 79 27 f0 38 7f f8 ff     .H!..?...y'.8...
    20d9:	5f 1d 91 bc 01 8b 1b ef b8 f1 46 18 6d 40 21 06     _.........F.m@!.
    20e9:	23 74 b0 51 c7 22 75 ac 61 87 1a 77 a8 71 47 1a     #t.Q."u.a..w.qG.
    20f9:	78 a4 81 07 1a 79 a0 91 c7 19 7a 18 a2 87 19 88     x....y....z.....
    2109:	bc 51 46 22 6f 94 81 8a 1d c8 d8 81 4c 1d 68 84     .QF"o.......L.h.
    2119:	51 07 1a 61 d0 81 86 18 93 9c 31 c6 1c 48 90 21     Q..a......1..H.!
    2129:	c9 19 64 c8 71 46 19 71 a0 07 02 1b e8 81 b0 46     ..d.qF.q.......F
    2139:	7a 20 ac 11 c7 1b 72 38 22 87 1b 73 7c f8 ff 9b     z ....r8"..s|...
    2149:	00 bd 70 27 f0 38 7f f8 ff 9f 1d 90 3c f2 ca 1b     ..p'.8......<...
    2159:	ee b8 f1 46 18 6e 3c 21 46 1b 74 30 42 07 1b 75     ...F.n<!F.t0B..u
    2169:	2c 52 c7 1a 76 a8 71 87 1a 77 a4 81 07 22 78 a0     ,R..v.q..w..."x.
    2179:	91 c7 21 79 9c a1 87 19 c7 b8 61 46 51 6c 94 61     ..!y......aFQl.a
    2189:	d6 1c 85 90 12 87 19 86 40 52 88 21 70 40 f2 06     ........@R.!p@..
    2199:	2c 6f 40 f2 06 24 70 b8 02 87 2b 90 b4 12 47 23     ,o@..$p...+...G#
    21a9:	72 b0 32 c7 2a 73 30 a7 06 73 69 34 f7 e1 ff cf     r.2.*s0..si4....
    21b9:	01 be 7d 27 f0 38 7f f8 ff 1f 26 2c b9 b1 18 23     ..}'.8....&,...#
    21c9:	ab ad b1 88 21 8a ac 71 88 1a 96 a4 61 49 22 f2     ....!..q....aI".
    21d9:	a8 31 8d 22 13 a1 81 c9 21 7a 98 01 07 1a 65 c4     .1."....!z....e.
    21e9:	81 06 21 91 94 42 86 6c 84 50 55 c6 21 eb 98 81     ..!..B.l.PU.!...
    21f9:	08 1e a7 dc 71 8c 25 66 84 61 c7 19 61 54 62 86     ....q.%f.a..aTb.
    2209:	18 75 98 31 06 1d 47 90 41 87 19 64 cc 61 46 19     .u.1..G.A..d.aF.
    2219:	92 94 61 86 1c e6 81 d0 88 79 20 b4 71 1e 08 6c     ..a......y .q..l
    2229:	c4 01 47 1c 6f c8 e1 88 1c 1f fe ff 22 00 bf 2c     ..G.o......."..,
    2239:	19 f0 c8 7e f8 ff ff 4a a1 75 1f 36 48 a5 47 cb     ...~...J.u.6H.G.
    2249:	ac a4 25 cb ac 28 a1 75 6c 14 a3 4a 39 a7 98 07     ..%..(.ul..J9...
    2259:	c8 79 40 a4 c7 d8 3b 1f aa 00 c0 72 24 f0 20 7f     .y@...;....r$. .
    2269:	88 96 0f 42 f9 20 90 0f 04 f9 20 90 0f 04 f9 40     ...B. .... ....@
    2279:	90 0f c4 f8 60 8c 0f 5f 36 de 74 c4 d1 4e 5b 69     ....`.._6.t..N[i
    2289:	12 4a 2e a2 60 32 ca 2d a4 d8 42 4a 2d a5 d4 62     .J..`2.-..BJ-..b
    2299:	0a 25 a7 cc 82 8a 2c a8 c4 a2 0a 2c aa 40 b2 ca     .%....,....,.@..
    22a9:	2b ac b8 c2 4a 7b 20 b1 07 d2 7a 40 ad 07 96 22     +...J{ ...z@..."
    22b9:	92 a4 22 0b 2a b2 9c 42 8b 29 b4 18 52 4b 29 b6     ..".*..B.)..RK).
    22c9:	90 62 cb 28 b8 88 82 cb 87 ff 1f 01 c1 71 24 f0     .b.(.........q$.
    22d9:	20 7f 18 28 be 7c 00 c8 07 80 7c 10 c8 07 80 7c      ..(.|....|....|
    22e9:	00 c8 07 61 7c 10 c6 87 4f 1b 6f 3a e2 68 a7 ad     ...a|...O.o:.h..
    22f9:	34 09 25 17 51 30 19 e5 16 52 6c 21 a5 96 52 6a     4.%.Q0...Rl!..Rj
    2309:	31 85 92 53 66 41 45 16 54 62 51 05 16 55 20 59     1..SfAE.TbQ..U Y
    2319:	e5 15 56 5c 61 a5 3d 90 d8 03 69 3d a0 d6 03 4b     ..V\a.=...i=...K
    2329:	11 49 52 91 05 15 59 4e a1 c5 14 5a 0c a9 a5 14     .IR...YN...Z....
    2339:	5b 48 b1 65 14 5c 44 c1 e5 c3 ff 8f 00 c2 6f 24     [H.e.\D.......o$
    2349:	f0 20 7f 28 1b 6f 3a e2 68 13 41 34 11 24 13 42     . .(.o:.h.A4.$.B
    2359:	f0 30 e3 0e 34 3e 7c d4 78 d3 11 47 3b 6d a5 49     .0..4>|.x..G;m.I
    2369:	28 b9 88 82 c9 28 b7 90 62 0b 29 b5 94 52 8b 29     (....(..b.)..R.)
    2379:	94 9c 32 0b 2a b2 a0 12 8b 2a b0 a8 02 c9 2a af     ..2.*....*....*.
    2389:	b0 e2 0a 2b ed 81 c4 1e 48 eb 01 b5 1e 58 8a 48     ...+....H....X.H
    2399:	92 8a 2c a8 c8 72 0a 2d a6 d0 62 48 2d a5 d8 42     ..,..r.-..bH-..B
    23a9:	8a 2d a3 e0 22 0a 2e 1f fe 7f 04 00 c3 69 24 f0     .-.."........i$.
    23b9:	20 7f f8 4e 21 e3 22 31 2e bb 43 a0 3b 48 f9 f0      ..N!."1..C.;H..
    23c9:	db c6 9b 8e 38 da 69 2b 4d 42 c9 45 14 4c 46 b9     ....8.i+MB.E.LF.
    23d9:	85 14 5b 48 a9 a5 94 5a 4c a1 e4 94 59 50 91 05     ..[H...ZL...YP..
    23e9:	95 58 54 81 45 15 48 56 79 85 15 57 58 69 0f 24     .XT.E.HVy..WXi.$
    23f9:	f6 40 5a 0f a8 f5 c0 52 44 92 54 64 41 45 96 53     .@Z....RD.TdAE.S
    2409:	68 31 85 16 43 6a 29 c5 16 52 6c 19 05 17 51 70     h1..Cj)..Rl...Qp
    2419:	f9 f0 ff 23 00 c4 6a 24 f0 20 7f f8 4c 21 c5 16     ...#..j$. ..L!..
    2429:	52 6c 21 c5 16 52 6c 21 e5 c3 2f 17 6f fc e1 88     Rl!..Rl!../.o...
    2439:	27 ad 74 09 25 13 51 70 19 04 97 51 6c 21 c5 96     '.t.%.Qp...Ql!..
    2449:	52 2a 31 85 96 53 26 41 45 96 44 64 49 05 16 55     R*1..S&AE.DdI..U
    2459:	60 59 e5 11 56 5c 69 a5 3d 80 d8 03 89 3d a0 d4     `Y..V\i.=....=..
    2469:	03 4b 95 58 12 91 05 95 59 4e 99 c5 94 4a 4c a9     .K.X....YN...JL.
    2479:	a5 10 5b 48 b9 65 94 5b 44 c1 e6 c3 ff 6f 00 c5     ..[H.e.[D....o..
    2489:	71 24 f0 20 bf e2 0f 1f 63 e8 51 46 16 47 64 71     q$. ....c.QF.Gdq
    2499:	44 16 47 64 61 86 1e 63 f0 e3 cb 87 2f 9b 7e 3a     D.Gda..c..../.~:
    24a9:	e2 68 2b ad 72 09 25 17 51 6e 19 e5 16 52 6c 21     .h+.r.%.Qn...Rl!
    24b9:	a5 96 52 6a 31 65 96 53 66 41 45 92 54 62 51 05     ..Rj1e.SfAE.TbQ.
    24c9:	16 55 5e 59 e5 15 56 5a d5 1e 48 ec 81 b4 1e 58     .U^Y..VZ..H....X
    24d9:	ea 81 95 8a 24 a9 c8 82 c8 2c a7 d0 62 48 2d a5     ....$....,..bH-.
    24e9:	58 52 8a 2d a3 dc 32 0a 2e a2 e0 f2 e1 ff 47 00     XR.-..2.......G.
    24f9:	c6 7a 2f f0 78 7f f8 ff ff db 0f a8 fa c0 aa 0f     .z/.x...........
    2509:	2c fa 00 a3 ea 83 52 42 f9 a0 94 50 3e 20 45 94     ,.....RB...P> E.
    2519:	0f 48 11 e5 83 51 7d 30 aa 0f 44 21 e5 83 60 48     .H...Q}0..D!..`H
    2529:	f9 20 94 52 3e 00 a6 94 0f 40 31 0f 18 67 cc 03     . .R>....@1..g..
    2539:	c6 95 f3 80 69 e6 3c 60 5a 41 85 1b 54 f8 03 64     ....i.<`ZA..T..d
    2549:	3f 50 f6 03 45 3f 60 74 59 25 17 56 72 61 05 97     ?P..E?`tY%.Vra..
    2559:	56 70 69 e5 16 57 ac 71 0f 9c 52 de 03 87 98 f7     Vpi..W.q..R.....
    2569:	c0 21 05 3e 70 3e fc ff 2f 03 c7 4a 20 f0 00 7f     .!.>p>../..J ...
    2579:	f8 ff ed 35 df 7b 80 b0 07 ca 3a c9 a8 d2 0a 2a     ...5.{....:....*
    2589:	ae a0 f2 c8 29 90 9c 02 c9 21 9c ec fa 1f a7 f1     ....)....!......
    2599:	02 09 22 90 a0 e2 4a 2a ad 24 a3 cc 7a a0 b4 07     .."...J*.$..z...
    25a9:	c8 7b b2 61 e1 25 6f 34 e2 a4 93 3e 51 51 0a 5d     .{.a.%o4...>QQ.]
    25b9:	35 7d 88 01 c8 3c 1d f0 e8 7e 88 94 4c 72 c9 44     5}...<...~..Lr.D
    25c9:	13 3d 34 a5 c7 87 67 1e 38 e7 81 73 1e 38 e7 81     .=4...g.8..s.8..
    25d9:	73 0a ae ff f0 03 06 3d 60 d0 03 06 3d 60 50 c1     s......=`...=`P.
    25e9:	f5 3f fc c0 39 0f 9c f3 c0 39 0f 9c 0f ff 87 00     .?..9....9......
    25f9:	c9 3b 1d f0 e8 7e a8 95 5b 30 c1 05 53 79 ca e4     .;...~..[0..Sy..
    2609:	c3 3b 0f 9c f3 c0 39 0f 9c f3 c0 39 05 d7 7f f8     .;....9....9....
    2619:	01 83 1e 30 e8 01 83 1e 30 a8 e0 fa 1f 7e e0 9c     ...0....0....~..
    2629:	07 ce 79 e0 9c 07 ce 87 ff 43 00 ca 44 1d f0 e8     ..y......C..D...
    2639:	7e 08 95 7b ec a9 89 92 40 26 19 44 8e 32 e2 38     ~..{....@&.D.2.8
    2649:	03 8e 33 3e 3c f1 c0 39 0f 9c f3 c0 39 0f 9c 53     ..3><..9....9..S
    2659:	70 fd 87 1f 30 e8 01 83 1e 30 e8 01 83 0a ae ff     p...0....0......
    2669:	e1 07 ce 79 e0 9c 07 ce 79 e0 7c f8 3f 04 00 cb     ...y....y.|.?...
    2679:	3f 1d f0 e8 7e 38 5e 4a 71 a5 14 57 4a 71 a5 14     ?...~8^Jq..WJq..
    2689:	57 4a f9 f0 fc 03 e7 3c 70 ce 03 e7 3c 70 4e c1     WJ.....<p...<pN.
    2699:	f5 1f 7e c0 a0 07 0c 7a c0 a0 07 0c 2a b8 fe 87     ..~....z....*...
    26a9:	1f 38 e7 81 73 1e 38 e7 81 f3 e1 ff 10 00 cc 1b     .8..s.8.........
    26b9:	0c f0 60 62 82 2a 44 12 41 24 91 34 d4 f8 50 29     ..`b.*D.A$.4..P)
    26c9:	a7 fe ff ff ff fb f0 08 00 cd 1a 0d f0 68 7e 30     .............h~0
    26d9:	0a a2 50 41 54 9a d4 f8 50 2b a8 fe ff ff ff fb     ..PAT...P+......
    26e9:	f0 24 00 ce 21 0d f0 68 fa 72 cc 39 05 15 12 c8     .$..!..h.r.9....
    26f9:	20 63 22 24 0c 33 c2 38 e3 43 a7 a0 fa ff ff ff      c"$.3.8.C......
    2709:	ef c3 93 00 cf 1f 0f f0 78 7e a8 15 52 42 21 25     ........x~..RB!%
    2719:	14 52 42 21 25 14 52 3e 4c 14 55 ff ff ff ff 7d     .RB!%.R>L.U....}
    2729:	f8 1e 00 d0 67 22 f0 10 7f f8 ff 57 df 7c 80 bc     ....g".....W.|..
    2739:	07 4c 7b e0 b0 a2 d0 2a ec a8 e2 4c 2a af a4 02     .L{....*...L*...
    2749:	0b 2a b0 a0 12 cb 29 b1 9c 12 cb 29 92 9c 22 c9     .*....)....)..".
    2759:	78 40 28 32 1e 10 8a 8c 07 84 2a e2 01 a1 c8 29     x@(2......*....)
    2769:	92 9c 22 c9 29 92 9c 12 cb 29 b1 9c 12 09 2a b0     ..".)....)....*.
    2779:	a0 f2 0c 2a af a4 e2 4c 2a ec a8 a2 d0 7a e0 b0     ...*...L*....z..
    2789:	07 4c 7b 80 bc f7 e1 ff bb 00 d1 85 23 f0 18 7f     .L{.........#...
    2799:	f8 42 21 c3 22 31 6c ab 24 20 3b 0a f9 f0 53 e7     .B!."1l.$ ;...S.
    27a9:	15 74 5e 41 c8 15 94 5a 41 a9 15 a4 58 41 8a 15     .t^A...ZA...XA..
    27b9:	b4 56 41 25 94 55 50 09 46 15 54 44 51 05 15 61     .VA%.UP.F.TDQ..a
    27c9:	52 41 65 18 54 0d 83 2a 62 4e 41 a5 94 53 50 29     RAe.T..*bNA..SP)
    27d9:	c6 14 54 4c 85 8a 31 a5 a0 72 4a 29 a8 1c 43 0a     ..TL..1..rJ)..C.
    27e9:	2a c8 8c 82 0a 32 a3 a0 92 8c 28 a8 a8 22 0a 2a     *....2....(..".*
    27f9:	ca 84 82 ca 2a a1 a0 b2 16 2a 4c a1 c2 14 2a 2d     ....*....*L...*-
    2809:	a1 d2 12 2a 0e a1 f2 0e 2a ef 7c f8 ff 32 00 d2     ...*....*.|..2..
    2819:	75 25 f0 28 7f 08 97 0f 42 f9 40 94 0f 04 f9 60     u%.(....B.@....`
    2829:	90 0f c6 f8 60 90 0f 06 f9 60 8c 0f df 6e f6 01     ....`....`...n..
    2839:	31 1f 20 f1 01 f3 cc 32 cd 5a 06 16 55 62 49 65     1. ....2.Z..UbIe
    2849:	16 54 66 41 a4 12 44 2a 39 a5 16 53 6a 31 a5 16     .TfA..D*9..Sj1..
    2859:	53 6a 31 a5 16 53 6a 31 a5 16 53 6a 31 a5 16 53     Sj1..Sj1..Sj1..S
    2869:	6a 39 a4 12 44 2a 41 65 16 54 66 49 44 16 55 62     j9..D*Ae.TfID.Ub
    2879:	59 e5 95 56 9a 69 27 9d f7 80 89 0f 10 fa f0 fa     Y..V.i'.........
    2889:	f0 ff eb 00 d3 75 25 f0 28 7f 58 28 1f 84 f2 01     .....u%.(.X(....
    2899:	28 1f 04 f2 41 20 1f 88 f1 81 20 1f 04 f2 81 18     (...A .... .....
    28a9:	1f be de ec 03 62 3e 40 e2 03 e6 99 65 9a b5 0c     .....b>@....e...
    28b9:	2c aa c4 92 ca 2c a8 cc 82 48 25 88 54 72 4a 2d     ,....,...H%.TrJ-
    28c9:	a6 d4 62 4a 2d a6 d4 62 4a 2d a6 d4 62 4a 2d a6     ..bJ-..bJ-..bJ-.
    28d9:	d4 62 4a 2d a6 d4 72 48 25 88 54 82 ca 2c a8 cc     .bJ-..rH%.T..,..
    28e9:	92 88 2c aa c4 b2 ca 2b ad 34 d3 4e 3a ef 01 13     ..,....+.4.N:...
    28f9:	1f 20 f4 e1 f5 e1 ff d7 01 d4 73 25 f0 28 7f 88     . ........s%.(..
    2909:	97 0f c0 f1 a7 27 4e 02 d9 64 10 3d ca c8 c4 0c     .....'N..d.=....
    2919:	3c ce f8 f0 dd 66 1f 10 f3 01 12 1f 30 cf 2c d3     <....f......0.,.
    2929:	ac 65 60 51 25 96 54 66 41 65 16 44 2a 41 a4 92     .e`Q%.TfAe.D*A..
    2939:	53 6a 31 a5 16 53 6a 31 a5 16 53 6a 31 a5 16 53     Sj1..Sj1..Sj1..S
    2949:	6a 31 a5 16 53 6a 31 a5 96 43 2a 41 a4 12 54 66     j1..Sj1..C*A..Tf
    2959:	41 65 96 44 64 51 25 96 55 5e 69 a5 99 76 d2 79     Ae.DdQ%.U^i..v.y
    2969:	0f 98 f8 00 a1 0f af 0f ff bf 0e 00 d5 6c 25 f0     .............l%.
    2979:	28 7f f8 1a 29 03 1f 31 70 c3 43 1c 3c 0a f9 f0     (...)..1p.C.<...
    2989:	07 9a 7d 40 cc 07 48 7c c0 3c b3 4c b3 96 81 45     ..}@..H|.<.L...E
    2999:	95 58 52 99 05 95 59 10 a9 04 91 4a 4e a9 c5 94     .XR...Y....JN...
    29a9:	5a 4c a9 c5 94 5a 4c a9 c5 94 5a 4c a9 c5 94 5a     ZL...ZL...ZL...Z
    29b9:	4c a9 c5 94 5a 0e a9 04 91 4a 50 99 05 95 59 12     L...Z....JP...Y.
    29c9:	91 45 95 58 56 79 a5 95 66 da 49 e7 3d 60 e2 03     .E.XVy..f.I.=`..
    29d9:	84 3e bc 3e fc ff 3a 00 d6 6d 25 f0 28 7f f8 56     .>.>..:..m%.(..V
    29e9:	29 c5 96 52 6c 29 c5 96 52 6c 29 e5 c3 6f 37 fb     )..Rl)..Rl)..o7.
    29f9:	80 98 0f 90 f8 80 79 66 99 66 2d 03 8b 2a b1 a4     ......yf.f-..*..
    2a09:	32 0b 2a b3 20 52 09 22 95 9c 52 8b 29 b5 98 52     2.*. R."..R.)..R
    2a19:	8b 29 b5 98 52 8b 29 b5 98 52 8b 29 b5 98 52 8b     .)..R.)..R.)..R.
    2a29:	29 b5 1c 52 09 22 95 a0 32 0b 2a b3 24 22 8b 2a     )..R."..2.*.$".*
    2a39:	b1 ac f2 4a 2b cd b4 93 ce 7b c0 c4 07 08 7d 78     ...J+....{....}x
    2a49:	7d f8 ff 75 00 d7 59 30 f0 80 7f f8 ff ff ff 7f     }..u..Y0........
    2a59:	51 50 71 89 24 97 40 92 89 23 9b 30 d2 89 22 1f     QPq.$.@..#.0..".
    2a69:	00 82 c8 07 82 18 f2 01 a1 3e 30 44 90 0f 10 fa     .........>0D....
    2a79:	40 99 0f 18 f9 80 99 0f 14 fa 00 11 41 3e 30 84     @...........A>0.
    2a89:	90 0f 08 31 e4 03 41 10 f9 00 10 45 3a 61 64 13     ...1..A....E:ad.
    2a99:	47 32 81 e4 12 49 ae a0 e2 c3 ff ff 6f 02 d8 89     G2...I......o...
    2aa9:	25 f0 28 7f f8 ff 7b e2 83 41 3e 10 e5 03 50 60     %.(...{..A>...P`
    2ab9:	13 e5 3d 70 dc 03 c7 3d 80 9a 59 87 19 76 96 61     ..=p...=..Y..v.a
    2ac9:	49 95 96 52 69 25 14 54 98 09 05 91 56 06 41 84     I..Ri%.T....V.A.
    2ad9:	15 52 4c 59 86 14 53 56 29 c5 14 55 4c 95 8c a9     .RLY..SV)..UL...
    2ae9:	52 39 c5 14 54 99 72 0c 2a a6 9c 92 8a a9 54 31     R9..T.r.*.....T1
    2af9:	a5 18 55 4c 29 65 11 44 48 61 04 15 61 56 41 45     ..UL)e.DHa..aVAE
    2b09:	14 56 12 09 85 15 a5 58 59 88 15 76 58 71 27 1d     .V.....XY..vXq'.
    2b19:	f7 c0 71 0f 1c f7 80 81 45 b0 58 3e 08 e4 83 50     ..q.....E.X>...P
    2b29:	3e 18 e2 c3 7f 10 00 d9 79 23 f0 18 7f 68 96 0f     >.......y#...h..
    2b39:	00 f9 00 94 0f 40 f9 00 90 0f 02 f9 20 8c 0f c4     .....@...... ...
    2b49:	f8 20 8c 0f 1f 2a b2 9c 22 cb 29 b2 9c 22 cb 29     . ...*..".)..".)
    2b59:	b2 9c 22 cb 29 b2 9c 22 cb 29 b2 9c 22 cb 29 b2     ..".)..".)..".).
    2b69:	9c 22 cb 29 b2 9c 22 cb 29 b2 9c 22 cb 29 b2 9c     .".)..".)..".)..
    2b79:	22 cb 29 b2 9c 22 cb 29 92 a0 22 09 2a 92 a0 22     ".)..".)..".*.."
    2b89:	09 2a 92 24 12 4b 22 b1 a4 02 89 2a af ac d2 cc     .*.$.K"....*....
    2b99:	3a ca b4 07 cc 7b a0 c0 07 04 6d 1f fe 7f 01 00     :....{....m.....
    2ba9:	da 70 23 f0 18 7f 88 97 5e 79 ea 03 40 3c f9 00     .p#.....^y..@<..
    2bb9:	8c 0f c0 f8 f0 a9 22 cb 29 b2 9c 22 cb 29 b2 9c     ......".)..".)..
    2bc9:	22 cb 29 b2 9c 22 cb 29 b2 9c 22 cb 29 b2 9c 22     ".)..".)..".).."
    2bd9:	cb 29 b2 9c 22 cb 29 b2 9c 22 cb 29 b2 9c 22 cb     .)..".)..".)..".
    2be9:	29 b2 9c 22 cb 29 b2 9c 22 09 2a 92 a0 22 09 2a     )..".)..".*..".*
    2bf9:	92 a0 22 49 22 b1 24 12 4b 2a 90 a8 f2 ca 2a cd     .."I".$.K*....*.
    2c09:	ac a3 4c 7b c0 bc 07 0a 7c 40 d0 f6 e1 ff 17 00     ..L{....|@......
    2c19:	db 75 23 f0 18 7f e8 16 6f f8 d9 49 93 50 30 19     .u#.....o..I.P0.
    2c29:	04 8f 42 2c 31 c3 0e 34 3e 7c a3 c8 72 8a 2c a7     ..B,1..4>|..r.,.
    2c39:	c8 72 8a 2c a7 c8 72 8a 2c a7 c8 72 8a 2c a7 c8     .r.,..r.,..r.,..
    2c49:	72 8a 2c a7 c8 72 8a 2c a7 c8 72 8a 2c a7 c8 72     r.,..r.,..r.,..r
    2c59:	8a 2c a7 c8 72 8a 2c a7 c8 72 8a 2c a7 48 82 8a     .,..r.,..r.,.H..
    2c69:	24 a8 48 82 8a 24 a8 48 92 48 2c 89 c4 92 0a 24     $.H..$.H.H,....$
    2c79:	aa bc b2 4a 33 eb 28 d3 1e 30 ef 81 02 1f 10 b4     ...J3.(..0......
    2c89:	7d f8 ff 05 00 dc 6e 23 f0 18 7f f8 91 52 0a 2d     }.....n#.....R.-
    2c99:	a5 d0 52 0a 2d a5 7c f8 99 22 cb 29 b2 9c 22 cb     ..R.-.|..".)..".
    2ca9:	29 b2 9c 22 cb 29 b2 9c 22 cb 29 b2 9c 22 cb 29     )..".)..".)..".)
    2cb9:	b2 9c 22 cb 29 b2 9c 22 cb 29 b2 9c 22 cb 29 b2     ..".)..".)..".).
    2cc9:	9c 22 cb 29 b2 9c 22 cb 29 b2 9c 22 09 2a 92 a0     .".)..".)..".*..
    2cd9:	22 09 2a 92 a0 22 49 22 b1 24 12 4b 2a 90 a8 f2     ".*.."I".$.K*...
    2ce9:	ca 2a cd ac a3 4c 7b c0 bc 07 0a 7c 40 d0 f6 e1     .*...L{....|@...
    2cf9:	ff 17 00 dd 45 20 f0 00 7f a8 92 5d 74 d9 14 27     ....E .....]t..'
    2d09:	9b f0 e9 c3 ab 66 96 61 62 29 05 9a 62 5e 39 a6     .....f.ab)..b^9.
    2d19:	19 54 5a 49 66 d5 96 49 a5 95 54 5c 39 e5 99 52     .TZIf..I..T\9..R
    2d29:	62 29 25 9a 51 66 19 85 96 50 6a 09 e4 a6 8b b2     b)%.Qf...Pj.....
    2d39:	d9 f5 ff fb f0 ff 34 00 de 45 1e f0 f0 7e f8 ff     ......4..E...~..
    2d49:	cd 92 eb e5 f7 1e 18 ec 81 a2 1e 30 a9 24 84 ca     ...........0.$..
    2d59:	32 a8 b0 82 4a 2b a7 b4 72 4a 2b a7 b4 72 4a 2b     2...J+..rJ+..rJ+
    2d69:	a7 b4 72 4a 2b a7 b0 82 ca 32 a8 24 84 1e 30 e9     ..rJ+....2.$..0.
    2d79:	81 a2 1e 18 ec bd 92 eb f7 e1 ff 21 00 df 64 1c     ...........!..d.
    2d89:	f0 e0 7e f8 7f 5a 41 d7 1e 08 ea 18 93 2a 54 16     ..~..ZA......*T.
    2d99:	41 65 11 54 16 41 65 11 54 54 41 25 55 c7 a8 62     Ae.T.Ae.TTA%U..b
    2da9:	cc 2a c5 b0 52 4a 2b 85 b8 52 88 2b a5 b4 52 0c     .*..RJ+..R.+..R.
    2db9:	2b e6 a8 72 10 2a 28 99 a2 50 29 cc 94 d2 0c 29     +..r.*(..P)....)
    2dc9:	ae 90 f2 08 29 af 8c 22 0a 22 a4 88 82 08 29 83     ....).."."....).
    2dd9:	20 42 ca 30 a5 90 42 5c 29 85 99 72 d2 87 ff c3      B.0..B\)..r....
    2de9:	00 e0 4a 1a f0 d0 7e f8 3f 40 6c 65 c9 25 77 e0     ..J...~.?@le.%w.
    2df9:	e9 c3 59 d6 9e 7a 40 20 73 0a 2a a9 1c a2 8a 29     ..Y..z@ s.*....)
    2e09:	8b 58 aa 35 f5 40 40 0f 8c 83 4c 31 26 15 53 54     .X.5.@@...L1&.ST
    2e19:	29 65 95 52 56 29 65 95 52 94 29 45 19 53 0e 32     )e.RV)e.R.)E.S.2
    2e29:	2f 10 c4 04 49 89 94 0f ff 79 00 e1 4a 1a f0 d0     /...I....y..J...
    2e39:	7e f8 df 2a 95 66 49 25 76 ba e3 c3 69 d6 9e 7a     ~..*.fI%v...i..z
    2e49:	40 20 73 0a 2a a9 1c a2 8a 29 8b 58 aa 35 f5 40     @ s.*....).X.5.@
    2e59:	40 0f 8c 83 4c 31 26 15 53 54 29 65 95 52 56 29     @...L1&.ST)e.RV)
    2e69:	65 95 52 94 29 45 19 53 0e 32 2f 10 c4 04 49 89     e.R.)E.S.2/...I.
    2e79:	94 0f ff 79 00 e2 54 1a f0 d0 7e f8 df 31 d4 4c     ...y..T...~..1.L
    2e89:	24 51 24 82 c0 41 c6 23 65 34 62 46 1b 68 7c b8     $Q$..A.#e4bF.h|.
    2e99:	c9 da 53 0f 08 64 4e 41 25 95 43 54 31 65 11 4b     ..S..dNA%.CT1e.K
    2ea9:	b5 a6 1e 08 e8 81 71 90 29 c6 a4 62 8a 2a a5 ac     ......q.)..b.*..
    2eb9:	52 ca 2a a5 ac 52 8a 32 a5 28 63 ca 41 e6 05 82     R.*..R.2.(c.A...
    2ec9:	98 20 29 91 f2 e1 3f 0f 00 e3 4e 1a f0 d0 7e f8     . )...?...N...~.
    2ed9:	7f 95 94 d1 90 18 8d 35 12 50 1b a4 7c 78 90 b5     .......5.P..|x..
    2ee9:	a7 1e 10 c8 9c 82 4a 2a 87 a8 62 ca 22 96 6a 4d     ......J*..b.".jM
    2ef9:	3d 10 d0 03 e3 20 53 8c 49 c5 14 55 4a 59 a5 94     =.... S.I..UJY..
    2f09:	55 4a 59 a5 14 65 4a 51 c6 94 83 cc 0b 04 31 41     UJY..eJQ......1A
    2f19:	52 22 e5 c3 7f 1e 00 e4 4d 1a f0 d0 7e f8 7f b3     R"......M...~...
    2f29:	90 c2 0a 29 ac 90 c2 0a 29 1f be c4 da 53 0f 08     ...)....)....S..
    2f39:	64 4e 41 25 95 43 54 31 65 11 4b b5 a6 1e 08 e8     dNA%.CT1e.K.....
    2f49:	81 71 90 29 c6 a4 62 8a 2a a5 ac 52 ca 2a a5 ac     .q.)..b.*..R.*..
    2f59:	52 8a 32 a5 28 63 ca 41 e6 05 82 98 20 29 91 f2     R.2.(c.A.... )..
    2f69:	e1 3f 0f 00 e5 58 1a f0 d0 7e f8 27 49 35 53 10     .?...X...~.'I5S.
    2f79:	11 85 11 50 18 01 85 11 50 18 01 85 11 51 10 31     ...P....P....Q.1
    2f89:	4d 25 1f 0e b3 f6 d4 03 02 99 53 50 49 e5 10 55     M%........SPI..U
    2f99:	4c 59 c4 52 ad a9 07 02 7a 60 1c 64 8a 31 a9 98     LY.R....z`.d.1..
    2fa9:	a2 4a 29 ab 94 b2 4a 29 ab 94 a2 4c 29 ca 98 72     .J)...J)...L)..r
    2fb9:	90 79 81 20 26 48 4a a4 7c f8 cf 03 e6 60 2b f0     .y. &HJ.|....`+.
    2fc9:	58 7f f8 ff ff ff bf b4 90 62 8f 34 f5 40 18 0f     X........b.4.@..
    2fd9:	19 44 04 39 95 42 a9 98 a2 ce 22 d6 2c 62 0b 2b     .D.9.B....".,b.+
    2fe9:	b5 34 b2 1e 78 40 a0 07 1e 28 e6 81 07 4e 49 a7     .4..x@...(...NI.
    2ff9:	58 a3 4a 2d ac d4 c2 4a 2d cc ac 42 ca 3a 8b 94     X.J-...J-..B.:..
    3009:	b2 46 18 8b 94 a2 48 20 a9 98 82 c8 20 a7 9c 07     .F....H .... ...
    3019:	c4 78 e9 19 c6 56 52 1f fe ff 47 01 e7 3e 19 f0     .x...VR...G..>..
    3029:	c8 7e f8 ff 7f 66 35 a7 1e 08 a8 1c 63 4a 2a a6     .~...f5.....cJ*.
    3039:	28 62 c8 22 a5 2c 52 0a ad bf 45 0c 59 c4 94 54     (b.".,R...E.Y..T
    3049:	4c 49 e5 54 e9 81 a0 1c 5b 52 5c e9 9a 89 2a b1     LI.T....[R\...*.
    3059:	c4 4e 4d 94 d2 d4 43 1f 70 00 e8 47 1a f0 d0 7e     .NM...C.p..G...~
    3069:	f8 df 28 b6 58 72 c9 1d 97 ba 03 8f 0f 87 57 73     ..(.Xr........Ws
    3079:	eb 81 90 cc 29 88 a8 62 ca 22 86 b0 52 08 2b a4     ....)..b."..R.+.
    3089:	b0 42 1e 38 e4 81 43 1e 38 a4 d4 9a 25 ac 14 c2     .B.8..C.8...%...
    3099:	4a 29 aa 9c 92 0a 2a a7 a4 07 02 6b 4e 7d f8 5f     J)....*....kN}._
    30a9:	01 e9 47 1a f0 d0 7e f8 1f 23 b5 d0 52 29 3b 2c     ..G...~..#..R);,
    30b9:	a9 c4 8e 0f b7 57 73 eb 81 90 cc 29 88 a8 62 ca     .....Ws....)..b.
    30c9:	22 86 b0 52 08 2b a4 b0 42 1e 38 e4 81 43 1e 38     "..R.+..B.8..C.8
    30d9:	a4 d4 9a 25 ac 14 c2 4a 29 aa 9c 92 0a 2a a7 a4     ...%...J)....*..
    30e9:	07 02 6b 4e 7d f8 5f 01 ea 4f 1a f0 d0 7e f8 df     ..kN}._..O...~..
    30f9:	31 d4 4c 14 53 24 82 3c 42 c6 1b 85 34 62 46 1b     1.L.S$.<B...4bF.
    3109:	68 7c 38 ba 9a 5b 0f 84 64 4e 41 44 15 53 16 31     h|8..[..dNAD.S.1
    3119:	84 95 42 58 21 85 15 f2 c0 21 0f 1c f2 c0 21 a5     ..BX!....!....!.
    3129:	d6 2c 61 a5 10 56 4a 51 e5 94 54 50 39 25 3d 10     .,a..VJQ..TP9%=.
    3139:	58 73 ea c3 ff 0a 00 eb 48 1a f0 d0 7e f8 7f b3     Xs......H...~...
    3149:	90 c2 0a 29 ac 90 c2 0a 29 1f 3e b5 9a 5b 0f 84     ...)....).>..[..
    3159:	64 4e 41 44 15 53 16 31 84 95 42 58 21 85 15 f2     dNAD.S.1..BX!...
    3169:	c0 21 0f 1c f2 c0 21 a5 d6 2c 61 a5 10 56 4a 51     .!....!..,a..VJQ
    3179:	e5 94 54 50 39 25 3d 10 58 73 ea c3 ff 0a 00 ec     ..TP9%=.Xs......
    3189:	1b 0c f0 60 7e 78 a1 a0 82 48 a2 10 49 24 0d 35     ...`~x...H..I$.5
    3199:	3e 54 ca a9 ff ff df 87 37 00 ed 18 0c f0 60 7e     >T......7.....`~
    31a9:	78 a8 1c ea 94 43 a1 09 91 0f 9d fa ff ff fb f0     x....C..........
    31b9:	0a 00 ee 23 10 f0 80 7e f8 b4 51 26 21 84 0e 11     ...#...~..Q&!...
    31c9:	c4 90 41 08 29 83 0c 43 c4 40 e3 43 b9 ac fa ff     ..A.)..C.@.C....
    31d9:	ff 7d f8 38 00 ef 1c 0f f0 78 7e f8 dd 42 4a 28     .}.8.....x~..BJ(
    31e9:	a4 84 42 4a 28 a4 7c 58 2c aa fe ff 7f 1f be 07     ..BJ(.|X,.......
    31f9:	00 f0 5a 1c f0 e0 7e f8 ff e6 58 62 99 43 5a 21     ..Z...~...Xb.CZ!
    3209:	05 aa 79 28 92 eb 95 52 18 41 85 85 55 6e 79 8e     ..y(...R.A..Uny.
    3219:	3d 20 d4 03 23 99 73 50 49 e6 94 55 4e 61 c5 90     = ..#.sPI..UNa..
    3229:	56 4a 71 a4 14 47 4a 71 a4 14 47 4a 71 a4 14 47     VJq..GJq..GJq..G
    3239:	4a 71 a4 14 47 0c 69 c5 14 56 4c 59 05 95 64 90     Jq..G.i..VLY..d.
    3249:	39 46 3d 20 9a 7b eb c3 ff 05 00 f1 54 1b f0 d8     9F= .{......T...
    3259:	7e f8 ff 0e 29 e2 1d 31 5c 73 43 9c 27 0a f9 f0     ~...)..1\sC.'...
    3269:	66 11 4a 95 c0 d2 03 04 9d 63 a5 72 ca 2a a6 ac     f.J......c.r.*..
    3279:	62 ca 2a a6 ac 62 ca 2a a6 ac 62 ca 2a a6 ac 62     b.*..b.*..b.*..b
    3289:	ca 2a a6 ac 62 ca 2a a6 ac 62 ca 2a a6 ac 62 ca     .*..b.*..b.*..b.
    3299:	2a a6 ac 62 ca 2a a6 ac 62 ca 2a 1f fe d7 00 f2     *..b.*..b.*.....
    32a9:	50 1c f0 e0 7e f8 9f 2f b8 60 92 09 26 99 e4 a1     P...~../.`..&...
    32b9:	87 16 1f 9e 51 d0 b5 07 c2 2a c7 a4 92 cc 29 ab     ....Q....*....).
    32c9:	9c c2 8a 21 ad 94 e2 48 29 8e 94 e2 48 29 8e 94     ...!...H)...H)..
    32d9:	e2 48 29 8e 94 e2 48 29 8e 18 d2 8a 29 ac 98 b2     .H)...H)....)...
    32e9:	0a 2a c9 a4 72 cc 7a 20 34 07 d5 87 ff 0b 00 f3     .*..r.z 4.......
    32f9:	4d 1c f0 e0 7e f8 bf 53 2e 85 c9 a5 f0 94 c7 87     M...~..S........
    3309:	87 14 74 ed 81 b0 ca 31 a9 24 73 ca 2a a7 b0 62     ..t....1.$s.*..b
    3319:	48 2b a5 38 52 8a 23 a5 38 52 8a 23 a5 38 52 8a     H+.8R.#.8R.#.8R.
    3329:	23 a5 38 52 8a 23 86 b4 62 0a 2b a6 ac 82 4a 32     #.8R.#..b.+...J2
    3339:	a9 1c b3 1e 08 cd 41 f5 e1 ff 02 00 f4 56 1c f0     ......A......V..
    3349:	e0 7e f8 bf 51 ae a9 a7 a2 49 04 89 64 90 38 0a     .~..Q....I..d.8.
    3359:	79 e3 8c 37 d0 f8 f0 82 82 ae 3d 10 56 39 26 95     y..7......=.V9&.
    3369:	64 4e 59 e5 14 56 0c 69 a5 14 47 4a 71 a4 14 47     dNY..V.i..GJq..G
    3379:	4a 71 a4 14 47 4a 71 a4 14 47 4a 71 c4 90 56 4c     Jq..GJq..GJq..VL
    3389:	61 c5 94 55 50 49 26 95 63 d6 03 a1 39 a8 3e fc     a..UPI&.c...9.>.
    3399:	5f 00 f5 51 1c f0 e0 7e f8 ff 2e 29 e3 1d 31 5e     _..Q...~...)..1^
    33a9:	7b 43 1c 38 08 f9 f0 05 05 5d 7b 20 ac 72 4c 2a     {C.8.....]{ .rL*
    33b9:	c9 9c b2 ca 29 ac 18 d2 4a 29 8e 94 e2 48 29 8e     ....)...J)...H).
    33c9:	94 e2 48 29 8e 94 e2 48 29 8e 94 e2 88 21 ad 98     ..H)...H)....!..
    33d9:	c2 8a 29 ab a0 92 4c 2a c7 ac 07 42 73 50 7d f8     ..)...L*...BsP}.
    33e9:	bf 00 00 f6 4f 1c f0 e0 7e f8 ff 6a 21 c5 15 52     ....O...~..j!..R
    33f9:	5c 21 c5 15 52 3e 7c 5a 41 d7 1e 08 ab 1c 93 4a     \!..R>|ZA......J
    3409:	32 a7 ac 72 0a 2b 86 b4 52 8a 23 a5 38 52 8a 23     2..r.+..R.#.8R.#
    3419:	a5 38 52 8a 23 a5 38 52 8a 23 a5 38 62 48 2b a6     .8R.#.8R.#.8bH+.
    3429:	b0 62 ca 2a a8 24 93 ca 31 eb 81 d0 1c 54 1f fe     .b.*.$..1....T..
    3439:	2f 00 f7 36 31 f0 88 7f f8 ff ff ff ff 97 c9 07     /..61...........
    3449:	cd 7c c0 cc 07 cc 7c d0 c8 87 1f 7b c0 d1 07 1c     .|....|....{....
    3459:	7d c0 7d 78 98 7c d0 cc 07 cc 7c c0 cc 07 cc 7c     }.}x.|....|....|
    3469:	d0 c8 87 ff ff ff 4d 00 f8 5e 1c f0 e0 7e f8 ff     ......M..^...~..
    3479:	7f 50 64 72 09 1e 4d 05 b2 1e 08 eb 81 b0 ca 31     .Pdr..M........1
    3489:	a9 a0 73 0a 42 a7 a0 11 8a 21 88 84 52 ca 21 a2     ..s.B....!..R.!.
    3499:	94 62 08 21 a5 98 51 48 29 85 2a 85 10 43 4a 19     .b.!..QH).*..CJ.
    34a9:	e4 90 52 06 39 a4 14 41 10 31 24 10 54 0c 4a c5     ..R.9..A.1$.T.J.
    34b9:	20 54 90 95 ca 31 ea 01 a1 1e 10 8a 08 b5 08 1e      T...1..........
    34c9:	79 e8 f0 e1 8f 03 f9 54 1b f0 d8 7e f8 5f 2c 97     y......T...~._,.
    34d9:	60 72 09 a6 f0 c8 03 8f 0f 97 cb 2a a6 ac 62 ca     `r.........*..b.
    34e9:	2a a6 ac 62 ca 2a a6 ac 62 ca 2a a6 ac 62 ca 2a     *..b.*..b.*..b.*
    34f9:	a6 ac 62 ca 2a a6 ac 62 ca 2a a6 ac 62 ca 2a a6     ..b.*..b.*..b.*.
    3509:	ac 62 ca 2a a6 ac 62 ca 2a a7 24 73 cc 39 e8 01     .b.*..b.*.$s.9..
    3519:	82 5a 28 4a 89 f2 e1 7f 0d 00 fa 51 1b f0 d8 7e     .Z(J.......Q...~
    3529:	f8 5f 2e 96 76 89 25 77 c2 e3 c3 ed b2 8a 29 ab     ._..v.%w......).
    3539:	98 b2 8a 29 ab 98 b2 8a 29 ab 98 b2 8a 29 ab 98     ...)....)....)..
    3549:	b2 8a 29 ab 98 b2 8a 29 ab 98 b2 8a 29 ab 98 b2     ..)....)....)...
    3559:	8a 29 ab 98 b2 8a 29 ab 98 b2 ca 29 c9 1c 73 0e     .)....)....)..s.
    3569:	7a 80 a0 16 8a 52 a2 7c f8 5f 03 fb 5c 1b f0 d8     z....R.|._..\...
    3579:	7e f8 5f 2d f5 d0 33 49 20 92 04 12 c9 20 70 94     ~._-..3I .... p.
    3589:	f1 c6 19 6e 20 f1 e1 6a 59 c5 94 55 4c 59 c5 94     ...n ..jY..ULY..
    3599:	55 4c 59 c5 94 55 4c 59 c5 94 55 4c 59 c5 94 55     ULY..ULY..ULY..U
    35a9:	4c 59 c5 94 55 4c 59 c5 94 55 4c 59 c5 94 55 4c     LY..ULY..ULY..UL
    35b9:	59 c5 94 55 4c 59 e5 94 64 8e 39 07 3d 40 50 0b     Y..ULY..d.9.=@P.
    35c9:	45 29 51 3e fc af 01 fc 54 1b f0 d8 7e f8 ff 48     E)Q>....T...~..H
    35d9:	29 85 95 52 58 29 85 95 52 3e 7c ac ac 62 ca 2a     )..RX)..R>|..b.*
    35e9:	a6 ac 62 ca 2a a6 ac 62 ca 2a a6 ac 62 ca 2a a6     ..b.*..b.*..b.*.
    35f9:	ac 62 ca 2a a6 ac 62 ca 2a a6 ac 62 ca 2a a6 ac     .b.*..b.*..b.*..
    3609:	62 ca 2a a6 ac 62 ca 2a a6 ac 72 4a 32 c7 9c 83     b.*..b.*..rJ2...
    3619:	1e 20 a8 85 a2 94 28 1f fe d7 00 fd 55 1a f0 d0     . ....(.....U...
    3629:	7e f8 5f 23 b5 d0 52 29 3b 2c b1 d3 87 9b c5 15     ~._#..R);,......
    3639:	51 1c 21 85 15 52 58 29 65 11 53 54 31 45 11 54     Q.!..RX)e.ST1E.T
    3649:	97 ca 21 aa 98 b2 4a 29 ab 90 c2 0a 29 ad 0c e2     ..!...J)....)...
    3659:	8a 28 af 84 f2 4a 20 31 45 24 d1 3c d3 d4 52 49     .(...J 1E$.<..RI
    3669:	ad 2a 79 82 94 56 46 71 eb a9 98 66 f9 b0 00 00     .*y..VFq...f....
    3679:	fe 4d 1c f0 e0 7e f8 ff 62 b9 f5 bf 91 56 09 2d     .M...~..b....V.-
    3689:	3d 50 10 3a e6 9c 54 8e 59 c5 98 55 4c 69 c4 94     =P.:..T.Y..ULi..
    3699:	56 4a 69 a5 94 56 4a 69 a5 94 56 4a 69 a5 94 56     VJi..VJi..VJi..V
    36a9:	4a 69 a5 94 56 8a 59 c5 98 55 cc 49 e5 a0 63 ce     Ji..V.Y..U.I..c.
    36b9:	03 05 95 d0 52 19 69 95 5b ff 3e 6c 01 ff 53 1a     ....R.i.[.>l..S.
    36c9:	f0 d0 7e f8 7f b3 90 c2 0a 29 ac 90 c2 0a 29 1f     ..~......)....).
    36d9:	be 51 5c 11 c5 95 51 58 21 85 95 52 16 31 45 95     .Q\...QX!..R.1E.
    36e9:	53 52 39 25 11 54 a5 72 88 2a a6 ac 52 ca 2a 85     SR9%.T.r.*..R.*.
    36f9:	34 42 4a 2b a3 b4 32 c8 2b a1 bc 12 48 cc e4 99     4BJ+..2.+...H...
    3709:	67 9a 5a 55 52 ab 4a 6a a9 c4 92 5a 2a f9 90 07     g.ZUR.Jj...Z*...
	...

0000371b <ucg_font_fur17_hf>:
    371b:	bd 01 04 02 05 05 01 04 06 17 1e ff fa 11 fb 11     ................
    372b:	fd 03 a9 07 a9 20 08 c7 97 f3 f9 ff 00 21 0e c8     ..... .......!..
    373b:	17 f4 99 cb fc bf c7 c9 f4 cc 00 22 12 ca 17 f5     ..........."....
    374b:	39 96 6c 24 1b df 84 34 21 4d 9e ff 18 23 29 d1     9.l$...4!M...#).
    375b:	97 f8 f9 bb 8c 54 23 d5 48 25 52 8d 6e f0 20 a7     .....T#.H%R.n. .
    376b:	c9 66 a4 1a a9 26 37 78 90 d3 48 35 d9 8c 54 23     .f...&7x..H5..T#
    377b:	d5 48 35 79 7e 05 24 33 cd 97 f6 b9 0d 27 07 b3     .H5y~.$3.....'..
    378b:	c1 40 a4 89 68 34 11 8d 26 a7 c9 0d 12 c1 c1 20     .@..h4..&...... 
    379b:	37 18 08 13 83 5c 64 97 91 68 32 12 4d 46 32 c9     7....\d..h2.MF2.
    37ab:	68 06 57 83 41 32 9c 67 0d 25 36 d5 97 fa f9 0f     h.W.A2.g.%6.....
    37bb:	06 c1 dc 60 96 db 88 74 22 51 50 a4 11 8a 34 49     ...`...t"QP...4I
    37cb:	91 44 2a 31 1e 48 32 83 b0 64 b0 8d 88 94 12 91     .D*1.H2..d......
    37db:	32 23 12 86 ec 44 76 b1 c1 4e 37 c8 f3 97 00 26     2#...Dv..N7....&
    37eb:	31 d1 97 f8 f9 a3 41 76 30 88 8a 94 22 a5 66 b9     1.....Av0...".f.
    37fb:	d8 0e c4 2b d5 42 a4 92 6c 44 9b 89 48 b5 10 c9     ...+.B..lD..H...
    380b:	06 a9 d9 4c 36 48 0d 12 83 81 6c b0 d9 f3 35 00     ...L6H....l...5.
    381b:	27 0c c8 17 f4 99 cb 7c 97 e7 6f 01 28 13 c8 17     '......|..o.(...
    382b:	f4 39 90 a9 64 56 2b 99 3f 9b b9 93 e9 b1 00 29     .9..dV+.?......)
    383b:	12 c8 17 f4 59 eb 72 32 3b 99 ff 4a 66 16 d3 a3     ....Y.r2;..Jf...
    384b:	01 2a 1a cf 97 f7 f9 55 26 aa d0 26 b4 cb c1 59     .*.....U&..&...Y
    385b:	64 92 4c 64 15 d2 4c 9e ff af 00 2b 24 d8 17 fc     d.Ld..L....+$...
    386b:	f9 ff db 3c 30 0f cc 03 f3 c0 3c 30 0f 19 3c d0     ...<0.....<0..<.
    387b:	23 f2 c0 3c 30 0f cc 03 f3 c0 3c 30 cf 7f 06 2c     #..<0.....<0...,
    388b:	0e c6 17 f3 f9 c3 cd 46 a4 11 e9 61 00 2d 0b c8     .......F...a.-..
    389b:	17 f4 f9 a7 83 3d cf 01 2e 0b c6 17 f3 f9 43 91     .....=........C.
    38ab:	3d 21 00 2f 15 c9 97 f4 b9 d4 e9 72 76 c1 9c 5d     =!./.......rv..]
    38bb:	ce 2e 98 b3 cb e9 99 01 30 27 cd 97 f6 f9 6a 10     ........0'....j.
    38cb:	1c 0c 52 22 95 8d 4c 23 d3 c8 34 32 8d 4c 23 d3     ..R"..L#..42.L#.
    38db:	c8 34 32 8d 4c 24 1a 99 0d 06 b9 41 9e 87 00 31     .42.L$.....A...1
    38eb:	11 cd 97 f6 f9 6c 39 08 0e 84 0a ad ff ef 79 08     .....l9.......y.
    38fb:	32 1b cd 97 f6 f9 6a 90 1b 0c 54 22 d1 4a b3 d2     2.....j...T".J..
    390b:	4a 97 d3 e5 4f a5 07 07 79 5e 01 33 1f cd 97 f6     J...O...y^.3....
    391b:	f9 6a 20 1b 0c 54 36 2b ad e5 70 3b c8 6e 6d 64     .j ..T6+..p;.nmd
    392b:	9a 95 48 74 30 d0 0d f2 3c 04 34 21 cd 97 f6 f9     ..Ht0...<.4!....
    393b:	70 ba 1c 04 15 42 85 4e 22 9b c8 34 2a 91 4a 64     p....B.N"..4*.Jd
    394b:	25 1a 1c 48 06 07 4a ad 7b 9e 01 35 1f cd 97 f6     %..H..J.{..5....
    395b:	f9 66 30 50 69 bd 18 c4 06 03 95 48 15 d3 7a 23     .f0Pi......H..z#
    396b:	d3 8c 54 83 41 70 90 e7 21 00 36 27 cd 97 f6 f9     ..T.Ap..!.6'....
    397b:	6a a0 5b ac 6c 56 1a ad c9 20 a5 18 0c 32 83 cc     j.[.lV... ...2..
    398b:	d5 44 27 d1 49 74 12 9d 46 a5 5a 0c 62 03 3d ef     .D'.It..F.Z.b.=.
    399b:	00 37 19 cd 97 f6 f9 64 70 90 35 d5 4a a7 5a e9     .7.....dp.5.J.Z.
    39ab:	54 2b 9d 6a a5 53 e9 9e a7 00 38 26 cd 97 f6 f9     T+.j.S....8&....
    39bb:	6a a0 5b ac 8c 54 22 95 48 65 a3 1b e8 16 2b 1b     j.[..T".He....+.
    39cb:	9d 44 27 d1 49 74 1a d5 66 90 18 c4 06 7a de 01     .D'.It..f....z..
    39db:	39 24 cd 97 f6 f9 6a 20 1b 1c a9 34 b2 89 4e a2     9$....j ...4..N.
    39eb:	93 c8 26 ab cd 41 68 b0 d0 9a 6e 54 22 d1 c1 40     ..&..Ah...nT"..@
    39fb:	37 d0 f3 0e 3a 0d c6 17 f3 39 17 d9 93 8a ec 09     7...:....9......
    3a0b:	01 3b 0f c6 17 f3 39 17 d9 93 8a 6c 44 f6 30 00     .;....9....lD.0.
    3a1b:	3c 24 d8 17 fc f9 ff 6f f5 a8 41 1e 32 c8 63 f6     <$.....o..A.2.c.
    3a2b:	98 3d 68 0f db 03 07 79 e0 1e 38 c8 03 07 79 9c     .=h....y..8...y.
    3a3b:	9e ff 21 00 3d 14 d8 17 fc f9 ff ff ab c1 03 3d     ..!.=..........=
    3a4b:	ef 06 0f f4 fc ff 15 00 3e 24 d8 17 fc f9 ff e7     ........>$......
    3a5b:	7a dc 20 0f 1c e4 81 7b e4 1e b8 87 ed 31 83 3c     z. ....{.....1.<
    3a6b:	66 8f 19 e4 21 83 3c 4a cf ff 15 00 3f 19 cb 97     f...!.<J....?...
    3a7b:	f5 79 35 48 0d 06 1a d1 24 a6 34 14 ee 0e 95 f6     .y5H....$.4.....
    3a8b:	14 4a 3d b7 00 40 49 d7 97 fb f9 1f 0d 06 f1 c1     .J=..@I.........
    3a9b:	81 74 10 1b 04 a7 3b f1 4a 34 48 68 54 9a c1 40     .t....;.J4HhT..@
    3aab:	73 a3 19 69 ac 44 1a 2b 91 c6 4a a4 b1 12 69 ac     s..i.D.+..J...i.
    3abb:	44 1a 2b 91 66 a3 d9 a8 34 9a c1 40 25 1a 44 06     D.+.f...4..@%.D.
    3acb:	3a 3d 6c 0f db e3 06 8a 3d 62 30 c8 53 00 41 26     :=l.....=b0.S.A&
    3adb:	d1 97 f8 f9 b3 f9 7a 20 56 68 17 53 8d 54 33 54     ......z Vh.S.T3T
    3aeb:	09 55 ba d5 6c 70 20 1b 3c 52 8a 94 9a a9 44 2b     .U..lp .<R....D+
    3afb:	d1 ee f9 18 42 2a d0 17 f8 f9 e5 e0 4e 34 50 e9     ....B*......N4P.
    3b0b:	46 42 91 50 24 14 e9 46 b2 d5 e0 4e 35 48 e9 46     FB.P$..F...N5H.F
    3b1b:	42 91 50 24 14 e9 46 a2 81 6a 70 cf b7 00 43 1e     B.P$..F..jp...C.
    3b2b:	cf 97 f7 f9 d5 60 37 38 48 c9 36 42 8d 50 a2 f6     .....`78H.6B.P..
    3b3b:	73 b5 50 24 53 0d 0e 72 83 3d 1f 01 44 2a d1 97     s.P$S..r.=..D*..
    3b4b:	f8 f9 8b c1 40 a9 19 e8 cc 84 2a a1 4a 29 52 8a     ....@.....*.J)R.
    3b5b:	94 22 a5 48 29 52 8a 94 22 a1 4a a8 92 cd 34 03     .".H)R..".J...4.
    3b6b:	dd 60 a0 e7 47 00 45 16 ce 17 f7 f9 74 70 a0 11     .`..G.E.....tp..
    3b7b:	fb f1 e0 20 24 f6 e3 c1 81 9e a7 00 46 12 cd 97     ... $.......F...
    3b8b:	f6 f9 66 70 90 d1 fa ed e0 48 eb ef 79 0c 47 29     ..fp.....H..y.G)
    3b9b:	d1 97 f8 f9 ab c1 72 70 10 d3 8d 94 22 b9 1e a0     ......rp...."...
    3bab:	07 e8 01 b2 c1 46 aa 91 6a 96 22 a5 68 a8 da c9     .....F..j.".h...
    3bbb:	06 07 c2 c1 40 cf 0f 48 27 d0 17 f8 f9 a5 50 24     ....@..H'.....P$
    3bcb:	14 09 45 42 91 50 24 14 09 45 42 d1 e0 91 50 24     ..EB.P$..EB...P$
    3bdb:	14 09 45 42 91 50 24 14 09 45 42 3d 1f 02 49 0c     ..EB.P$..EB=..I.
    3beb:	c6 17 f3 c9 45 fe ff 3d 21 00 4a 14 cd 97 f6 f9     ....E..=!.J.....
    3bfb:	54 eb ff 8d 4c 33 52 0d 06 b2 81 9e 87 00 4b 27     T...L3R.......K'
    3c0b:	cf 97 f7 f9 89 4e 24 53 99 89 74 9a 9d 64 a8 58     .....N$S..t..d.X
    3c1b:	0e a4 8a a5 62 10 94 0c 35 3b d1 4c b5 92 8d 64     ....b...5;.L...d
    3c2b:	23 dd 9e 2f 00 4c 11 cc 17 f6 79 2b f5 ff d3 c1     #../.L....y+....
    3c3b:	41 64 70 90 e7 18 4d 3b d5 97 fa f9 e7 83 e4 20     Adp...M;....... 
    3c4b:	34 48 0e 42 83 e4 20 a4 d0 29 44 0a 9d 42 a4 58     4H.B.. ..)D..B.X
    3c5b:	2d 44 12 95 44 24 51 49 44 92 cd 44 a4 71 a4 71     -D..D$QID..D.q.q
    3c6b:	64 21 72 21 72 21 b2 5a 89 54 2b 91 6a a5 e7 0f     d!r!r!.Z.T+.j...
    3c7b:	01 4e 32 d1 97 f8 f9 8b a1 68 90 13 0d 64 a2 81     .N2......h...d..
    3c8b:	4c a4 58 89 14 2b 91 64 64 23 b2 d9 88 6c 44 a2     L.X..+.dd#...lD.
    3c9b:	89 48 b5 10 a9 16 22 d9 40 24 1b 88 74 83 90 70     .H....".@$..t..p
    3cab:	cf e7 00 4f 2a d1 97 f8 f9 ab 81 74 90 18 e4 ac     ...O*......t....
    3cbb:	94 22 a5 46 2b d1 4a b4 12 ad 44 2b d1 4a 96 1b     .".F+.J...D+.J..
    3ccb:	a5 48 a9 d2 e9 06 89 41 74 a0 e7 37 00 50 1d ce     .H.....At..7.P..
    3cdb:	17 f7 f9 74 30 90 69 06 22 d9 46 a7 d1 69 74 1a     ...t0.i.".F..it.
    3ceb:	d9 46 35 1a 5c 89 fd 3d 1f 01 51 2c d2 17 f9 f9     .F5.\..=..Q,....
    3cfb:	e3 81 76 90 18 04 75 32 a5 4a 29 d2 6a b4 1a ad     ..v...u2.J).j...
    3d0b:	46 ab d1 6a b4 9a e5 48 a9 52 ca 74 c2 41 62 20     F..j...H.R.t.Ab 
    3d1b:	1d 1c e8 f9 11 00 52 29 cf 97 f7 f9 c9 60 a0 d3     ......R).....`..
    3d2b:	0c 54 b2 91 4e a4 13 e9 44 3a 91 ea 60 a0 53 ad     .T..N...D:..`.S.
    3d3b:	64 2a 99 4a 36 d2 89 74 22 9d 48 a7 e7 13 00 53     d*.J6..t".H....S
    3d4b:	26 cf 97 f7 f9 d1 60 38 b8 92 6d 84 1a f5 78 10     &.....`8..m...x.
    3d5b:	1e 0c 84 83 d3 c1 78 ad 11 6a 84 22 d9 68 90 18     ......x..j.".h..
    3d6b:	e8 06 7b be 02 54 0f cf 97 f7 f9 c5 e0 41 50 ed     ..{..T.......AP.
    3d7b:	ff ef f9 0c 55 2a d1 97 f8 f9 0b a5 48 29 52 8a     ....U*......H)R.
    3d8b:	94 22 a5 48 29 52 8a 94 22 a5 48 29 52 8a 94 22     .".H)R..".H)R.."
    3d9b:	a5 4a b7 d2 e9 06 89 41 72 30 c8 f3 13 00 56 24     .J.....Ar0....V$
    3dab:	cf 97 f7 f9 85 72 a1 94 ec 36 3a 91 4e b4 5a 99     .....r...6:.N.Z.
    3dbb:	a9 64 9b 9d 46 a8 11 2e 96 0a a9 42 3a d0 8e f7     .d..F......B:...
    3dcb:	7c 06 57 3e d6 17 fb f9 8f 76 b3 85 6c 10 5b c8     |.W>.....v..l.[.
    3ddb:	06 31 c9 6a 10 d3 a8 14 a2 8d 48 22 72 22 52 69     .1.j......H"r"Ri
    3deb:	24 1b 95 c6 64 25 11 49 64 0b 91 44 a7 50 29 74     $...d%.Id..D.P)t
    3dfb:	0a d5 20 38 88 0d 92 b3 41 72 b7 14 ea f9 27 00     .. 8....Ar....'.
    3e0b:	58 26 d0 17 f8 f9 e5 4e 34 5b ad 74 1b e1 64 b9     X&.....N4[.t..d.
    3e1b:	d0 0e c2 83 f0 20 3c 90 2a 96 93 a1 68 a6 3a 1b     ..... <.*...h.:.
    3e2b:	09 27 c3 3d df 01 59 1c cf 97 f7 f9 c1 70 b2 d3     .'.=..Y......p..
    3e3b:	cc 46 2b 99 68 b6 11 4a 94 0b e9 20 3c 56 fb 3d     .F+.h..J... <V.=
    3e4b:	df 01 5a 18 ce 17 f7 f9 74 70 20 d6 4e 6f a7 b7     ..Z.....tp .No..
    3e5b:	d3 07 d1 07 d1 ed e0 3d 4f 01 5b 0f c9 97 f4 b9     .......=O.[.....
    3e6b:	1a a4 74 fe ff ef 06 61 00 5c 17 c9 97 f4 39 d2     ..t....a.\....9.
    3e7b:	09 83 3a 61 50 27 2c d4 09 83 3a 61 a1 9e 05 00     ..:aP',...:a....
    3e8b:	5d 0e ca 17 f5 b9 1e 04 fd ff 3f 1b a4 01 5e 28     ].........?...^(
    3e9b:	d7 97 fb f9 ff 8b 3c 6c 8f 4a e4 41 0a 3d a6 1e     ......<l.J.A.=..
    3eab:	53 0f d1 e8 11 a9 3c 22 95 07 a8 e4 b9 b4 4e 9c     S.....<"......N.
    3ebb:	0c 27 f3 fc 4b 00 5f 0c cc 17 f6 f9 ff 3f 1e bc     .'..K._......?..
    3ecb:	27 03 60 0c c5 97 f2 09 44 1a 91 9e 6f 01 61 21     '.`.....D...o.a!
    3edb:	cd 97 f6 f9 4f 07 b2 41 62 65 a4 d2 aa 06 03 d1     ....O..Abe......
    3eeb:	20 a3 59 69 64 1a d5 68 31 50 0d 22 7a 5e 01 62      .Yid..h1P."z^.b
    3efb:	24 ce 17 f7 f9 54 ec 93 41 4c 31 18 84 56 a2 d5     $....T..AL1..V..
    3f0b:	46 a7 d1 69 74 1a 9d 66 b5 59 89 06 8a 95 64 90     F..it..f.Y....d.
    3f1b:	e7 35 00 63 19 cc 17 f6 f9 d7 03 d5 60 20 12 4d     .5.c........` .M
    3f2b:	64 12 a9 67 1a d1 66 30 90 0d f4 3c 64 24 ce 17     d..g..f0...<d$..
    3f3b:	f7 f9 8d d8 b3 41 44 34 38 08 89 06 99 d5 46 a7     .....AD48.....F.
    3f4b:	d1 69 74 1a 9d 66 35 52 5d 0c 64 83 88 9e b7 00     .it..f5R].d.....
    3f5b:	65 1e cd 97 f6 f9 4f 07 b2 c1 40 65 23 d3 c8 34     e.....O...@e#..4
    3f6b:	83 83 8c d6 4c a4 52 0d 06 b9 81 9e 77 00 66 13     ....L.R.....w.f.
    3f7b:	c9 97 f4 b9 1b 84 06 22 9d d5 60 10 d2 f9 df b3     ......."..`.....
    3f8b:	06 67 2a ce 17 f7 f9 df 0d 14 aa c1 91 6a b3 da     .g*..........j..
    3f9b:	e8 34 3a 8d 4e a3 d3 ac 46 aa d1 20 31 90 0d 22     .4:.N...F.. 1.."
    3fab:	62 91 6a a4 92 0d 06 c1 81 1e 04 68 21 ce 17 f7     b.j........h!...
    3fbb:	f9 54 ec 93 41 6c a0 58 8d 46 32 91 4c 24 13 c9     .T..Al.X.F2.L$..
    3fcb:	44 32 91 4c 24 13 c9 44 32 3d 6f 01 69 0d c5 97     D2.L$..D2=o.i...
    3fdb:	f2 c9 34 7a 8c ff f7 24 00 6a 0f c7 97 f3 d9 a9     ..4z...$.j......
    3feb:	f4 58 95 ff 1f 8d a4 00 6b 1d cc 17 f6 79 2b f5     .X......k....y+.
    3ffb:	d1 46 33 92 ac 14 33 85 6e a0 53 e8 24 32 c9 4a     .F3...3.n.S.$2.J
    400b:	33 72 b4 e7 1a 6c 0c c6 17 f3 c9 45 fe ff 3d 21     3r...l.....E..=!
    401b:	00 6d 27 d5 97 fa f9 ff 73 c9 20 33 50 0d 2e 06     .m'.....s. 3P...
    402b:	83 d0 41 68 23 b3 91 d9 c8 6c 64 36 32 1b 99 8d     ..Ah#....ld62...
    403b:	cc 46 66 23 b3 e7 ef 00 6e 1f ce 17 f7 f9 5f 29     .Ff#....n....._)
    404b:	06 b2 c1 d5 68 24 13 c9 44 32 91 4c 24 13 c9 44     ....h$..D2.L$..D
    405b:	32 91 4c 24 d3 f3 16 6f 20 cd 97 f6 f9 4f 07 ba     2.L$...o ....O..
    406b:	c1 40 a4 d2 ac 26 3a 89 4e a2 93 e8 24 ab 8d 4a     .@...&:.N...$..J
    407b:	35 18 c8 06 7a de 01 70 25 ce 17 f7 f9 5f 49 06     5...z..p%...._I.
    408b:	b1 81 62 10 5a 89 56 1b 9d 46 a7 d1 69 74 9a d5     ..b.Z.V..F..it..
    409b:	66 25 1a 28 06 21 c9 20 26 f6 1e 09 71 25 ce 17     f%.(.!. &...q%..
    40ab:	f7 f9 df 0d 22 a2 41 62 20 52 6d 56 1b 9d 46 a7     ....".Ab RmV..F.
    40bb:	d1 69 74 9a d5 48 35 1a 24 06 b2 41 44 ec 7b 04     .it..H5.$..AD.{.
    40cb:	00 72 11 c9 97 f4 f9 95 62 10 19 6c 66 3a ff 9e     .r......b..lf:..
    40db:	39 00 73 1c cb 97 f5 f9 07 03 d5 60 20 51 49 94     9.s........` QI.
    40eb:	07 bb c1 70 a2 92 a8 34 8b d5 40 cf 25 00 74 13     ...p...4..@.%.t.
    40fb:	c9 97 f4 79 a9 b3 1a 0c 42 3a ff 6e 91 1a e4 99     ...y....B:.n....
    410b:	02 75 1f ce 17 f7 f9 5f c9 44 32 91 4c 24 13 c9     .u....._.D2.L$..
    411b:	44 32 91 4c 24 13 c9 44 57 83 b3 41 44 cf 5b 00     D2.L$..DW..AD.[.
    412b:	76 1d cc 17 f6 f9 a7 3a 85 4c b2 d2 88 36 22 95     v......:.L...6".
    413b:	46 25 91 2d 74 0a dd 20 38 48 ea 79 02 77 2d d3     F%.-t.. 8H.y.w-.
    414b:	97 f9 f9 ff cd 6a 25 51 ad 24 22 45 68 b2 51 68     .....j%Q.$"Eh.Qh
    415b:	44 1a 85 46 24 b1 11 49 34 0a 99 42 a3 90 0d 42     D..F$..I4..B...B
    416b:	0a d9 20 35 5c 0d 65 7b 7e 0d 78 1d cd 97 f6 f9     .. 5\.e{~.x.....
    417b:	ef 56 a2 cd 4a 23 5b 08 07 ca 83 e4 40 27 59 6d     .V..J#[.....@'Ym
    418b:	54 a2 8d 6c cf 23 00 79 20 cc 17 f6 f9 a7 3a 85     T..l.#.y .....:.
    419b:	4c b2 d2 88 36 1b 95 46 25 59 2d 74 0a dd 20 79     L...6..F%Y-t.. y
    41ab:	29 55 2e a5 7a 0c 00 7a 15 ca 17 f5 f9 8b c1 40     )U..z..z.......@
    41bb:	a8 9b ed ec 76 76 3b e1 60 a0 e7 02 7b 16 cb 97     ....vv;.`...{...
    41cb:	f5 39 1e e4 76 4a 3f dc 1d 0e 92 52 a5 9f 2a 07     .9..vJ?....R..*.
    41db:	61 00 7c 0c c8 17 f4 c9 73 fd ff ff 0d 00 7d 13     a.|.....s.....}.
    41eb:	cb 97 f5 39 5c 5e fa e5 bb 43 a5 1f ea 06 79 04     ...9\^...C....y.
    41fb:	00 7e 0f cc 17 f6 f9 7f 3b 90 0c 26 83 3d 7f 0d     .~......;..&.=..
    420b:	a0 08 c7 97 f3 f9 ff 00 a1 0d c8 17 f4 f9 52 a6     ..............R.
    421b:	27 90 f9 bf 05 a2 27 ce 17 f7 f9 07 e9 ca 81 6e     '.....'........n
    422b:	30 90 69 12 22 8d 42 a4 09 6a 82 12 a1 24 29 c9     0.i.".B..j...$).
    423b:	a8 06 91 d5 60 20 1c 08 d3 f5 cc 00 a3 17 cd 97     ....` ..........
    424b:	f6 f9 6c a0 5b ac 8c b4 96 83 41 50 eb 5f 0e 0e     ..l.[.....AP._..
    425b:	f4 3c 02 a4 23 cd 97 f6 f9 38 92 cc 24 06 8a d0     .<..#....8..$...
    426b:	20 b1 52 d5 85 72 a1 5c 28 17 52 a5 36 aa c4 40      .R..r.\(.R.6..@
    427b:	91 49 86 f3 fc 1a a5 1e ce 17 f7 f9 52 a8 91 89     .I..........R...
    428b:	64 2a d1 4a 24 1a 48 06 2a 89 72 a0 1c c4 06 ef     d*.J$.H.*.r.....
    429b:	c4 7e cf 07 a6 0d c8 17 f4 39 c8 f5 f7 94 b9 fe     .~.......9......
    42ab:	16 a7 23 ca 17 f5 b9 1e 88 06 1b a1 e5 6e 90 1b     ..#..........n..
    42bb:	88 16 93 8d 44 24 d1 4c 16 a3 81 6e 10 1c 3a c9     ....D$.L...n..:.
    42cb:	1c ec 81 00 a8 0c c7 97 f3 19 69 06 19 3d ff 18     ..........i..=..
    42db:	a9 36 d3 97 f9 f9 57 03 f1 20 31 08 ee 66 99 c1     .6....W.. 1..f..
    42eb:	24 95 99 4c 42 91 91 24 93 91 46 32 d2 48 46 1a     $..LB..$..F2.HF.
    42fb:	c9 48 23 19 95 a6 46 33 09 85 06 9b 54 36 a6 14     .H#...F3....T6..
    430b:	aa c4 03 3d 7f 01 aa 1b c9 97 f4 b9 1a 68 06 83     ...=.........h..
    431b:	88 28 98 19 4c 36 91 54 24 a4 19 24 a2 83 7b 7e     .(..L6.T$..$..{~
    432b:	03 ab 19 cd 97 f6 f9 3f d3 c8 24 32 8d 6a 22 93     .......?..$2.j".
    433b:	e8 26 3a 8d 4e 22 cc e8 f9 06 ac 0e ce 17 f7 f9     .&:.N"..........
    434b:	7f 32 78 dd 3d ff 15 00 ae 3a d3 97 f9 f9 57 03     .2x.=....:....W.
    435b:	f1 20 31 08 ee 66 91 c1 20 92 ca 68 26 a1 8c 48     . 1..f.. ..h&..H
    436b:	92 09 d9 44 42 83 55 24 a4 11 45 42 a2 92 90 4d     ...DB.U$..EB...M
    437b:	8d 48 12 ca 88 24 a9 6c 6c 37 1c 24 06 e1 81 9e     .H...$.ll7.$....
    438b:	bf 00 af 0c c7 97 f3 d9 0e 06 79 fe 31 00 b0 12     ..........y.1...
    439b:	c7 97 f3 99 6d 14 92 4c 24 13 51 68 f6 fc 05 00     ....m..L$.Qh....
    43ab:	b1 21 d8 17 fc f9 ff db 3c 30 0f cc 03 f3 90 c1     .!......<0......
    43bb:	03 3d 22 0f cc 03 f3 c0 3c 30 cf f3 c1 03 3d ff     .=".....<0....=.
    43cb:	1c b2 14 c9 97 f4 39 1b 84 06 13 8d 4e e6 6a 36     ......9.....N.j6
    43db:	18 e4 f9 3b 00 b3 15 c9 97 f4 39 1b 84 06 13 8d     ...;......9.....
    43eb:	6c 25 dc 49 24 9b 81 9e 3f 04 b4 0b c5 97 f2 69     l%.I$...?......i
    43fb:	4c 34 79 3e 06 b6 35 cd 97 f6 f9 6a 30 48 0d 22     L4y>..5....j0H."
    440b:	a9 81 24 34 98 84 06 93 d0 60 92 1a 48 52 03 49     ..$4.....`..HR.I
    441b:	6c 10 49 46 92 91 64 24 19 49 46 92 91 64 24 19     l.IF..d$.IF..d$.
    442b:	49 46 92 91 64 24 19 c9 c3 01 b7 0b c6 17 f3 79     IF..d$.........y
    443b:	2b b2 e7 15 00 b8 0d c7 97 f3 f9 1f c7 06 31 95     +.............1.
    444b:	62 30 b9 0c c7 97 f3 d9 89 66 fd 9e 4f 01 ba 1b     b0.......f..O...
    445b:	ca 17 f5 b9 1e a4 06 1b 91 44 15 51 45 54 11 91     .........D.QET..
    446b:	46 13 1a c8 07 03 3d 7f 01 bb 19 cd 97 f6 f9 3f     F.....=........?
    447b:	92 08 25 3a 8d 4e a2 9b c8 24 32 8d 4c 22 93 e8     ..%:.N...$2.L"..
    448b:	f9 0c bc 2c d2 17 f9 f9 4b 9d 6c 97 8c 29 63 d1     ...,....K.l..)c.
    449b:	94 34 95 0d 85 33 e2 4c 48 2a 92 86 12 49 4d 24     .4...3.LH*...IM$
    44ab:	99 91 04 43 83 41 4a 98 4b c6 94 79 7e 06 bd 2c     ...C.AJ.K..y~..,
    44bb:	d3 97 f9 f9 17 c2 dc 4e 99 8b c6 a4 29 6d 2a 1c     .......N....)m*.
    44cb:	12 87 d2 19 c9 40 29 59 0c 33 76 42 5d 50 27 1b     .....@)Y.3vB]P'.
    44db:	c6 94 31 a5 6c 30 c8 f3 53 00 be 32 d3 97 f9 f9     ..1.l0..S..2....
    44eb:	07 03 5d 6a 30 48 49 55 49 59 74 90 11 6b 82 1a     ..]j0HIUIYt..k..
    44fb:	89 50 32 89 0e 24 1a ad 48 1b 4a 44 35 8a 68 46     .P2..$..H.JD5.hF
    450b:	92 d4 0c 06 b9 60 65 4e 99 e7 c7 00 bf 18 cc 17     .....`eN........
    451b:	f6 f9 0f a4 7a 22 a9 e5 70 b7 34 35 93 0c 32 07     ....z"..p.45..2.
    452b:	03 d9 40 0f c0 2d d1 97 f8 71 7b 80 1e a1 47 e4     ..@..-...q{...G.
    453b:	19 cd d7 03 b1 42 bb 98 6a a4 9a a1 4a a8 d2 ad     .....B..j...J...
    454b:	66 83 03 d9 e0 91 52 a4 d4 4c 25 5a 89 76 cf c7     f.....R..L%Z.v..
    455b:	00 c1 2c d1 97 f8 c1 72 3d 20 0f c8 33 9a af 07     ..,....r= ..3...
    456b:	62 85 76 31 d5 48 35 43 95 50 a5 5b cd 06 07 b2     b.v1.H5C.P.[....
    457b:	c1 23 a5 48 a9 99 4a b4 12 ed 9e 8f 01 c2 2d d1     .#.H..J.......-.
    458b:	97 f8 91 f3 41 58 21 ce e8 59 cc d7 03 b1 42 bb     ....AX!..Y....B.
    459b:	98 6a a4 9a a1 4a a8 d2 ad 66 83 03 d9 e0 91 52     .j...J...f.....R
    45ab:	a4 d4 4c 25 5a 89 76 cf c7 00 c3 2a d1 97 f8 49     ..L%Z.v....*...I
    45bb:	17 52 c5 9e a3 f9 7a 20 56 68 17 53 8d 54 33 54     .R....z Vh.S.T3T
    45cb:	09 55 ba d5 6c 70 20 1b 3c 52 8a 94 9a a9 44 2b     .U..lp .<R....D+
    45db:	d1 ee f9 18 c4 2a d2 17 f9 89 35 5a 8d 9e bb f9     .....*....5Z....
    45eb:	20 3e 10 2f c4 12 b1 64 2a 92 8a 86 2b a1 ec e0      >./...d*...+...
    45fb:	d9 e0 99 52 24 15 49 27 5b 89 58 cf 8f 00 c5 2d     ...R$.I'[.X....-
    460b:	d1 97 f8 d6 0a 71 26 9c 49 ef d9 cc d7 03 b1 42     .....q&.I......B
    461b:	ac 98 6a a4 9a e1 48 a8 12 ca 64 83 03 d9 e0 91     ..j...H...d.....
    462b:	52 a4 d4 4c 25 5a 89 76 cf c7 00 c6 32 d7 97 fb     R..L%Z.v....2...
    463b:	f9 5f 0d 1e 44 07 79 cc 40 8f 51 e8 21 0b 3d c4     ._..D.y.@.Q.!.=.
    464b:	1e 31 d1 23 34 7a c0 66 70 20 13 c9 47 f2 c1 f5     .1.#4z.fp ..G...
    465b:	4a 2d 13 cf c4 3a ad 70 70 a0 e7 1f 01 c7 24 cf     J-...:.pp.....$.
    466b:	97 f7 f9 d5 60 37 38 48 c9 36 42 8d 50 a2 f6 73     ....`78H.6B.P..s
    467b:	b5 50 33 53 0d 0e 72 83 6d 7c 90 5e 2b 07 7b 0c     .P3S..r.m|.^+.{.
    468b:	00 c8 19 ce 17 f7 31 6a eb 3c d9 e0 40 23 f6 e3     ......1j.<..@#..
    469b:	c1 41 48 ec c7 83 03 3d 4f 01 c9 1a ce 17 f7 71     .AH....=O......q
    46ab:	5a b1 56 4f 36 38 d0 88 fd 78 70 10 12 fb f1 e0     Z.VO68...xp.....
    46bb:	40 cf 53 00 ca 1d ce 17 f7 41 83 e8 20 29 11 86     @.S......A.. )..
    46cb:	f2 44 83 03 8d d8 8f 07 07 21 b1 1f 0f 0e f4 3c     .D.......!.....<
    46db:	05 cb 19 ce 17 f7 49 0c 25 7a 36 83 03 8d d8 8f     ......I.%z6.....
    46eb:	07 07 21 b1 1f 0f 0e f4 3c 05 cc 0e c6 17 d3 54     ..!.....<......T
    46fb:	56 79 84 c8 ff bf 27 04 cd 0f c6 17 53 35 a2 90     Vy....'.....S5..
    470b:	1e 21 f2 ff ef 09 01 ce 11 c6 17 13 27 83 48 64     .!..........'.Hd
    471b:	90 89 8b fc ff 7b 42 00 cf 0e c7 97 d3 35 83 8c     .....{B......5..
    472b:	1e a8 f2 ff ef 19 d0 2c d1 97 f8 f9 8b c1 40 a9     .......,......@.
    473b:	19 e8 64 33 a1 4a a8 52 8a 94 22 a5 64 30 50 89     ..d3.J.R..".d0P.
    474b:	94 22 a5 48 29 12 aa 74 2b d9 4c 33 d0 0d 06 7a     .".H)..t+.L3...z
    475b:	7e 04 d1 36 d1 97 f8 49 17 d2 c1 9e f9 50 34 c8     ~..6...I.....P4.
    476b:	89 06 32 d1 40 26 52 ac 44 8a 95 48 32 b2 11 d9     ..2.@&R.D..H2...
    477b:	6c 44 36 22 d1 44 a4 5a 88 54 0b 91 6c 20 92 0d     lD6".D.Z.T..l ..
    478b:	44 ba 41 48 b8 e7 73 00 d2 31 d1 97 b8 f6 00 3d     D.AH..s..1.....=
    479b:	42 8f c8 23 f4 4c 06 d2 41 62 90 b3 52 8a 94 1a     B..#.L..Ab..R...
    47ab:	ad 44 2b d1 4a b4 12 ad 44 2b 59 6e 94 22 a5 4a     .D+.J...D+Yn.".J
    47bb:	a7 1b 24 06 d1 81 9e df 00 d3 2f d1 97 38 e7 f6     ..$......./..8..
    47cb:	80 3c 40 cf 66 20 1d 24 06 39 2b a5 48 a9 d1 4a     .<@.f .$.9+.H..J
    47db:	b4 12 ad 44 2b d1 4a b4 92 e5 46 29 52 aa 74 ba     ...D+.J...F)R.t.
    47eb:	41 62 10 1d e8 f9 0d 00 d4 30 d1 97 f8 e6 6b 85     Ab.......0....k.
    47fb:	38 93 15 e5 19 0c a4 83 c4 20 67 a5 14 29 35 5a     8........ g..)5Z
    480b:	89 56 a2 95 68 25 5a 89 56 b2 dc 28 45 4a 95 4e     .V..h%Z.V..(EJ.N
    481b:	37 48 0c a2 03 3d bf 01 d5 2b d1 97 f8 49 17 52     7H...=...+...I.R
    482b:	c5 9e 9b 81 74 90 18 e4 ac 94 22 a5 46 2b d1 4a     ....t.....".F+.J
    483b:	b4 12 ad 44 2b d1 4a 96 1b a5 68 b7 ba 1b 9c 0e     ...D+.J...h.....
    484b:	f4 fc 06 d6 2e d1 97 f8 49 25 5a 89 9e 93 81 74     ........I%Z....t
    485b:	90 18 e4 ac 94 22 a5 46 2b d1 4a b4 12 ad 44 2b     .....".F+.J...D+
    486b:	d1 4a 96 1b a5 48 a9 d2 e9 06 89 41 74 a0 e7 37     .J...H.....At..7
    487b:	00 d7 24 d7 97 fb f9 ff 37 4a ad 4e ad d2 03 34     ..$.....7J.N...4
    488b:	7a 88 42 0f da a3 f6 20 85 1e a2 d1 03 54 6a 9d     z.B.... .....Tj.
    489b:	56 a9 e7 7f 01 d8 3c d1 97 f8 f9 32 0f d8 0d 16     V.....<....2....
    48ab:	b2 41 62 20 93 0d 42 ba 41 48 a6 98 c8 26 66 1a     .Ab ..B.AH...&f.
    48bb:	89 6a 23 11 8d 24 22 95 44 b3 92 2c 56 1b 85 4c     .j#..$".D..,V..L
    48cb:	34 90 89 06 31 d9 40 31 88 29 06 bb 3d 20 cf 3b     4...1.@1.)..= .;
    48db:	00 d9 2e d1 97 b8 f6 00 3d 42 8f c8 43 f2 d4 4a     ........=B..C..J
    48eb:	91 52 a4 14 29 45 4a 91 52 a4 14 29 45 4a 91 52     .R..)EJ.R..)EJ.R
    48fb:	a4 14 29 45 43 95 6e 75 37 b8 1c 0c f2 fc 04 da     ..)EC.nu7.......
    490b:	2c d1 97 38 e7 f6 80 3c 40 4f ae 14 29 45 4a 91     ,..8...<@O..)EJ.
    491b:	52 a4 14 29 45 4a 91 52 a4 14 29 45 4a 91 52 34     R..)EJ.R..)EJ.R4
    492b:	54 e9 56 77 83 cb c1 20 cf 4f 00 db 2e d1 97 f8     T.Vw... .O......
    493b:	e6 6b 85 38 93 15 e5 69 95 22 a5 48 29 52 8a 94     .k.8...i.".H)R..
    494b:	22 a5 48 29 52 8a 94 22 a5 48 29 52 8a 86 2a dd     ".H)R..".H)R..*.
    495b:	ea 6e 70 39 18 e4 f9 09 00 dc 2e d1 97 f8 49 25     .np9..........I%
    496b:	5a 89 9e b5 52 a4 14 29 45 4a 91 52 a4 14 29 45     Z...R..)EJ.R..)E
    497b:	4a 91 52 a4 14 29 45 4a 91 52 a5 5b e9 74 83 c4     J.R..)EJ.R.[.t..
    498b:	20 39 18 e4 f9 09 00 dd 20 cf 97 f7 81 62 b5 58      9...... ....b.X
    499b:	4f 37 9c ec 34 b3 d1 4a 26 9a 6d 84 12 e5 42 3a     O7..4..J&.m...B:
    49ab:	08 8f d5 7e cf 77 00 de 1b ce 17 f7 f9 54 ec 78     ...~.w.......T.x
    49bb:	70 a5 1a c9 36 3a 8d 4e a3 d3 a8 46 83 2b b1 f7     p...6:.N...F.+..
    49cb:	7c 04 df 2c cd 97 f6 f9 6a 20 1b 0c 44 2b 8d 4c     |..,....j ..D+.L
    49db:	a3 da 88 46 9a 95 46 a6 91 89 46 aa 41 44 b7 10     ...F..F...F.AD..
    49eb:	2a 84 0a 89 48 21 19 24 24 a2 41 9e 57 00 e0 25     *...H!.$$.A.W..%
    49fb:	cd 97 f6 79 27 16 87 f5 54 03 d9 20 b1 32 52 69     ...y'...T.. .2Ri
    4a0b:	55 83 81 68 90 d1 ac 34 32 8d 6a b4 18 a8 06 11     U..h...42.j.....
    4a1b:	3d af 00 e1 26 cd 97 f6 39 96 6a a5 da 3c dd 40     =...&...9.j..<.@
    4a2b:	36 48 ac 8c 54 5a d5 60 20 1a 64 34 2b 8d 4c a3     6H..TZ.` .d4+.L.
    4a3b:	1a 2d 06 aa 41 44 cf 2b 00 e2 28 cd 97 f6 39 bd     .-..AD.+..(...9.
    4a4b:	54 e8 24 ba 90 9e 66 20 1b 24 56 46 2a ad 6a 30     T.$...f .$VF*.j0
    4a5b:	10 0d 32 9a 95 46 a6 51 8d 16 03 d5 20 a2 e7 15     ..2..F.Q.... ...
    4a6b:	00 e3 24 cd 97 f6 f9 6a 21 1b ec 99 0c 64 83 c4     ..$....j!....d..
    4a7b:	ca 56 38 50 0d 06 a2 91 46 a6 51 6d 54 a3 c5 40     .V8P....F.QmT..@
    4a8b:	35 88 e8 79 05 e4 25 cd 97 f6 f9 48 23 d3 e8 59     5..y..%....H#..Y
    4a9b:	0c 64 83 c4 ca 48 a5 55 0d 06 a2 41 46 b3 d2 c8     .d...H.U...AF...
    4aab:	34 aa d1 62 a0 1a 44 f4 bc 02 e5 2a cd 97 f6 19     4..b..D....*....
    4abb:	2f 15 c2 4c 30 13 54 28 f7 54 03 d9 20 b1 32 52     /..L0.T(.T.. .2R
    4acb:	69 55 83 81 68 90 d1 ac 34 32 8d 6a b4 18 a8 06     iU..h...42.j....
    4adb:	0a 3d af 00 e6 30 d4 17 fa f9 ff a3 41 68 a0 1a     .=...0......Ah..
    4aeb:	0c 14 83 41 48 34 08 69 57 52 99 68 f0 41 66 90     ...AH4.iWR.h.Af.
    4afb:	91 ae a4 b2 95 44 35 08 89 06 83 c8 60 90 1a 88     .....D5.....`...
    4b0b:	06 7a fe 06 e7 1f cc 17 f6 f9 d7 03 d5 60 20 12     .z...........` .
    4b1b:	4d 64 12 a9 67 1a d1 66 30 90 0d 84 d9 41 74 2a     Md..g..f0....At*
    4b2b:	1b e8 01 e8 22 cd 97 f6 39 14 8b c3 f6 54 03 d9     ...."...9....T..
    4b3b:	60 a0 b2 91 69 64 9a c1 41 46 6b 26 52 a9 06 83     `...id..AFk&R...
    4b4b:	dc 40 cf 3b 00 e9 22 cd 97 f6 39 96 4e 6d f3 74     .@.;.."...9.Nm.t
    4b5b:	03 d9 60 a0 b2 91 69 64 9a c1 41 46 6b 26 52 a9     ..`...id..AFk&R.
    4b6b:	06 83 dc 40 cf 3b 00 ea 26 cd 97 f6 39 95 0e 92     ...@.;..&...9...
    4b7b:	8a a0 44 17 ca 13 0d 64 83 81 ca 46 a6 91 69 06     ..D....d...F..i.
    4b8b:	07 19 ad 99 48 a5 1a 0c 72 03 3d ef 00 eb 23 cd     ....H...r.=...#.
    4b9b:	97 f6 f9 48 23 d3 e8 59 0c 74 8b 41 48 a5 99 49     ...H#..Y.t.AH..I
    4bab:	74 92 c1 81 44 6b a7 51 a9 16 83 d8 40 cf 3b 00     t...Dk.Q....@.;.
    4bbb:	ec 0f c6 17 f3 c9 54 56 79 84 c8 ff 3d 21 00 ed     ......TVy...=!..
    4bcb:	0f c6 17 f3 49 35 46 79 88 c8 ff 3d 21 00 ee 11     ....I5Fy...=!...
    4bdb:	c6 17 f3 e9 06 91 41 42 32 8a 8b fc df 13 02 ef     ......AB2.......
    4beb:	0f c7 97 f3 19 49 14 12 3d 52 e5 ff 9e 01 f0 28     .....I..=R.....(
    4bfb:	cd 97 f6 f9 46 24 1b 0c 07 b9 c5 76 37 18 84 06     ....F$.....v7...
    4c0b:	47 aa c9 4c a2 93 e8 24 3a 89 4e 32 d3 a8 54 83     G..L...$:.N2..T.
    4c1b:	81 6c a0 e7 1d 00 f1 23 ce 17 f7 f9 5a 12 1c ec     .l.....#....Z...
    4c2b:	d9 28 06 b2 c1 d5 68 24 13 c9 44 32 91 4c 24 13     .(....h$..D2.L$.
    4c3b:	c9 44 32 91 4c 24 d3 f3 16 f2 25 cd 97 f6 39 dc     .D2.L$....%...9.
    4c4b:	8a c5 e9 3c d5 40 37 18 88 54 9a d5 44 27 d1 49     ...<.@7..T..D'.I
    4c5b:	74 12 9d 64 b5 51 a9 06 03 d9 40 cf 3b 00 f3 24     t..d.Q....@.;..$
    4c6b:	cd 97 f6 39 9e da 66 f5 64 03 dd 60 20 52 69 56     ...9..f.d..` RiV
    4c7b:	13 9d 44 27 d1 49 74 92 d5 46 a5 1a 0c 64 03 3d     ..D'.It..F...d.=
    4c8b:	ef 00 f4 27 cd 97 f6 39 bd 54 08 33 39 8d 9e 66     ...'...9.T.39..f
    4c9b:	a0 1b 0c 44 2a cd 6a a2 93 e8 24 3a 89 4e b2 da     ...D*.j...$:.N..
    4cab:	a8 54 83 81 6c a0 e7 1d 00 f5 24 cd 97 f6 f9 6a     .T..l.....$....j
    4cbb:	21 1b ec 99 0c 74 83 81 48 a5 59 4d 74 12 9d 44     !....t..H.YMt..D
    4ccb:	27 d1 49 56 1b 95 6a 30 90 0d f4 bc 03 f6 24 cd     '.IV..j0......$.
    4cdb:	97 f6 f9 48 23 d3 e8 59 0c 74 83 81 48 a5 59 4d     ...H#..Y.t..H.YM
    4ceb:	74 12 9d 44 27 d1 49 56 1b 95 6a 30 90 0d f4 bc     t..D'.IV..j0....
    4cfb:	03 f7 19 d8 17 fc f9 ff 9f eb 71 7a 9c 9e a3 c1     ..........qz....
    4d0b:	03 3d a9 1e a7 c7 e9 f9 7f 08 f8 27 cd 97 f6 f9     .=.........'....
    4d1b:	8f b2 aa c1 20 35 18 88 44 9b 03 89 28 62 23 71     .... 5..D...(b#q
    4d2b:	23 51 88 24 03 cd 91 68 90 18 84 12 03 95 9e 13     #Q.$...h........
    4d3b:	00 f9 23 ce 17 f7 39 57 8b d5 ea 3c 99 91 4c 24     ..#...9W...<..L$
    4d4b:	13 c9 44 32 91 4c 24 13 c9 44 32 d1 d5 62 20 1b     ..D2.L$..D2..b .
    4d5b:	44 f4 bc 05 fa 24 ce 17 f7 79 a3 15 6b c5 79 3a     D....$...y..k.y:
    4d6b:	99 48 26 92 89 64 22 99 48 26 92 89 64 22 99 e8     .H&..d".H&..d"..
    4d7b:	6a 31 90 0d 22 7a de 02 fb 28 ce 17 f7 79 a1 1d     j1.."z...(...y..
    4d8b:	44 07 49 89 30 94 27 92 89 64 22 99 48 26 92 89     D.I.0.'..d".H&..
    4d9b:	64 22 99 48 26 92 89 ae 16 03 d9 20 a2 e7 2d 00     d".H&...... ..-.
    4dab:	fc 23 ce 17 f7 f9 58 22 94 e8 d9 c8 44 32 91 4c     .#....X"....D2.L
    4dbb:	24 13 c9 44 32 91 4c 24 13 c9 44 57 83 b3 41 44     $..D2.L$..DW..AD
    4dcb:	cf 5b 00 fd 25 cc 17 f6 79 24 55 da 13 e8 14 32     .[..%...y$U....2
    4ddb:	c9 4a 23 da 6c 54 1a 95 64 b5 d0 29 74 83 e4 a5     .J#.lT..d..)t...
    4deb:	54 a6 98 0d 84 7b 10 00 fe 26 ce 17 f7 f9 54 ec     T....{...&....T.
    4dfb:	93 41 6c a0 18 84 56 a2 d5 46 a7 d1 69 74 1a 9d     .Al...V..F..it..
    4e0b:	66 b5 59 89 06 8a 41 48 32 88 89 bd 47 02 ff 24     f.Y...AH2...G..$
    4e1b:	cd 97 f6 f9 48 23 d3 e8 a9 75 92 99 46 b5 51 89     ....H#...u..F.Q.
    4e2b:	36 2b 8d 6c a2 53 ec 14 c2 81 72 7a aa 95 4e f5     6+.l.S....rz..N.
    4e3b:	28 00 00 00                                         (...

00004e3f <ucg_font_fur11_hf>:
    4e3f:	bd 01 04 02 04 05 01 03 05 0f 14 ff fc 0b fd 0b     ................
    4e4f:	fd 02 67 05 10 20 07 45 a3 3e 9f 02 21 0b 45 a3     ..g.. .E.>..!.E.
    4e5f:	3e 38 d4 5f e6 71 00 22 10 47 e3 3e 99 42 a2 90     >8._.q.".G.>.B..
    4e6f:	44 24 11 49 3d c7 00 23 1d 4b 63 3f 07 91 5c 24     D$.I=..#.Kc?..\$
    4e7f:	16 11 0d 06 aa 48 2c 22 1a 0c 54 91 98 24 16 c9     .....H,"..T..$..
    4e8f:	45 f2 8c 00 24 1f 49 23 3f 45 30 36 08 45 12 99     E...$.I#?E06.E..
    4e9f:	48 22 13 49 0d 62 03 59 42 15 e9 44 91 d0 0c 64     H".I.b.YB..D...d
    4eaf:	79 0a 00 25 22 4e c3 3f c7 a3 54 44 93 ca 44 62     y..%"N.?..TD..Db
    4ebf:	99 48 2c a2 08 2e 22 c3 84 59 24 13 8b 64 52 99     .H,..."..Y$..dR.
    4ecf:	88 2a b4 67 0d 26 1b 4b 63 3f eb 5d 26 96 89 0d     .*.g.&.Kc?.]&...
    4edf:	72 9b 8c 42 92 29 c9 64 06 99 90 cd 68 a0 d0 33     r..B.).d....h..3
    4eef:	27 0b 46 c3 3e 89 28 d5 9e 1b 00 28 0e 46 c3 3e     '.F.>.(....(.F.>
    4eff:	4d 2a 24 4a f5 2b 55 21 00 29 0d 45 a3 3e 38 54     M*$J.+U!.).E.>8T
    4f0f:	24 ea 1b 4d a8 0e 2a 0f 4a 43 3f 37 91 9c 6c 30     $..M..*.JC?7..l0
    4f1f:	d3 0d f2 7c 03 2b 0e 4f e3 3f bf 8b 37 1d 9c c6     ...|.+.O.?..7...
    4f2f:	db 73 07 2c 0a 44 83 3e 63 89 24 13 05 2d 0a 46     .s.,.D.>c.$..-.F
    4f3f:	c3 3e d7 83 3c 35 00 2e 09 44 83 3e eb 4c 1e 02     .>..<5...D.>.L..
    4f4f:	2f 0f 46 c3 3e 51 aa 28 55 94 6a 94 ca e3 00 30     /.F.>Q.(U.j....0
    4f5f:	1b 48 03 3f f1 20 23 c9 64 24 a1 48 28 12 8a 84     .H.?. #.d$.H(...
    4f6f:	22 a1 48 46 22 09 0d f2 44 00 31 0d 48 03 3f b9     ".HF"...D.1.H.?.
    4f7f:	6a a4 c8 f5 f7 44 00 32 13 48 03 3f f1 20 23 b1     j....D.2.H.?. #.
    4f8f:	c9 c5 54 b2 98 ca 6c b0 a7 01 33 16 48 03 3f f1     ..T...l...3.H.?.
    4f9f:	20 93 51 88 62 22 61 4e 97 10 45 32 9a 41 9e 08      .Q.b"aN..E2.A..
    4faf:	34 16 48 03 3f 03 d5 2a 11 8a 64 24 99 12 4d 64     4.H.?..*..d$..Md
    4fbf:	30 88 e5 ea 69 00 35 15 48 03 3f ed 40 93 ab d8     0...i.5.H.?.@...
    4fcf:	48 24 a1 5c 49 46 22 09 ed a9 00 36 1b 48 03 3f     H$.\IF"....6.H.?
    4fdf:	f5 20 a2 51 84 14 b9 c4 20 a2 51 a4 12 a9 44 2a     . .Q.... .Q...D*
    4fef:	a1 d1 0c f2 34 00 37 11 48 03 3f ed 60 10 33 8b     ....4.7.H.?.`.3.
    4fff:	c9 62 66 31 7b 2a 00 38 18 48 03 3f f1 20 23 91     .bf1{*.8.H.?. #.
    500f:	84 22 36 23 49 26 14 09 45 42 11 9b 41 9e 08 39     ."6#I&..EB..A..9
    501f:	1a 48 03 3f f1 40 a2 51 a4 12 a9 84 46 32 48 e4     .H.?.@.Q....F2H.
    502f:	62 8a 90 42 a2 19 e4 89 00 3a 0c 44 83 3e 51 26     b..B.....:.D.>Q&
    503f:	0f ca e4 21 00 3b 0c 44 83 3e 51 26 0f 8a 98 44     ...!.;.D.>Q&...D
    504f:	01 3c 12 4f e3 3f bf 0d 4b a7 e2 3c 60 0f d8 03     .<.O.?..K..<`...
    505f:	f4 bc 01 3d 0e 4f e3 3f ff 66 70 4f 36 b8 e7 37     ...=.O.?.fpO6..7
    506f:	00 3e 13 4f e3 3f bf c9 03 f4 80 3d 40 0f c8 2e     .>.O.?.....=@...
    507f:	a7 7a 9e 02 3f 11 48 03 3f f1 20 a2 d1 c5 64 ed     .z..?.H.?. ...d.
    508f:	ea 01 79 32 00 40 27 4f e3 3f af 06 42 95 61 46     ..y2.@'O.?..B.aF
    509f:	b2 88 64 22 4e 8a 32 91 a2 4c a4 28 13 a9 91 48     ..d"N.2..L.(...H
    50af:	22 26 19 c9 44 25 d7 03 06 7a 14 00 41 1a 4b 63     "&..D%...z..A.Kc
    50bf:	3f 07 c2 61 22 a7 90 49 52 1a 91 46 34 18 48 54     ?..a"..IR..F4.HT
    50cf:	92 5c 42 a7 27 07 42 1c 4a 43 3f b3 c1 28 a4 49     .\B.'.B.JC?..(.I
    50df:	65 52 99 90 66 30 4a 65 62 91 58 24 25 19 0c f2     eR..f0Jeb.X$%...
    50ef:	c4 00 43 14 4a 43 3f c3 81 48 23 51 45 92 5d aa     ..C.JC?..H#QE.].
    50ff:	32 21 d1 40 4f 0c 44 1b 4a 43 3f b3 81 2a a4 49     2!.@O.D.JC?..*.I
    510f:	65 52 92 58 24 16 89 45 52 92 54 26 a4 19 e8 c9     eR.X$..ER.T&....
    511f:	01 45 11 49 23 3f 8b c1 26 d8 70 b0 09 36 1c ec     .E.I#?..&.p..6..
    512f:	09 01 46 0f 48 03 3f ed 60 92 6b 37 98 e4 ba 27     ..F.H.?.`.k7...'
    513f:	04 47 19 4b 63 3f f3 41 4a 24 91 45 a2 45 83 48     .G.Kc?.AJ$.E.E.H
    514f:	2e 92 8b c8 32 aa d0 60 90 67 48 1b 4a 43 3f b3     ....2..`.gH.JC?.
    515f:	92 58 24 16 89 45 62 91 c1 40 12 8b c4 22 b1 48     .X$..Eb..@...".H
    516f:	2c 12 cb d3 02 49 09 43 63 3e 22 d2 7f 0d 4a 0f     ,....I.Cc>"...J.
    517f:	48 03 3f 8b 5c 3f 09 45 32 9a 41 9e 08 4b 19 49     H.?.\?.E2.A..K.I
    518f:	23 3f 8b 90 24 a3 89 88 12 aa d9 2c a1 8a 88 32     #?..$......,...2
    519f:	9a 90 24 a5 27 03 4c 0b 47 e3 3e 59 ff d9 60 8f     ..$.'.L.G.>Y..`.
    51af:	06 4d 25 4d a3 3f 67 3a c9 6a b2 4a 44 12 21 45     .M%M.?g:.j.JD.!E
    51bf:	24 a1 51 44 6a 22 4d 24 25 8a 4c 24 93 c8 44 32     $.QDj"M$%.L$..D2
    51cf:	9b 48 a8 9e 21 00 4e 1f 4a 43 3f 33 55 64 14 19     .H..!.N.JC?3Ud..
    51df:	45 12 9a 48 42 13 89 48 6a 22 35 8a 48 28 11 09     E..HB..Hj"5.H(..
    51ef:	4d 52 7a 5a 00 4f 1a 4b 63 3f eb 81 4a 63 25 89     MRzZ.O.Kc?..Jc%.
    51ff:	49 72 91 5c 24 17 89 49 54 21 8d 6a a0 67 02 50     Ir.\$..IT!.j.g.P
    520f:	14 49 23 3f 8b c1 26 24 49 45 52 91 90 64 b0 09     .I#?..&$IER..d..
    521f:	76 4f 0d 51 1c 4c 83 3f 37 03 99 46 a4 d2 c4 34     vO.Q.L.?7..F...4
    522f:	b9 4c 2e 93 cb c4 34 2a 91 46 36 18 e8 19 01 52     .L....4*.F6....R
    523f:	1a 49 23 3f 8b c1 26 24 49 45 52 91 90 64 20 aa     .I#?..&$IER..d .
    524f:	09 49 42 92 54 24 95 a7 03 53 18 4a 43 3f c3 41     .IB.T$...S.JC?.A
    525f:	48 94 49 49 92 83 dc 60 b8 8c c4 22 22 cd 40 4f     H.II...`..."".@O
    526f:	0d 54 0c 4b 63 3f db c1 59 b4 7f cf 08 55 1a 4a     .T.Kc?..Y....U.J
    527f:	43 3f b3 92 58 24 16 89 45 62 91 58 24 16 89 45     C?..X$..Eb.X$..E
    528f:	52 12 51 6a 90 a7 06 56 18 4a 43 3f 2b 59 24 25     R.Qj...V.JC?+Y$%
    529f:	11 49 44 35 22 89 2a 12 4b c8 06 39 a1 9e 1c 57     .ID5".*.K..9...W
    52af:	27 4f e3 3f 0f 44 aa 48 68 23 09 6d 24 16 99 50     'O.?.D.Hh#.m$..P
    52bf:	44 91 09 45 22 0a 91 22 93 48 0d 32 89 98 28 11     D..E"..".H.2..(.
    52cf:	13 cd 54 79 8e 00 58 18 4b 63 3f 5b 55 48 a3 8a     ..Ty..X.Kc?[UH..
    52df:	c8 14 c1 a1 70 90 8b a8 34 21 9b 98 9e 01 59 13     ....p...4!....Y.
    52ef:	4a 43 3f 33 95 24 95 31 8a a8 14 b9 61 b2 7b 72     JC?3.$.1....a.{r
    52ff:	00 5a 13 4a 43 3f bb c1 20 a8 13 ea ec 76 76 07     .Z.JC?.. ....vv.
    530f:	03 3d 2d 00 5b 0b 46 c3 3e c9 26 d5 ff 6a 07 5c     .=-.[.F.>.&..j.\
    531f:	0f 46 c3 3e 45 aa 2c 55 96 6a 96 ca 83 00 5d 0b     .F.>E.,U.j....].
    532f:	46 c3 3e c5 aa ff 9b 21 00 5e 18 4f e3 3f df c5     F.>....!.^.O.?..
    533f:	d3 89 70 22 1b c9 66 a2 99 64 2a 98 0a a6 f2 1c     ..p"..f..d*.....
    534f:	01 5f 0b 48 03 3f ff 62 30 d0 23 00 60 09 43 63     ._.H.?.b0.#.`.Cc
    535f:	72 44 92 27 05 61 15 48 03 3f 67 83 8c 44 97 19     rD.'.a.H.?g..D..
    536f:	48 34 91 50 24 a3 59 e4 69 00 62 16 49 23 3f 8b     H4.P$.Y.i.b.I#?.
    537f:	60 8b 41 c6 24 24 49 45 52 91 90 44 53 b1 a7 04     `.A.$$IER..DS...
    538f:	63 13 48 03 3f 67 83 8c 44 12 8a e4 8a 22 36 83     c.H.?g..D...."6.
    539f:	3c 11 00 64 18 49 23 3f bb 60 cd 20 11 d1 48 42     <..d.I#?.`. ..HB
    53af:	92 54 24 15 09 49 34 a2 45 9e 0e 65 14 48 03 3f     .T$..I4.E..e.H.?
    53bf:	67 83 8c 26 12 8a 0c 26 b9 50 c4 66 90 27 02 66     g..&...&.P.f.'.f
    53cf:	0e 47 e3 3e e1 28 16 1a 88 62 7d 4f 01 67 1b 49     .G.>.(...b}O.g.I
    53df:	23 3f e7 83 44 44 23 09 49 52 91 54 24 24 d1 68     #?..DD#.IR.T$$.h
    53ef:	06 89 9c 44 a3 19 84 01 68 17 48 03 3f 6d ae c5     ...D....h.H.?m..
    53ff:	46 22 09 45 42 91 50 24 14 09 45 42 79 1a 00 69     F".EB.P$..EBy..i
    540f:	0a 43 63 3e 22 18 e9 d7 00 6a 0b 44 83 3e 2e 9b     .Cc>"....j.D.>..
    541f:	e9 9f a8 00 6b 14 47 e3 3e 59 37 91 9a 44 68 94     ....k.G.>Y7..Dh.
    542f:	08 25 34 11 49 46 8f 06 6c 09 43 63 3e 22 d2 7f     .%4.IF..l.Cc>"..
    543f:	0d 6d 19 4d a3 3f 3f 48 4c 36 92 89 24 54 12 2a     .m.M.??HL6..$T.*
    544f:	09 95 84 4a 42 25 a1 7a 86 00 6e 16 48 03 3f 57     ...JB%.z..n.H.?W
    545f:	89 8d 44 12 8a 84 22 a1 48 28 12 8a 84 f2 34 00     ..D...".H(....4.
    546f:	6f 15 49 23 3f e7 83 90 a6 48 92 8a a4 22 21 89     o.I#?....H..."!.
    547f:	26 34 c8 53 02 70 19 49 23 3f d7 89 41 c6 24 24     &4.S.p.I#?..A.$$
    548f:	49 45 52 91 90 44 23 49 0c 32 c1 7a 04 00 71 18     IER..D#I.2.z..q.
    549f:	49 23 3f e7 83 44 44 23 09 49 52 91 54 24 24 d1     I#?..DD#.IR.T$$.
    54af:	68 06 89 60 53 00 72 0c 45 a3 3e ed 20 a1 09 f5     h..`S.r.E.>. ...
    54bf:	1e 08 73 13 48 03 3f 67 83 4c 46 92 1b e4 76 91     ..s.H.?g.LF...v.
    54cf:	8c 66 90 27 02 74 0e 46 c3 3e 65 2a 33 08 a5 7a     .f.'.t.F.>e*3..z
    54df:	a5 87 02 75 15 48 03 3f 57 a1 48 28 12 8a 84 22     ...u.H.?W.H(..."
    54ef:	a1 48 28 62 b3 c8 d3 00 76 13 48 03 3f 47 16 a1     .H(b....v.H.?G..
    54ff:	88 4d 24 14 09 0d 52 32 3d 15 00 77 1c 4c 83 3f     .M$...R2=..w.L.?
    550f:	9f 69 2c 32 16 91 41 24 a2 88 d4 24 22 09 4d 22     .i,2..A$...$".M"
    551f:	32 da a8 42 7a 56 00 78 13 48 03 3f 57 9a 12 cd     2..BzV.x.H.?W...
    552f:	20 25 53 0d 32 12 49 48 4f 02 79 13 48 03 3f 47      %S.2.IHO.y.H.?G
    553f:	16 a1 88 4d 44 a3 08 0d 52 32 b3 98 18 7a 10 47     ...MD...R2...z.G
    554f:	e3 3e e3 81 4a 55 a5 4a a9 06 7a 38 00 7b 0f 47     .>..JU.J..z8.{.G
    555f:	e3 3e a5 48 15 6b 25 92 c9 3a b3 00 7c 0a 46 c3     .>.H.k%..:..|.F.
    556f:	3e 38 d5 ff 4f 00 7d 0e 47 e3 3e 99 59 67 46 aa     >8..O.}.G.>.YgF.
    557f:	58 2b 91 08 7e 0c 48 03 3f cf 27 83 c8 9e 31 00     X+..~.H.?.'...1.
    558f:	a0 07 45 a3 3e 9f 02 a1 0a 45 a3 3e 71 3c d4 ef     ..E.>....E.>q<..
    559f:	00 a2 19 48 03 3f c3 5c 68 90 51 4c 2a 22 45 89     ...H.?.\h.QL*"E.
    55af:	54 22 12 59 68 06 a1 5c 1e 06 a3 13 49 23 3f 9b     T".Yh..\....I#?.
    55bf:	41 48 a2 09 e6 06 aa 60 77 83 41 9e 0e a4 16 4a     AH.....`w.A....J
    55cf:	43 3f b3 9a 84 22 15 49 85 7a 15 49 25 14 99 58     C?...".I.z.I%..X
    55df:	9e 0b 00 a5 14 49 23 3f 8b 54 44 a3 29 39 4a c4     .....I#?.TD.)9J.
    55ef:	36 83 81 2a d8 9e 14 a6 0c 46 c3 3e 4d aa f7 90     6..*.....F.>M...
    55ff:	54 0f 01 a7 19 47 e3 3e dd 20 92 89 c4 64 1b 85     T....G.>. ...d..
    560f:	24 13 89 48 06 29 99 2c 25 19 24 01 a8 09 44 83     $..H.).,%.$...D.
    561f:	3e 2a 92 67 0b a9 24 4d a3 3f 97 03 d9 60 a0 9a     >*.g..$M.?...`..
    562f:	28 32 a3 84 24 91 8b 24 72 91 44 28 52 21 51 68     (2..$..$r.D(R!Qh
    563f:	12 83 48 48 95 1b e8 d9 02 aa 11 46 c3 3e c9 a4     ..HH.......F.>..
    564f:	64 10 69 21 51 e4 06 7b 62 00 ab 12 48 03 3f 0f     d.i!Q..{b...H.?.
    565f:	22 99 48 46 a1 51 88 22 a9 48 9e 16 ac 0c 4a 43     ".HF.Q.".H....JC
    566f:	3f 5f 0c 06 ca 7a 9e 01 ae 24 4d a3 3f 97 03 d9     ?_...z...$M.?...
    567f:	60 a0 4a 64 12 19 45 26 21 89 0c 32 91 12 49 9b     `.Jd..E&!..2..I.
    568f:	48 44 91 49 68 72 21 bb 81 9e 2d 00 af 09 44 83     HD.Ihr!...-...D.
    569f:	3e 6a 90 67 0b b0 0d 45 a3 3e 76 92 88 24 22 7b     >j.g...E.>v..$"{
    56af:	b6 00 b1 11 4f e3 3f df c5 4b 07 a7 f1 7a d2 c1     ....O.?..K...z..
    56bf:	3d 37 00 b2 0d 46 c3 3e c9 a4 48 63 34 c8 33 05     =7...F.>..Hc4.3.
    56cf:	b3 10 46 c3 3e c5 20 21 09 69 24 99 c8 9e 2d 00     ..F.>. !.i$...-.
    56df:	b4 09 44 83 3e 46 52 cf 12 b6 23 49 23 3f 93 c1     ..D.>FR...#I#?..
    56ef:	64 90 c8 0c 12 99 41 22 33 48 84 16 b1 44 2c 11     d.....A"3H...D,.
    56ff:	4b c4 12 b1 44 2c 11 4b c4 12 59 00 b7 09 44 83     K...D,.K..Y...D.
    570f:	3e 71 26 4f 03 b8 0a 45 a3 3e 0f 45 89 19 00 b9     >q&O...E.>.E....
    571f:	0b 45 a3 3e 58 92 08 75 cf 02 ba 12 47 e3 3e dd     .E.>X..u....G.>.
    572f:	46 21 c9 44 32 11 85 66 3a d0 b3 02 bb 12 48 03     F!.D2..f:.....H.
    573f:	3f d7 0a 51 24 15 09 45 32 91 8c 42 4f 0c bc 1e     ?..Q$..E2..BO...
    574f:	4c 83 3f 27 a2 8a 4c 2e 93 8b 04 23 c1 44 44 17     L.?'..L....#.DD.
    575f:	91 45 12 29 c9 20 94 0a a9 f2 ac 00 bd 1e 4d a3     .E.). ........M.
    576f:	3f 77 aa 50 22 94 cb 04 33 c1 48 32 92 d8 45 aa     ?w.P"...3.H2..E.
    577f:	44 aa 90 2a a4 12 0d f2 0c 01 be 20 4c 83 3f 17     D..*....... L.?.
    578f:	83 4c 2e a2 d2 e4 14 a2 4c 22 b6 88 e8 22 b2 48     .L......L"...".H
    579f:	22 96 18 88 52 21 55 9e 15 00 bf 12 48 03 3f 87     "...R!U.....H.?.
    57af:	79 40 2e a6 32 cb 85 22 0b cd 20 0a c0 1d 4b 63     y@..2..".. ...Kc
    57bf:	8f 34 9b 27 11 0e 13 39 85 4c 92 d2 88 34 a2 c1     .4.'...9.L...4..
    57cf:	40 a2 92 e4 12 3a 3d 39 00 c1 1c 4b 63 9b b2 9e     @....:=9...Kc...
    57df:	44 38 4c e4 14 32 49 4a 23 d2 88 06 03 89 4a 92     D8L..2IJ#.....J.
    57ef:	4b e8 f4 e4 00 c2 1d 4b 63 57 72 18 c9 13 08 87     K......KcWr.....
    57ff:	89 9c 42 26 49 69 44 1a d1 60 20 51 49 72 09 9d     ..B&IiD..` QIr..
    580f:	9e 1c c3 1e 4b 63 3f 40 11 4b e8 29 84 c3 44 4e     ....Kc?@.K.)..DN
    581f:	21 93 a4 34 22 8d 68 30 90 a8 24 b9 84 4e 4f 0e     !..4".h0..$..NO.
    582f:	c4 1d 4b 63 3f 36 92 27 10 0e 13 32 85 4c 12 cb     ..Kc?6.'...2.L..
    583f:	88 44 a1 c1 40 a2 92 e4 06 39 3d 39 00 c5 1d 4b     .D..@....9=9...K
    584f:	63 d3 30 11 dc 53 24 95 89 60 22 97 89 65 52 1a     c.0..S$..`"..eR.
    585f:	d1 60 90 51 49 72 09 9d 9e 1c c6 1e 4e c3 3f 2f     .`.QIr......N.?/
    586f:	06 83 58 22 aa 88 2a 92 92 a4 64 b0 d1 04 07 3b     ..X"..*...d....;
    587f:	51 2e 15 53 0d f6 8c 01 c7 17 4a 43 3f c3 81 48     Q..S......JC?..H
    588f:	14 51 45 92 5d aa 32 21 d1 40 a7 54 c6 36 00 c8     .QE.].2!.@.T.6..
    589f:	13 49 23 4b b2 1e 38 d8 04 1b 0e 36 c1 86 83 3d     .I#K..8....6...=
    58af:	21 00 c9 13 49 23 57 2e 98 07 0e 36 c1 86 83 4d     !...I#W....6...M
    58bf:	b0 e1 60 4f 08 ca 14 49 23 8f 4e 16 c9 e3 06 9b     ..`O...I#.N.....
    58cf:	60 c3 c1 26 d8 70 b0 27 04 cb 12 48 03 6b 24 0f     `..&.p.'...H.k$.
    58df:	1e 4c 72 ed 06 93 5c bb c1 9e 06 cc 0c 44 83 82     .Lr...\......D..
    58ef:	26 94 cd f4 df 43 00 cd 0c 44 83 8a 42 92 cd f4     &....C...D..B...
    58ff:	df 63 00 ce 0c 43 63 46 62 90 c8 45 fa af 01 cf     .c...CcFb..E....
    590f:	0b 44 83 62 24 99 e9 bf c7 00 d0 1c 4b 63 3f e3     .D.b$.......Kc?.
    591f:	81 2c 24 4a 85 52 9a 58 62 20 ca c4 32 29 4d 2a     .,$J.R.Xb ..2)M*
    592f:	14 12 0d f4 6c 00 d1 22 4a 43 b7 22 96 d0 23 55     ....l.."JC."..#U
    593f:	91 51 64 14 49 68 22 09 4d 24 22 a9 89 d4 28 22     .Qd.Ih".M$"...("
    594f:	a1 44 24 34 49 e9 69 01 d2 1d 4b 63 8f 34 9b 27     .D$4I.i...Kc.4.'
    595f:	18 a8 34 56 92 98 24 17 c9 45 72 91 98 44 15 d2     ..4V..$..Er..D..
    596f:	a8 06 7a 26 00 d3 1d 4b 63 5b 52 99 27 18 a8 34     ..z&...Kc[R.'..4
    597f:	56 92 98 24 17 c9 45 72 91 98 44 15 d2 a8 06 7a     V..$..Er..D....z
    598f:	26 00 d4 1e 4b 63 57 72 98 c8 c3 07 2a 8d 95 24     &...KcWr....*..$
    599f:	26 c9 45 72 91 5c 24 26 51 85 34 aa 81 9e 09 00     &.Er.\$&Q.4.....
    59af:	d5 1e 4b 63 3f 40 98 d0 c3 07 2a 8d 95 24 17 c9     ..Kc?@....*..$..
    59bf:	45 72 91 5c 24 26 51 85 16 ab 81 9e 09 00 d6 1d     Er.\$&Q.........
    59cf:	4b 63 3f 20 92 a7 1c a8 34 56 92 98 24 17 c9 45     Kc? ....4V..$..E
    59df:	72 91 98 44 15 d2 a8 06 7a 26 00 d7 13 4f e3 3f     r..D....z&...O.?
    59ef:	7f 94 4a 66 b2 89 74 45 36 93 4c e5 79 04 d8 20     ..Jf..tE6.L.y.. 
    59ff:	4b 63 3f c3 d0 60 a4 31 9a 84 14 91 8c a4 a6 24     Kc?..`.1.......$
    5a0f:	a2 89 24 34 92 51 48 a3 19 0c 42 79 62 00 d9 1d     ..$4.QH...Byb...
    5a1f:	4a 43 4f 34 a9 87 c6 22 b1 48 2c 12 8b c4 22 b1     JCO4...".H,...".
    5a2f:	48 2c 12 8b 88 24 13 d5 20 4f 0d da 1d 4a 43 97     H,...$.. O...JC.
    5a3f:	b0 1e 1b 8b c4 22 b1 48 2c 12 8b c4 22 b1 48 2c     .....".H,...".H,
    5a4f:	22 92 4c 54 83 3c 35 00 db 1e 4a 43 93 50 17 c9     ".LT.<5...JC.P..
    5a5f:	23 63 91 58 24 16 89 45 62 91 58 24 16 89 45 44     #c.X$..Eb.X$..ED
    5a6f:	92 89 6a 90 a7 06 dc 1d 4a 43 77 24 4f 14 8b c4     ..j.....JCw$O...
    5a7f:	22 b1 48 2c 12 8b c4 22 b1 48 2c 92 92 88 52 83     ".H,...".H,...R.
    5a8f:	3c 35 00 dd 14 4a 43 9b b0 1e aa 92 a4 32 46 11     <5...JC......2F.
    5a9f:	95 22 37 4c 76 4f 0e de 16 49 23 3f 8b 60 70 b0     ."7LvO...I#?.`p.
    5aaf:	09 49 52 91 54 24 24 19 6c 82 f5 d4 00 df 1b 48     .IR.T$$.l......H
    5abf:	03 3f f1 20 23 91 84 22 19 49 51 24 14 99 84 14     .?. #..".IQ$....
    5acf:	a9 44 42 92 88 ec 69 00 e0 17 48 03 3f 55 30 97     .DB...i...H.?U0.
    5adf:	1e 64 24 ba cc 40 a2 89 84 22 19 cd 22 4f 03 e1     .d$..@...".."O..
    5aef:	18 48 03 3f 5a 16 93 c5 07 19 89 2e 33 90 68 22     .H.?Z.......3.h"
    5aff:	a1 48 46 b3 c8 d3 00 e2 18 48 03 3f 95 45 28 12     .HF......H.?.E(.
    5b0f:	1e 64 24 ba cc 40 a2 89 84 22 19 cd 22 4f 03 e3     .d$..@...".."O..
    5b1f:	17 48 03 3f f1 20 8f 1a 64 24 ba cc 40 a2 89 84     .H.?. ..d$..@...
    5b2f:	22 19 cd 22 4f 03 e4 17 48 03 3f 71 24 8f 1a 64     ".."O...H.?q$..d
    5b3f:	24 ba cc 40 a2 89 84 22 19 cd 22 4f 03 e5 1a 48     $..@...".."O...H
    5b4f:	03 3f 58 15 09 45 52 ea 41 46 93 cb 0c 24 9a 48     .?X..ER.AF...$.H
    5b5f:	28 92 d1 2c f2 34 00 e6 1c 4d a3 3f 3f 18 28 06     (..,.4...M.??.(.
    5b6f:	99 8a 4c 2e 24 19 1c 28 34 b9 8c 48 21 49 44 34     ..L.$..(4..H!ID4
    5b7f:	f7 2c 01 e7 15 48 03 3f 67 83 8c 44 12 8a e4 8a     .,...H.?g..D....
    5b8f:	22 36 83 94 4e 97 d2 00 e8 17 48 03 3f 36 98 0b     "6..N.....H.?6..
    5b9f:	a6 07 19 4d 24 14 19 4c 72 a1 88 cd 20 4f 04 e9     ...M$..Lr... O..
    5baf:	17 48 03 3f 3c 96 8b c5 07 19 4d 24 14 19 4c 72     .H.?<.....M$..Lr
    5bbf:	a1 88 cd 20 4f 04 ea 18 48 03 3f 95 45 28 12 1e     ... O...H.?.E(..
    5bcf:	64 34 91 50 64 30 c9 85 22 36 83 3c 11 00 eb 17     d4.Pd0.."6.<....
    5bdf:	48 03 3f 71 24 8f 1a 64 24 92 50 64 30 c9 85 22     H.?q$..d$.Pd0.."
    5bef:	36 83 3c 11 00 ec 0b 43 63 72 26 92 8a f4 6b 00     6.<....Ccr&...k.
    5bff:	ed 0a 43 63 7a a2 2c d2 af 01 ee 0e 46 c3 3e 74     ..Ccz.,.....F.>t
    5c0f:	93 88 64 92 a9 7e 0f 06 ef 0c 44 83 3e 2a 92 cc     ..d..~....D.>*..
    5c1f:	f4 7b 0c 00 f0 19 49 23 3f 13 45 6a 95 49 0d 34     .{....I#?.Ej.I.4
    5c2f:	26 21 49 2a 92 8a 84 24 9a d0 20 4f 09 f1 18 48     &!I*...$.. O...H
    5c3f:	03 3f f1 20 0f 4a 6c 24 92 50 24 14 09 45 42 91     .?. .Jl$.P$..EB.
    5c4f:	50 24 94 a7 01 f2 19 49 23 3f 5c 98 0c e6 01 83     P$.....I#?\.....
    5c5f:	90 a6 48 92 8a a4 22 21 89 26 34 c8 53 02 f3 18     ..H..."!.&4.S...
    5c6f:	49 23 3f 89 4c 57 8f 18 84 34 45 92 54 24 15 09     I#?.LW...4E.T$..
    5c7f:	49 34 a1 41 9e 12 f4 19 49 23 3f e5 2c 91 ca a4     I4.A....I#?.,...
    5c8f:	07 21 4d 91 24 15 49 45 42 12 4d 68 90 a7 04 f5     .!M.$.IEB.Mh....
    5c9f:	18 49 23 3f 93 41 1e 38 08 69 8a 24 a9 48 2a 12     .I#?.A.8.i.$.H*.
    5caf:	92 68 42 83 3c 25 00 f6 17 49 23 3f 93 7a e0 20     .hB.<%...I#?.z. 
    5cbf:	a4 29 92 a4 22 a9 48 48 a2 09 0d f2 94 00 f7 10     .)..".HH........
    5ccf:	4f e3 3f 7f 17 cf 43 07 f7 d0 78 9e 77 00 f8 16     O.?...C...x.w...
    5cdf:	49 23 3f a7 99 81 46 53 33 e9 42 52 11 b1 c9 0c     I#?...FS3.BR....
    5cef:	34 7a 22 00 f9 18 48 03 3f 36 98 0b 86 43 91 50     4z"...H.?6...C.P
    5cff:	24 14 09 45 42 91 50 c4 66 91 a7 01 fa 18 48 03     $..EB.P.f.....H.
    5d0f:	3f 5a 16 93 a5 43 91 50 24 14 09 45 42 91 50 c4     ?Z...C.P$..EB.P.
    5d1f:	66 91 a7 01 fb 19 48 03 3f 95 2a 91 8a 64 43 91     f.....H.?.*..dC.
    5d2f:	50 24 14 09 45 42 91 50 c4 66 91 a7 01 fc 17 48     P$..EB.P.f.....H
    5d3f:	03 3f 71 24 0f 2a 09 45 42 91 50 24 14 09 45 6c     .?q$.*.EB.P$..El
    5d4f:	16 79 1a 00 fd 17 48 03 3f 5d ac 58 a4 08 45 6c     .y....H.?].X..El
    5d5f:	22 1a 45 68 90 92 19 25 52 63 00 fe 1a 49 23 3f     ".Eh...%Rc...I#?
    5d6f:	8b 60 8b 41 c6 24 24 49 45 52 91 90 44 23 49 0c     .`.A.$$IER..D#I.
    5d7f:	32 c1 7a 04 00 ff 17 48 03 3f 71 24 8f 11 29 42     2.z....H.?q$..)B
    5d8f:	11 9b 48 28 12 1a a4 64 66 31 31 00 00 00 00        ..H(...df11....

00005d9e <__ctors_end>:
    5d9e:	11 24       	eor	r1, r1
    5da0:	1f be       	out	0x3f, r1	; 63
    5da2:	cf ef       	ldi	r28, 0xFF	; 255
    5da4:	cd bf       	out	0x3d, r28	; 61
    5da6:	df e5       	ldi	r29, 0x5F	; 95
    5da8:	de bf       	out	0x3e, r29	; 62
    5daa:	00 e0       	ldi	r16, 0x00	; 0
    5dac:	0c bf       	out	0x3c, r16	; 60

00005dae <__do_copy_data>:
    5dae:	10 e2       	ldi	r17, 0x20	; 32
    5db0:	a0 e0       	ldi	r26, 0x00	; 0
    5db2:	b0 e2       	ldi	r27, 0x20	; 32
    5db4:	e0 ed       	ldi	r30, 0xD0	; 208
    5db6:	ff e9       	ldi	r31, 0x9F	; 159
    5db8:	00 e0       	ldi	r16, 0x00	; 0
    5dba:	0b bf       	out	0x3b, r16	; 59
    5dbc:	02 c0       	rjmp	.+4      	; 0x5dc2 <__do_copy_data+0x14>
    5dbe:	07 90       	elpm	r0, Z+
    5dc0:	0d 92       	st	X+, r0
    5dc2:	aa 39       	cpi	r26, 0x9A	; 154
    5dc4:	b1 07       	cpc	r27, r17
    5dc6:	d9 f7       	brne	.-10     	; 0x5dbe <__do_copy_data+0x10>

00005dc8 <__do_clear_bss>:
    5dc8:	22 e2       	ldi	r18, 0x22	; 34
    5dca:	aa e9       	ldi	r26, 0x9A	; 154
    5dcc:	b0 e2       	ldi	r27, 0x20	; 32
    5dce:	01 c0       	rjmp	.+2      	; 0x5dd2 <.do_clear_bss_start>

00005dd0 <.do_clear_bss_loop>:
    5dd0:	1d 92       	st	X+, r1

00005dd2 <.do_clear_bss_start>:
    5dd2:	ab 33       	cpi	r26, 0x3B	; 59
    5dd4:	b2 07       	cpc	r27, r18
    5dd6:	e1 f7       	brne	.-8      	; 0x5dd0 <.do_clear_bss_loop>
    5dd8:	0e 94 44 41 	call	0x8288	; 0x8288 <main>
    5ddc:	0c 94 e6 4f 	jmp	0x9fcc	; 0x9fcc <_exit>

00005de0 <__bad_interrupt>:
    5de0:	0c 94 00 00 	jmp	0	; 0x0 <__vectors>

00005de4 <Config32MHzClock_Ext16M>:
    5de4:	e0 e5       	ldi	r30, 0x50	; 80
    5de6:	f0 e0       	ldi	r31, 0x00	; 0
    5de8:	8b ec       	ldi	r24, 0xCB	; 203
    5dea:	82 83       	std	Z+2, r24	; 0x02
    5dec:	80 81       	ld	r24, Z
    5dee:	88 60       	ori	r24, 0x08	; 8
    5df0:	80 83       	st	Z, r24
    5df2:	81 81       	ldd	r24, Z+1	; 0x01
    5df4:	83 ff       	sbrs	r24, 3
    5df6:	fd cf       	rjmp	.-6      	; 0x5df2 <Config32MHzClock_Ext16M+0xe>
    5df8:	e0 e5       	ldi	r30, 0x50	; 80
    5dfa:	f0 e0       	ldi	r31, 0x00	; 0
    5dfc:	82 ec       	ldi	r24, 0xC2	; 194
    5dfe:	85 83       	std	Z+5, r24	; 0x05
    5e00:	80 81       	ld	r24, Z
    5e02:	80 61       	ori	r24, 0x10	; 16
    5e04:	80 83       	st	Z, r24
    5e06:	81 81       	ldd	r24, Z+1	; 0x01
    5e08:	84 ff       	sbrs	r24, 4
    5e0a:	fd cf       	rjmp	.-6      	; 0x5e06 <Config32MHzClock_Ext16M+0x22>
    5e0c:	88 ed       	ldi	r24, 0xD8	; 216
    5e0e:	84 bf       	out	0x34, r24	; 52
    5e10:	84 e0       	ldi	r24, 0x04	; 4
    5e12:	80 93 40 00 	sts	0x0040, r24	; 0x800040 <__TEXT_REGION_LENGTH__+0x700040>
    5e16:	e0 e5       	ldi	r30, 0x50	; 80
    5e18:	f0 e0       	ldi	r31, 0x00	; 0
    5e1a:	80 81       	ld	r24, Z
    5e1c:	8e 7f       	andi	r24, 0xFE	; 254
    5e1e:	80 83       	st	Z, r24
    5e20:	80 81       	ld	r24, Z
    5e22:	8d 7f       	andi	r24, 0xFD	; 253
    5e24:	80 83       	st	Z, r24
    5e26:	08 95       	ret

00005e28 <ucg_DrawBox>:
    5e28:	af 92       	push	r10
    5e2a:	bf 92       	push	r11
    5e2c:	cf 92       	push	r12
    5e2e:	df 92       	push	r13
    5e30:	ef 92       	push	r14
    5e32:	ff 92       	push	r15
    5e34:	0f 93       	push	r16
    5e36:	1f 93       	push	r17
    5e38:	cf 93       	push	r28
    5e3a:	df 93       	push	r29
    5e3c:	7c 01       	movw	r14, r24
    5e3e:	6b 01       	movw	r12, r22
    5e40:	ea 01       	movw	r28, r20
    5e42:	59 01       	movw	r10, r18
    5e44:	10 16       	cp	r1, r16
    5e46:	11 06       	cpc	r1, r17
    5e48:	64 f4       	brge	.+24     	; 0x5e62 <ucg_DrawBox+0x3a>
    5e4a:	04 0f       	add	r16, r20
    5e4c:	15 1f       	adc	r17, r21
    5e4e:	95 01       	movw	r18, r10
    5e50:	ae 01       	movw	r20, r28
    5e52:	b6 01       	movw	r22, r12
    5e54:	c7 01       	movw	r24, r14
    5e56:	0e 94 62 39 	call	0x72c4	; 0x72c4 <ucg_DrawHLine>
    5e5a:	21 96       	adiw	r28, 0x01	; 1
    5e5c:	c0 17       	cp	r28, r16
    5e5e:	d1 07       	cpc	r29, r17
    5e60:	b1 f7       	brne	.-20     	; 0x5e4e <ucg_DrawBox+0x26>
    5e62:	df 91       	pop	r29
    5e64:	cf 91       	pop	r28
    5e66:	1f 91       	pop	r17
    5e68:	0f 91       	pop	r16
    5e6a:	ff 90       	pop	r15
    5e6c:	ef 90       	pop	r14
    5e6e:	df 90       	pop	r13
    5e70:	cf 90       	pop	r12
    5e72:	bf 90       	pop	r11
    5e74:	af 90       	pop	r10
    5e76:	08 95       	ret

00005e78 <ucg_ClearScreen>:
    5e78:	0f 93       	push	r16
    5e7a:	1f 93       	push	r17
    5e7c:	cf 93       	push	r28
    5e7e:	df 93       	push	r29
    5e80:	ec 01       	movw	r28, r24
    5e82:	00 e0       	ldi	r16, 0x00	; 0
    5e84:	20 e0       	ldi	r18, 0x00	; 0
    5e86:	40 e0       	ldi	r20, 0x00	; 0
    5e88:	60 e0       	ldi	r22, 0x00	; 0
    5e8a:	0e 94 75 39 	call	0x72ea	; 0x72ea <ucg_SetColor>
    5e8e:	ce 01       	movw	r24, r28
    5e90:	0e 94 84 35 	call	0x6b08	; 0x6b08 <ucg_SetMaxClipRange>
    5e94:	0b 81       	ldd	r16, Y+3	; 0x03
    5e96:	1c 81       	ldd	r17, Y+4	; 0x04
    5e98:	29 81       	ldd	r18, Y+1	; 0x01
    5e9a:	3a 81       	ldd	r19, Y+2	; 0x02
    5e9c:	40 e0       	ldi	r20, 0x00	; 0
    5e9e:	50 e0       	ldi	r21, 0x00	; 0
    5ea0:	60 e0       	ldi	r22, 0x00	; 0
    5ea2:	70 e0       	ldi	r23, 0x00	; 0
    5ea4:	ce 01       	movw	r24, r28
    5ea6:	0e 94 14 2f 	call	0x5e28	; 0x5e28 <ucg_DrawBox>
    5eaa:	0f ef       	ldi	r16, 0xFF	; 255
    5eac:	2f ef       	ldi	r18, 0xFF	; 255
    5eae:	4f ef       	ldi	r20, 0xFF	; 255
    5eb0:	60 e0       	ldi	r22, 0x00	; 0
    5eb2:	ce 01       	movw	r24, r28
    5eb4:	0e 94 75 39 	call	0x72ea	; 0x72ea <ucg_SetColor>
    5eb8:	df 91       	pop	r29
    5eba:	cf 91       	pop	r28
    5ebc:	1f 91       	pop	r17
    5ebe:	0f 91       	pop	r16
    5ec0:	08 95       	ret

00005ec2 <ucg_ccs_init>:
    5ec2:	1f 93       	push	r17
    5ec4:	cf 93       	push	r28
    5ec6:	df 93       	push	r29
    5ec8:	fc 01       	movw	r30, r24
    5eca:	16 2f       	mov	r17, r22
    5ecc:	61 83       	std	Z+1, r22	; 0x01
    5ece:	c4 2f       	mov	r28, r20
    5ed0:	d0 e0       	ldi	r29, 0x00	; 0
    5ed2:	c6 1b       	sub	r28, r22
    5ed4:	d1 09       	sbc	r29, r1
    5ed6:	c4 83       	std	Z+4, r28	; 0x04
    5ed8:	d5 83       	std	Z+5, r29	; 0x05
    5eda:	21 50       	subi	r18, 0x01	; 1
    5edc:	31 09       	sbc	r19, r1
    5ede:	20 87       	std	Z+8, r18	; 0x08
    5ee0:	31 87       	std	Z+9, r19	; 0x09
    5ee2:	81 e0       	ldi	r24, 0x01	; 1
    5ee4:	90 e0       	ldi	r25, 0x00	; 0
    5ee6:	82 83       	std	Z+2, r24	; 0x02
    5ee8:	93 83       	std	Z+3, r25	; 0x03
    5eea:	ce 01       	movw	r24, r28
    5eec:	b9 01       	movw	r22, r18
    5eee:	0e 94 25 4b 	call	0x964a	; 0x964a <__divmodhi4>
    5ef2:	66 83       	std	Z+6, r22	; 0x06
    5ef4:	77 83       	std	Z+7, r23	; 0x07
    5ef6:	dd 23       	and	r29, r29
    5ef8:	4c f4       	brge	.+18     	; 0x5f0c <ucg_ccs_init+0x4a>
    5efa:	d1 95       	neg	r29
    5efc:	c1 95       	neg	r28
    5efe:	d1 09       	sbc	r29, r1
    5f00:	c4 83       	std	Z+4, r28	; 0x04
    5f02:	d5 83       	std	Z+5, r29	; 0x05
    5f04:	8f ef       	ldi	r24, 0xFF	; 255
    5f06:	9f ef       	ldi	r25, 0xFF	; 255
    5f08:	82 83       	std	Z+2, r24	; 0x02
    5f0a:	93 83       	std	Z+3, r25	; 0x03
    5f0c:	84 81       	ldd	r24, Z+4	; 0x04
    5f0e:	95 81       	ldd	r25, Z+5	; 0x05
    5f10:	b9 01       	movw	r22, r18
    5f12:	0e 94 25 4b 	call	0x964a	; 0x964a <__divmodhi4>
    5f16:	82 87       	std	Z+10, r24	; 0x0a
    5f18:	93 87       	std	Z+11, r25	; 0x0b
    5f1a:	c9 01       	movw	r24, r18
    5f1c:	99 23       	and	r25, r25
    5f1e:	0c f4       	brge	.+2      	; 0x5f22 <ucg_ccs_init+0x60>
    5f20:	01 96       	adiw	r24, 0x01	; 1
    5f22:	95 95       	asr	r25
    5f24:	87 95       	ror	r24
    5f26:	84 87       	std	Z+12, r24	; 0x0c
    5f28:	95 87       	std	Z+13, r25	; 0x0d
    5f2a:	10 83       	st	Z, r17
    5f2c:	df 91       	pop	r29
    5f2e:	cf 91       	pop	r28
    5f30:	1f 91       	pop	r17
    5f32:	08 95       	ret

00005f34 <ucg_ccs_step>:
    5f34:	fc 01       	movw	r30, r24
    5f36:	20 81       	ld	r18, Z
    5f38:	86 81       	ldd	r24, Z+6	; 0x06
    5f3a:	28 0f       	add	r18, r24
    5f3c:	20 83       	st	Z, r18
    5f3e:	44 85       	ldd	r20, Z+12	; 0x0c
    5f40:	55 85       	ldd	r21, Z+13	; 0x0d
    5f42:	82 85       	ldd	r24, Z+10	; 0x0a
    5f44:	93 85       	ldd	r25, Z+11	; 0x0b
    5f46:	84 0f       	add	r24, r20
    5f48:	95 1f       	adc	r25, r21
    5f4a:	84 87       	std	Z+12, r24	; 0x0c
    5f4c:	95 87       	std	Z+13, r25	; 0x0d
    5f4e:	40 85       	ldd	r20, Z+8	; 0x08
    5f50:	51 85       	ldd	r21, Z+9	; 0x09
    5f52:	84 17       	cp	r24, r20
    5f54:	95 07       	cpc	r25, r21
    5f56:	3c f0       	brlt	.+14     	; 0x5f66 <ucg_ccs_step+0x32>
    5f58:	32 81       	ldd	r19, Z+2	; 0x02
    5f5a:	23 0f       	add	r18, r19
    5f5c:	20 83       	st	Z, r18
    5f5e:	84 1b       	sub	r24, r20
    5f60:	95 0b       	sbc	r25, r21
    5f62:	84 87       	std	Z+12, r24	; 0x0c
    5f64:	95 87       	std	Z+13, r25	; 0x0d
    5f66:	08 95       	ret

00005f68 <ucg_ccs_seek>:
    5f68:	cf 93       	push	r28
    5f6a:	df 93       	push	r29
    5f6c:	fc 01       	movw	r30, r24
    5f6e:	46 81       	ldd	r20, Z+6	; 0x06
    5f70:	46 9f       	mul	r20, r22
    5f72:	40 2d       	mov	r20, r0
    5f74:	11 24       	eor	r1, r1
    5f76:	40 83       	st	Z, r20
    5f78:	c0 85       	ldd	r28, Z+8	; 0x08
    5f7a:	d1 85       	ldd	r29, Z+9	; 0x09
    5f7c:	82 85       	ldd	r24, Z+10	; 0x0a
    5f7e:	93 85       	ldd	r25, Z+11	; 0x0b
    5f80:	68 9f       	mul	r22, r24
    5f82:	90 01       	movw	r18, r0
    5f84:	69 9f       	mul	r22, r25
    5f86:	30 0d       	add	r19, r0
    5f88:	78 9f       	mul	r23, r24
    5f8a:	30 0d       	add	r19, r0
    5f8c:	11 24       	eor	r1, r1
    5f8e:	ce 01       	movw	r24, r28
    5f90:	dd 23       	and	r29, r29
    5f92:	0c f4       	brge	.+2      	; 0x5f96 <ucg_ccs_seek+0x2e>
    5f94:	01 96       	adiw	r24, 0x01	; 1
    5f96:	95 95       	asr	r25
    5f98:	87 95       	ror	r24
    5f9a:	28 0f       	add	r18, r24
    5f9c:	39 1f       	adc	r19, r25
    5f9e:	82 81       	ldd	r24, Z+2	; 0x02
    5fa0:	93 81       	ldd	r25, Z+3	; 0x03
    5fa2:	99 23       	and	r25, r25
    5fa4:	3c f0       	brlt	.+14     	; 0x5fb4 <ucg_ccs_seek+0x4c>
    5fa6:	c9 01       	movw	r24, r18
    5fa8:	be 01       	movw	r22, r28
    5faa:	0e 94 25 4b 	call	0x964a	; 0x964a <__divmodhi4>
    5fae:	46 0f       	add	r20, r22
    5fb0:	40 83       	st	Z, r20
    5fb2:	06 c0       	rjmp	.+12     	; 0x5fc0 <ucg_ccs_seek+0x58>
    5fb4:	c9 01       	movw	r24, r18
    5fb6:	be 01       	movw	r22, r28
    5fb8:	0e 94 25 4b 	call	0x964a	; 0x964a <__divmodhi4>
    5fbc:	46 1b       	sub	r20, r22
    5fbe:	40 83       	st	Z, r20
    5fc0:	c9 01       	movw	r24, r18
    5fc2:	be 01       	movw	r22, r28
    5fc4:	0e 94 25 4b 	call	0x964a	; 0x964a <__divmodhi4>
    5fc8:	84 87       	std	Z+12, r24	; 0x0c
    5fca:	95 87       	std	Z+13, r25	; 0x0d
    5fcc:	90 81       	ld	r25, Z
    5fce:	81 81       	ldd	r24, Z+1	; 0x01
    5fd0:	89 0f       	add	r24, r25
    5fd2:	80 83       	st	Z, r24
    5fd4:	df 91       	pop	r29
    5fd6:	cf 91       	pop	r28
    5fd8:	08 95       	ret

00005fda <ucg_clip_is_x_visible>:
    5fda:	fc 01       	movw	r30, r24
    5fdc:	23 89       	ldd	r18, Z+19	; 0x13
    5fde:	34 89       	ldd	r19, Z+20	; 0x14
    5fe0:	e4 5a       	subi	r30, 0xA4	; 164
    5fe2:	ff 4f       	sbci	r31, 0xFF	; 255
    5fe4:	40 81       	ld	r20, Z
    5fe6:	51 81       	ldd	r21, Z+1	; 0x01
    5fe8:	24 1b       	sub	r18, r20
    5fea:	35 0b       	sbc	r19, r21
    5fec:	52 f0       	brmi	.+20     	; 0x6002 <__stack+0x3>
    5fee:	34 96       	adiw	r30, 0x04	; 4
    5ff0:	81 e0       	ldi	r24, 0x01	; 1
    5ff2:	90 e0       	ldi	r25, 0x00	; 0
    5ff4:	40 81       	ld	r20, Z
    5ff6:	51 81       	ldd	r21, Z+1	; 0x01
    5ff8:	24 17       	cp	r18, r20
    5ffa:	35 07       	cpc	r19, r21
    5ffc:	24 f0       	brlt	.+8      	; 0x6006 <__stack+0x7>
    5ffe:	80 e0       	ldi	r24, 0x00	; 0
    6000:	08 95       	ret
    6002:	80 e0       	ldi	r24, 0x00	; 0
    6004:	90 e0       	ldi	r25, 0x00	; 0
    6006:	08 95       	ret

00006008 <ucg_clip_is_y_visible>:
    6008:	fc 01       	movw	r30, r24
    600a:	25 89       	ldd	r18, Z+21	; 0x15
    600c:	36 89       	ldd	r19, Z+22	; 0x16
    600e:	e2 5a       	subi	r30, 0xA2	; 162
    6010:	ff 4f       	sbci	r31, 0xFF	; 255
    6012:	40 81       	ld	r20, Z
    6014:	51 81       	ldd	r21, Z+1	; 0x01
    6016:	24 1b       	sub	r18, r20
    6018:	35 0b       	sbc	r19, r21
    601a:	52 f0       	brmi	.+20     	; 0x6030 <ucg_clip_is_y_visible+0x28>
    601c:	34 96       	adiw	r30, 0x04	; 4
    601e:	81 e0       	ldi	r24, 0x01	; 1
    6020:	90 e0       	ldi	r25, 0x00	; 0
    6022:	40 81       	ld	r20, Z
    6024:	51 81       	ldd	r21, Z+1	; 0x01
    6026:	24 17       	cp	r18, r20
    6028:	35 07       	cpc	r19, r21
    602a:	24 f0       	brlt	.+8      	; 0x6034 <ucg_clip_is_y_visible+0x2c>
    602c:	80 e0       	ldi	r24, 0x00	; 0
    602e:	08 95       	ret
    6030:	80 e0       	ldi	r24, 0x00	; 0
    6032:	90 e0       	ldi	r25, 0x00	; 0
    6034:	08 95       	ret

00006036 <ucg_clip_intersection>:
    6036:	cf 93       	push	r28
    6038:	df 93       	push	r29
    603a:	dc 01       	movw	r26, r24
    603c:	ed 91       	ld	r30, X+
    603e:	fc 91       	ld	r31, X
    6040:	e2 17       	cp	r30, r18
    6042:	f3 07       	cpc	r31, r19
    6044:	ac f4       	brge	.+42     	; 0x6070 <ucg_clip_intersection+0x3a>
    6046:	eb 01       	movw	r28, r22
    6048:	a8 81       	ld	r26, Y
    604a:	b9 81       	ldd	r27, Y+1	; 0x01
    604c:	4a 17       	cp	r20, r26
    604e:	5b 07       	cpc	r21, r27
    6050:	94 f4       	brge	.+36     	; 0x6076 <ucg_clip_intersection+0x40>
    6052:	e4 17       	cp	r30, r20
    6054:	f5 07       	cpc	r31, r21
    6056:	1c f4       	brge	.+6      	; 0x605e <ucg_clip_intersection+0x28>
    6058:	fc 01       	movw	r30, r24
    605a:	40 83       	st	Z, r20
    605c:	51 83       	std	Z+1, r21	; 0x01
    605e:	2a 17       	cp	r18, r26
    6060:	3b 07       	cpc	r19, r27
    6062:	64 f4       	brge	.+24     	; 0x607c <ucg_clip_intersection+0x46>
    6064:	db 01       	movw	r26, r22
    6066:	2d 93       	st	X+, r18
    6068:	3c 93       	st	X, r19
    606a:	81 e0       	ldi	r24, 0x01	; 1
    606c:	90 e0       	ldi	r25, 0x00	; 0
    606e:	08 c0       	rjmp	.+16     	; 0x6080 <ucg_clip_intersection+0x4a>
    6070:	80 e0       	ldi	r24, 0x00	; 0
    6072:	90 e0       	ldi	r25, 0x00	; 0
    6074:	05 c0       	rjmp	.+10     	; 0x6080 <ucg_clip_intersection+0x4a>
    6076:	80 e0       	ldi	r24, 0x00	; 0
    6078:	90 e0       	ldi	r25, 0x00	; 0
    607a:	02 c0       	rjmp	.+4      	; 0x6080 <ucg_clip_intersection+0x4a>
    607c:	81 e0       	ldi	r24, 0x01	; 1
    607e:	90 e0       	ldi	r25, 0x00	; 0
    6080:	df 91       	pop	r29
    6082:	cf 91       	pop	r28
    6084:	08 95       	ret

00006086 <ucg_clip_is_pixel_visible>:
    6086:	cf 93       	push	r28
    6088:	df 93       	push	r29
    608a:	ec 01       	movw	r28, r24
    608c:	0e 94 ed 2f 	call	0x5fda	; 0x5fda <ucg_clip_is_x_visible>
    6090:	00 97       	sbiw	r24, 0x00	; 0
    6092:	51 f0       	breq	.+20     	; 0x60a8 <ucg_clip_is_pixel_visible+0x22>
    6094:	ce 01       	movw	r24, r28
    6096:	0e 94 04 30 	call	0x6008	; 0x6008 <ucg_clip_is_y_visible>
    609a:	31 e0       	ldi	r19, 0x01	; 1
    609c:	20 e0       	ldi	r18, 0x00	; 0
    609e:	89 2b       	or	r24, r25
    60a0:	09 f4       	brne	.+2      	; 0x60a4 <ucg_clip_is_pixel_visible+0x1e>
    60a2:	30 e0       	ldi	r19, 0x00	; 0
    60a4:	83 2f       	mov	r24, r19
    60a6:	92 2f       	mov	r25, r18
    60a8:	df 91       	pop	r29
    60aa:	cf 91       	pop	r28
    60ac:	08 95       	ret

000060ae <ucg_clip_l90fx>:
    60ae:	ef 92       	push	r14
    60b0:	ff 92       	push	r15
    60b2:	0f 93       	push	r16
    60b4:	1f 93       	push	r17
    60b6:	cf 93       	push	r28
    60b8:	df 93       	push	r29
    60ba:	00 d0       	rcall	.+0      	; 0x60bc <ucg_clip_l90fx+0xe>
    60bc:	1f 92       	push	r1
    60be:	cd b7       	in	r28, 0x3d	; 61
    60c0:	de b7       	in	r29, 0x3e	; 62
    60c2:	8c 01       	movw	r16, r24
    60c4:	fc 01       	movw	r30, r24
    60c6:	16 8e       	std	Z+30, r1	; 0x1e
    60c8:	17 8e       	std	Z+31, r1	; 0x1f
    60ca:	e4 8c       	ldd	r14, Z+28	; 0x1c
    60cc:	f5 8c       	ldd	r15, Z+29	; 0x1d
    60ce:	f1 e0       	ldi	r31, 0x01	; 1
    60d0:	ef 16       	cp	r14, r31
    60d2:	f1 04       	cpc	r15, r1
    60d4:	09 f4       	brne	.+2      	; 0x60d8 <ucg_clip_l90fx+0x2a>
    60d6:	47 c0       	rjmp	.+142    	; 0x6166 <ucg_clip_l90fx+0xb8>
    60d8:	1c f4       	brge	.+6      	; 0x60e0 <ucg_clip_l90fx+0x32>
    60da:	ef 28       	or	r14, r15
    60dc:	61 f0       	breq	.+24     	; 0x60f6 <ucg_clip_l90fx+0x48>
    60de:	ed c0       	rjmp	.+474    	; 0x62ba <ucg_clip_l90fx+0x20c>
    60e0:	52 e0       	ldi	r21, 0x02	; 2
    60e2:	e5 16       	cp	r14, r21
    60e4:	f1 04       	cpc	r15, r1
    60e6:	09 f4       	brne	.+2      	; 0x60ea <ucg_clip_l90fx+0x3c>
    60e8:	75 c0       	rjmp	.+234    	; 0x61d4 <ucg_clip_l90fx+0x126>
    60ea:	83 e0       	ldi	r24, 0x03	; 3
    60ec:	e8 16       	cp	r14, r24
    60ee:	f1 04       	cpc	r15, r1
    60f0:	09 f4       	brne	.+2      	; 0x60f4 <ucg_clip_l90fx+0x46>
    60f2:	aa c0       	rjmp	.+340    	; 0x6248 <ucg_clip_l90fx+0x19a>
    60f4:	e2 c0       	rjmp	.+452    	; 0x62ba <ucg_clip_l90fx+0x20c>
    60f6:	0e 94 04 30 	call	0x6008	; 0x6008 <ucg_clip_is_y_visible>
    60fa:	00 97       	sbiw	r24, 0x00	; 0
    60fc:	09 f4       	brne	.+2      	; 0x6100 <ucg_clip_l90fx+0x52>
    60fe:	df c0       	rjmp	.+446    	; 0x62be <ucg_clip_l90fx+0x210>
    6100:	f8 01       	movw	r30, r16
    6102:	83 89       	ldd	r24, Z+19	; 0x13
    6104:	94 89       	ldd	r25, Z+20	; 0x14
    6106:	89 83       	std	Y+1, r24	; 0x01
    6108:	9a 83       	std	Y+2, r25	; 0x02
    610a:	22 8d       	ldd	r18, Z+26	; 0x1a
    610c:	33 8d       	ldd	r19, Z+27	; 0x1b
    610e:	82 0f       	add	r24, r18
    6110:	93 1f       	adc	r25, r19
    6112:	8b 83       	std	Y+3, r24	; 0x03
    6114:	9c 83       	std	Y+4, r25	; 0x04
    6116:	e4 5a       	subi	r30, 0xA4	; 164
    6118:	ff 4f       	sbci	r31, 0xFF	; 255
    611a:	40 81       	ld	r20, Z
    611c:	51 81       	ldd	r21, Z+1	; 0x01
    611e:	34 96       	adiw	r30, 0x04	; 4
    6120:	20 81       	ld	r18, Z
    6122:	31 81       	ldd	r19, Z+1	; 0x01
    6124:	24 0f       	add	r18, r20
    6126:	35 1f       	adc	r19, r21
    6128:	be 01       	movw	r22, r28
    612a:	6d 5f       	subi	r22, 0xFD	; 253
    612c:	7f 4f       	sbci	r23, 0xFF	; 255
    612e:	ce 01       	movw	r24, r28
    6130:	01 96       	adiw	r24, 0x01	; 1
    6132:	0e 94 1b 30 	call	0x6036	; 0x6036 <ucg_clip_intersection>
    6136:	00 97       	sbiw	r24, 0x00	; 0
    6138:	09 f4       	brne	.+2      	; 0x613c <ucg_clip_l90fx+0x8e>
    613a:	c1 c0       	rjmp	.+386    	; 0x62be <ucg_clip_l90fx+0x210>
    613c:	29 81       	ldd	r18, Y+1	; 0x01
    613e:	3a 81       	ldd	r19, Y+2	; 0x02
    6140:	f8 01       	movw	r30, r16
    6142:	83 89       	ldd	r24, Z+19	; 0x13
    6144:	94 89       	ldd	r25, Z+20	; 0x14
    6146:	a9 01       	movw	r20, r18
    6148:	48 1b       	sub	r20, r24
    614a:	59 0b       	sbc	r21, r25
    614c:	46 8f       	std	Z+30, r20	; 0x1e
    614e:	57 8f       	std	Z+31, r21	; 0x1f
    6150:	23 8b       	std	Z+19, r18	; 0x13
    6152:	34 8b       	std	Z+20, r19	; 0x14
    6154:	8b 81       	ldd	r24, Y+3	; 0x03
    6156:	9c 81       	ldd	r25, Y+4	; 0x04
    6158:	82 1b       	sub	r24, r18
    615a:	93 0b       	sbc	r25, r19
    615c:	82 8f       	std	Z+26, r24	; 0x1a
    615e:	93 8f       	std	Z+27, r25	; 0x1b
    6160:	81 e0       	ldi	r24, 0x01	; 1
    6162:	90 e0       	ldi	r25, 0x00	; 0
    6164:	ac c0       	rjmp	.+344    	; 0x62be <ucg_clip_l90fx+0x210>
    6166:	0e 94 ed 2f 	call	0x5fda	; 0x5fda <ucg_clip_is_x_visible>
    616a:	00 97       	sbiw	r24, 0x00	; 0
    616c:	09 f4       	brne	.+2      	; 0x6170 <ucg_clip_l90fx+0xc2>
    616e:	a7 c0       	rjmp	.+334    	; 0x62be <ucg_clip_l90fx+0x210>
    6170:	f8 01       	movw	r30, r16
    6172:	85 89       	ldd	r24, Z+21	; 0x15
    6174:	96 89       	ldd	r25, Z+22	; 0x16
    6176:	89 83       	std	Y+1, r24	; 0x01
    6178:	9a 83       	std	Y+2, r25	; 0x02
    617a:	22 8d       	ldd	r18, Z+26	; 0x1a
    617c:	33 8d       	ldd	r19, Z+27	; 0x1b
    617e:	82 0f       	add	r24, r18
    6180:	93 1f       	adc	r25, r19
    6182:	8b 83       	std	Y+3, r24	; 0x03
    6184:	9c 83       	std	Y+4, r25	; 0x04
    6186:	e2 5a       	subi	r30, 0xA2	; 162
    6188:	ff 4f       	sbci	r31, 0xFF	; 255
    618a:	40 81       	ld	r20, Z
    618c:	51 81       	ldd	r21, Z+1	; 0x01
    618e:	34 96       	adiw	r30, 0x04	; 4
    6190:	20 81       	ld	r18, Z
    6192:	31 81       	ldd	r19, Z+1	; 0x01
    6194:	24 0f       	add	r18, r20
    6196:	35 1f       	adc	r19, r21
    6198:	be 01       	movw	r22, r28
    619a:	6d 5f       	subi	r22, 0xFD	; 253
    619c:	7f 4f       	sbci	r23, 0xFF	; 255
    619e:	ce 01       	movw	r24, r28
    61a0:	01 96       	adiw	r24, 0x01	; 1
    61a2:	0e 94 1b 30 	call	0x6036	; 0x6036 <ucg_clip_intersection>
    61a6:	00 97       	sbiw	r24, 0x00	; 0
    61a8:	09 f4       	brne	.+2      	; 0x61ac <ucg_clip_l90fx+0xfe>
    61aa:	89 c0       	rjmp	.+274    	; 0x62be <ucg_clip_l90fx+0x210>
    61ac:	29 81       	ldd	r18, Y+1	; 0x01
    61ae:	3a 81       	ldd	r19, Y+2	; 0x02
    61b0:	f8 01       	movw	r30, r16
    61b2:	85 89       	ldd	r24, Z+21	; 0x15
    61b4:	96 89       	ldd	r25, Z+22	; 0x16
    61b6:	a9 01       	movw	r20, r18
    61b8:	48 1b       	sub	r20, r24
    61ba:	59 0b       	sbc	r21, r25
    61bc:	46 8f       	std	Z+30, r20	; 0x1e
    61be:	57 8f       	std	Z+31, r21	; 0x1f
    61c0:	25 8b       	std	Z+21, r18	; 0x15
    61c2:	36 8b       	std	Z+22, r19	; 0x16
    61c4:	8b 81       	ldd	r24, Y+3	; 0x03
    61c6:	9c 81       	ldd	r25, Y+4	; 0x04
    61c8:	82 1b       	sub	r24, r18
    61ca:	93 0b       	sbc	r25, r19
    61cc:	82 8f       	std	Z+26, r24	; 0x1a
    61ce:	93 8f       	std	Z+27, r25	; 0x1b
    61d0:	c7 01       	movw	r24, r14
    61d2:	75 c0       	rjmp	.+234    	; 0x62be <ucg_clip_l90fx+0x210>
    61d4:	0e 94 04 30 	call	0x6008	; 0x6008 <ucg_clip_is_y_visible>
    61d8:	00 97       	sbiw	r24, 0x00	; 0
    61da:	09 f4       	brne	.+2      	; 0x61de <ucg_clip_l90fx+0x130>
    61dc:	70 c0       	rjmp	.+224    	; 0x62be <ucg_clip_l90fx+0x210>
    61de:	f8 01       	movw	r30, r16
    61e0:	83 89       	ldd	r24, Z+19	; 0x13
    61e2:	94 89       	ldd	r25, Z+20	; 0x14
    61e4:	01 96       	adiw	r24, 0x01	; 1
    61e6:	8b 83       	std	Y+3, r24	; 0x03
    61e8:	9c 83       	std	Y+4, r25	; 0x04
    61ea:	22 8d       	ldd	r18, Z+26	; 0x1a
    61ec:	33 8d       	ldd	r19, Z+27	; 0x1b
    61ee:	82 1b       	sub	r24, r18
    61f0:	93 0b       	sbc	r25, r19
    61f2:	89 83       	std	Y+1, r24	; 0x01
    61f4:	9a 83       	std	Y+2, r25	; 0x02
    61f6:	e4 5a       	subi	r30, 0xA4	; 164
    61f8:	ff 4f       	sbci	r31, 0xFF	; 255
    61fa:	40 81       	ld	r20, Z
    61fc:	51 81       	ldd	r21, Z+1	; 0x01
    61fe:	34 96       	adiw	r30, 0x04	; 4
    6200:	20 81       	ld	r18, Z
    6202:	31 81       	ldd	r19, Z+1	; 0x01
    6204:	24 0f       	add	r18, r20
    6206:	35 1f       	adc	r19, r21
    6208:	be 01       	movw	r22, r28
    620a:	6d 5f       	subi	r22, 0xFD	; 253
    620c:	7f 4f       	sbci	r23, 0xFF	; 255
    620e:	ce 01       	movw	r24, r28
    6210:	01 96       	adiw	r24, 0x01	; 1
    6212:	0e 94 1b 30 	call	0x6036	; 0x6036 <ucg_clip_intersection>
    6216:	00 97       	sbiw	r24, 0x00	; 0
    6218:	09 f4       	brne	.+2      	; 0x621c <ucg_clip_l90fx+0x16e>
    621a:	51 c0       	rjmp	.+162    	; 0x62be <ucg_clip_l90fx+0x210>
    621c:	8b 81       	ldd	r24, Y+3	; 0x03
    621e:	9c 81       	ldd	r25, Y+4	; 0x04
    6220:	29 81       	ldd	r18, Y+1	; 0x01
    6222:	3a 81       	ldd	r19, Y+2	; 0x02
    6224:	ac 01       	movw	r20, r24
    6226:	42 1b       	sub	r20, r18
    6228:	53 0b       	sbc	r21, r19
    622a:	f8 01       	movw	r30, r16
    622c:	42 8f       	std	Z+26, r20	; 0x1a
    622e:	53 8f       	std	Z+27, r21	; 0x1b
    6230:	01 97       	sbiw	r24, 0x01	; 1
    6232:	23 89       	ldd	r18, Z+19	; 0x13
    6234:	34 89       	ldd	r19, Z+20	; 0x14
    6236:	28 1b       	sub	r18, r24
    6238:	39 0b       	sbc	r19, r25
    623a:	26 8f       	std	Z+30, r18	; 0x1e
    623c:	37 8f       	std	Z+31, r19	; 0x1f
    623e:	83 8b       	std	Z+19, r24	; 0x13
    6240:	94 8b       	std	Z+20, r25	; 0x14
    6242:	81 e0       	ldi	r24, 0x01	; 1
    6244:	90 e0       	ldi	r25, 0x00	; 0
    6246:	3b c0       	rjmp	.+118    	; 0x62be <ucg_clip_l90fx+0x210>
    6248:	c8 01       	movw	r24, r16
    624a:	0e 94 ed 2f 	call	0x5fda	; 0x5fda <ucg_clip_is_x_visible>
    624e:	00 97       	sbiw	r24, 0x00	; 0
    6250:	b1 f1       	breq	.+108    	; 0x62be <ucg_clip_l90fx+0x210>
    6252:	f8 01       	movw	r30, r16
    6254:	85 89       	ldd	r24, Z+21	; 0x15
    6256:	96 89       	ldd	r25, Z+22	; 0x16
    6258:	01 96       	adiw	r24, 0x01	; 1
    625a:	8b 83       	std	Y+3, r24	; 0x03
    625c:	9c 83       	std	Y+4, r25	; 0x04
    625e:	22 8d       	ldd	r18, Z+26	; 0x1a
    6260:	33 8d       	ldd	r19, Z+27	; 0x1b
    6262:	82 1b       	sub	r24, r18
    6264:	93 0b       	sbc	r25, r19
    6266:	89 83       	std	Y+1, r24	; 0x01
    6268:	9a 83       	std	Y+2, r25	; 0x02
    626a:	e2 5a       	subi	r30, 0xA2	; 162
    626c:	ff 4f       	sbci	r31, 0xFF	; 255
    626e:	40 81       	ld	r20, Z
    6270:	51 81       	ldd	r21, Z+1	; 0x01
    6272:	34 96       	adiw	r30, 0x04	; 4
    6274:	20 81       	ld	r18, Z
    6276:	31 81       	ldd	r19, Z+1	; 0x01
    6278:	24 0f       	add	r18, r20
    627a:	35 1f       	adc	r19, r21
    627c:	be 01       	movw	r22, r28
    627e:	6d 5f       	subi	r22, 0xFD	; 253
    6280:	7f 4f       	sbci	r23, 0xFF	; 255
    6282:	ce 01       	movw	r24, r28
    6284:	01 96       	adiw	r24, 0x01	; 1
    6286:	0e 94 1b 30 	call	0x6036	; 0x6036 <ucg_clip_intersection>
    628a:	00 97       	sbiw	r24, 0x00	; 0
    628c:	c1 f0       	breq	.+48     	; 0x62be <ucg_clip_l90fx+0x210>
    628e:	8b 81       	ldd	r24, Y+3	; 0x03
    6290:	9c 81       	ldd	r25, Y+4	; 0x04
    6292:	29 81       	ldd	r18, Y+1	; 0x01
    6294:	3a 81       	ldd	r19, Y+2	; 0x02
    6296:	ac 01       	movw	r20, r24
    6298:	42 1b       	sub	r20, r18
    629a:	53 0b       	sbc	r21, r19
    629c:	f8 01       	movw	r30, r16
    629e:	42 8f       	std	Z+26, r20	; 0x1a
    62a0:	53 8f       	std	Z+27, r21	; 0x1b
    62a2:	01 97       	sbiw	r24, 0x01	; 1
    62a4:	25 89       	ldd	r18, Z+21	; 0x15
    62a6:	36 89       	ldd	r19, Z+22	; 0x16
    62a8:	28 1b       	sub	r18, r24
    62aa:	39 0b       	sbc	r19, r25
    62ac:	26 8f       	std	Z+30, r18	; 0x1e
    62ae:	37 8f       	std	Z+31, r19	; 0x1f
    62b0:	85 8b       	std	Z+21, r24	; 0x15
    62b2:	96 8b       	std	Z+22, r25	; 0x16
    62b4:	81 e0       	ldi	r24, 0x01	; 1
    62b6:	90 e0       	ldi	r25, 0x00	; 0
    62b8:	02 c0       	rjmp	.+4      	; 0x62be <ucg_clip_l90fx+0x210>
    62ba:	81 e0       	ldi	r24, 0x01	; 1
    62bc:	90 e0       	ldi	r25, 0x00	; 0
    62be:	24 96       	adiw	r28, 0x04	; 4
    62c0:	cd bf       	out	0x3d, r28	; 61
    62c2:	de bf       	out	0x3e, r29	; 62
    62c4:	df 91       	pop	r29
    62c6:	cf 91       	pop	r28
    62c8:	1f 91       	pop	r17
    62ca:	0f 91       	pop	r16
    62cc:	ff 90       	pop	r15
    62ce:	ef 90       	pop	r14
    62d0:	08 95       	ret

000062d2 <ucg_clip_l90se>:
    62d2:	ef 92       	push	r14
    62d4:	ff 92       	push	r15
    62d6:	0f 93       	push	r16
    62d8:	1f 93       	push	r17
    62da:	cf 93       	push	r28
    62dc:	df 93       	push	r29
    62de:	8c 01       	movw	r16, r24
    62e0:	0e 94 57 30 	call	0x60ae	; 0x60ae <ucg_clip_l90fx>
    62e4:	00 97       	sbiw	r24, 0x00	; 0
    62e6:	91 f0       	breq	.+36     	; 0x630c <ucg_clip_l90se+0x3a>
    62e8:	e8 01       	movw	r28, r16
    62ea:	e2 96       	adiw	r28, 0x32	; 50
    62ec:	78 01       	movw	r14, r16
    62ee:	8c e5       	ldi	r24, 0x5C	; 92
    62f0:	e8 0e       	add	r14, r24
    62f2:	f1 1c       	adc	r15, r1
    62f4:	f8 01       	movw	r30, r16
    62f6:	66 8d       	ldd	r22, Z+30	; 0x1e
    62f8:	77 8d       	ldd	r23, Z+31	; 0x1f
    62fa:	ce 01       	movw	r24, r28
    62fc:	0e 94 b4 2f 	call	0x5f68	; 0x5f68 <ucg_ccs_seek>
    6300:	2e 96       	adiw	r28, 0x0e	; 14
    6302:	ce 15       	cp	r28, r14
    6304:	df 05       	cpc	r29, r15
    6306:	b1 f7       	brne	.-20     	; 0x62f4 <ucg_clip_l90se+0x22>
    6308:	81 e0       	ldi	r24, 0x01	; 1
    630a:	90 e0       	ldi	r25, 0x00	; 0
    630c:	df 91       	pop	r29
    630e:	cf 91       	pop	r28
    6310:	1f 91       	pop	r17
    6312:	0f 91       	pop	r16
    6314:	ff 90       	pop	r15
    6316:	ef 90       	pop	r14
    6318:	08 95       	ret

0000631a <ucg_com_PowerDown>:
    631a:	cf 93       	push	r28
    631c:	df 93       	push	r29
    631e:	ec 01       	movw	r28, r24
    6320:	fc 01       	movw	r30, r24
    6322:	ed 56       	subi	r30, 0x6D	; 109
    6324:	ff 4f       	sbci	r31, 0xFF	; 255
    6326:	80 81       	ld	r24, Z
    6328:	83 ff       	sbrs	r24, 3
    632a:	0a c0       	rjmp	.+20     	; 0x6340 <ucg_com_PowerDown+0x26>
    632c:	e9 89       	ldd	r30, Y+17	; 0x11
    632e:	fa 89       	ldd	r31, Y+18	; 0x12
    6330:	20 e0       	ldi	r18, 0x00	; 0
    6332:	30 e0       	ldi	r19, 0x00	; 0
    6334:	40 e0       	ldi	r20, 0x00	; 0
    6336:	50 e0       	ldi	r21, 0x00	; 0
    6338:	6b e0       	ldi	r22, 0x0B	; 11
    633a:	70 e0       	ldi	r23, 0x00	; 0
    633c:	ce 01       	movw	r24, r28
    633e:	19 95       	eicall
    6340:	cd 56       	subi	r28, 0x6D	; 109
    6342:	df 4f       	sbci	r29, 0xFF	; 255
    6344:	88 81       	ld	r24, Y
    6346:	87 7f       	andi	r24, 0xF7	; 247
    6348:	88 83       	st	Y, r24
    634a:	df 91       	pop	r29
    634c:	cf 91       	pop	r28
    634e:	08 95       	ret

00006350 <ucg_com_PowerUp>:
    6350:	0f 93       	push	r16
    6352:	1f 93       	push	r17
    6354:	cf 93       	push	r28
    6356:	df 93       	push	r29
    6358:	00 d0       	rcall	.+0      	; 0x635a <ucg_com_PowerUp+0xa>
    635a:	1f 92       	push	r1
    635c:	cd b7       	in	r28, 0x3d	; 61
    635e:	de b7       	in	r29, 0x3e	; 62
    6360:	8c 01       	movw	r16, r24
    6362:	69 83       	std	Y+1, r22	; 0x01
    6364:	7a 83       	std	Y+2, r23	; 0x02
    6366:	4b 83       	std	Y+3, r20	; 0x03
    6368:	5c 83       	std	Y+4, r21	; 0x04
    636a:	0e 94 8d 31 	call	0x631a	; 0x631a <ucg_com_PowerDown>
    636e:	f8 01       	movw	r30, r16
    6370:	ee 56       	subi	r30, 0x6E	; 110
    6372:	ff 4f       	sbci	r31, 0xFF	; 255
    6374:	10 82       	st	Z, r1
    6376:	d8 01       	movw	r26, r16
    6378:	51 96       	adiw	r26, 0x11	; 17
    637a:	ed 91       	ld	r30, X+
    637c:	fc 91       	ld	r31, X
    637e:	52 97       	sbiw	r26, 0x12	; 18
    6380:	9e 01       	movw	r18, r28
    6382:	2f 5f       	subi	r18, 0xFF	; 255
    6384:	3f 4f       	sbci	r19, 0xFF	; 255
    6386:	40 e0       	ldi	r20, 0x00	; 0
    6388:	50 e0       	ldi	r21, 0x00	; 0
    638a:	6a e0       	ldi	r22, 0x0A	; 10
    638c:	70 e0       	ldi	r23, 0x00	; 0
    638e:	c8 01       	movw	r24, r16
    6390:	19 95       	eicall
    6392:	00 97       	sbiw	r24, 0x00	; 0
    6394:	31 f0       	breq	.+12     	; 0x63a2 <ucg_com_PowerUp+0x52>
    6396:	f8 01       	movw	r30, r16
    6398:	ed 56       	subi	r30, 0x6D	; 109
    639a:	ff 4f       	sbci	r31, 0xFF	; 255
    639c:	20 81       	ld	r18, Z
    639e:	28 60       	ori	r18, 0x08	; 8
    63a0:	20 83       	st	Z, r18
    63a2:	24 96       	adiw	r28, 0x04	; 4
    63a4:	cd bf       	out	0x3d, r28	; 61
    63a6:	de bf       	out	0x3e, r29	; 62
    63a8:	df 91       	pop	r29
    63aa:	cf 91       	pop	r28
    63ac:	1f 91       	pop	r17
    63ae:	0f 91       	pop	r16
    63b0:	08 95       	ret

000063b2 <ucg_com_SetLineStatus>:
    63b2:	1f 93       	push	r17
    63b4:	cf 93       	push	r28
    63b6:	df 93       	push	r29
    63b8:	ec 01       	movw	r28, r24
    63ba:	14 2f       	mov	r17, r20
    63bc:	61 11       	cpse	r22, r1
    63be:	23 c0       	rjmp	.+70     	; 0x6406 <ucg_com_SetLineStatus+0x54>
    63c0:	fc 01       	movw	r30, r24
    63c2:	ee 56       	subi	r30, 0x6E	; 110
    63c4:	ff 4f       	sbci	r31, 0xFF	; 255
    63c6:	80 81       	ld	r24, Z
    63c8:	84 23       	and	r24, r20
    63ca:	29 f0       	breq	.+10     	; 0x63d6 <ucg_com_SetLineStatus+0x24>
    63cc:	31 96       	adiw	r30, 0x01	; 1
    63ce:	80 81       	ld	r24, Z
    63d0:	84 23       	and	r24, r20
    63d2:	48 13       	cpse	r20, r24
    63d4:	37 c0       	rjmp	.+110    	; 0x6444 <ucg_com_SetLineStatus+0x92>
    63d6:	62 2f       	mov	r22, r18
    63d8:	70 e0       	ldi	r23, 0x00	; 0
    63da:	e9 89       	ldd	r30, Y+17	; 0x11
    63dc:	fa 89       	ldd	r31, Y+18	; 0x12
    63de:	20 e0       	ldi	r18, 0x00	; 0
    63e0:	30 e0       	ldi	r19, 0x00	; 0
    63e2:	40 e0       	ldi	r20, 0x00	; 0
    63e4:	50 e0       	ldi	r21, 0x00	; 0
    63e6:	ce 01       	movw	r24, r28
    63e8:	19 95       	eicall
    63ea:	fe 01       	movw	r30, r28
    63ec:	ed 56       	subi	r30, 0x6D	; 109
    63ee:	ff 4f       	sbci	r31, 0xFF	; 255
    63f0:	81 2f       	mov	r24, r17
    63f2:	80 95       	com	r24
    63f4:	90 81       	ld	r25, Z
    63f6:	89 23       	and	r24, r25
    63f8:	80 83       	st	Z, r24
    63fa:	ce 56       	subi	r28, 0x6E	; 110
    63fc:	df 4f       	sbci	r29, 0xFF	; 255
    63fe:	88 81       	ld	r24, Y
    6400:	18 2b       	or	r17, r24
    6402:	18 83       	st	Y, r17
    6404:	1f c0       	rjmp	.+62     	; 0x6444 <ucg_com_SetLineStatus+0x92>
    6406:	fc 01       	movw	r30, r24
    6408:	ee 56       	subi	r30, 0x6E	; 110
    640a:	ff 4f       	sbci	r31, 0xFF	; 255
    640c:	80 81       	ld	r24, Z
    640e:	84 23       	and	r24, r20
    6410:	21 f0       	breq	.+8      	; 0x641a <ucg_com_SetLineStatus+0x68>
    6412:	31 96       	adiw	r30, 0x01	; 1
    6414:	80 81       	ld	r24, Z
    6416:	84 23       	and	r24, r20
    6418:	a9 f4       	brne	.+42     	; 0x6444 <ucg_com_SetLineStatus+0x92>
    641a:	46 2f       	mov	r20, r22
    641c:	50 e0       	ldi	r21, 0x00	; 0
    641e:	62 2f       	mov	r22, r18
    6420:	70 e0       	ldi	r23, 0x00	; 0
    6422:	e9 89       	ldd	r30, Y+17	; 0x11
    6424:	fa 89       	ldd	r31, Y+18	; 0x12
    6426:	20 e0       	ldi	r18, 0x00	; 0
    6428:	30 e0       	ldi	r19, 0x00	; 0
    642a:	ce 01       	movw	r24, r28
    642c:	19 95       	eicall
    642e:	fe 01       	movw	r30, r28
    6430:	ed 56       	subi	r30, 0x6D	; 109
    6432:	ff 4f       	sbci	r31, 0xFF	; 255
    6434:	80 81       	ld	r24, Z
    6436:	81 2b       	or	r24, r17
    6438:	80 83       	st	Z, r24
    643a:	ce 56       	subi	r28, 0x6E	; 110
    643c:	df 4f       	sbci	r29, 0xFF	; 255
    643e:	88 81       	ld	r24, Y
    6440:	18 2b       	or	r17, r24
    6442:	18 83       	st	Y, r17
    6444:	df 91       	pop	r29
    6446:	cf 91       	pop	r28
    6448:	1f 91       	pop	r17
    644a:	08 95       	ret

0000644c <ucg_com_SetResetLineStatus>:
    644c:	2d e0       	ldi	r18, 0x0D	; 13
    644e:	44 e0       	ldi	r20, 0x04	; 4
    6450:	0e 94 d9 31 	call	0x63b2	; 0x63b2 <ucg_com_SetLineStatus>
    6454:	08 95       	ret

00006456 <ucg_com_SetCSLineStatus>:
    6456:	2e e0       	ldi	r18, 0x0E	; 14
    6458:	42 e0       	ldi	r20, 0x02	; 2
    645a:	0e 94 d9 31 	call	0x63b2	; 0x63b2 <ucg_com_SetLineStatus>
    645e:	08 95       	ret

00006460 <ucg_com_SetCDLineStatus>:
    6460:	2f e0       	ldi	r18, 0x0F	; 15
    6462:	41 e0       	ldi	r20, 0x01	; 1
    6464:	0e 94 d9 31 	call	0x63b2	; 0x63b2 <ucg_com_SetLineStatus>
    6468:	08 95       	ret

0000646a <ucg_com_DelayMicroseconds>:
    646a:	ab 01       	movw	r20, r22
    646c:	dc 01       	movw	r26, r24
    646e:	51 96       	adiw	r26, 0x11	; 17
    6470:	ed 91       	ld	r30, X+
    6472:	fc 91       	ld	r31, X
    6474:	52 97       	sbiw	r26, 0x12	; 18
    6476:	20 e0       	ldi	r18, 0x00	; 0
    6478:	30 e0       	ldi	r19, 0x00	; 0
    647a:	6c e0       	ldi	r22, 0x0C	; 12
    647c:	70 e0       	ldi	r23, 0x00	; 0
    647e:	19 95       	eicall
    6480:	08 95       	ret

00006482 <ucg_com_DelayMilliseconds>:
    6482:	0f 93       	push	r16
    6484:	1f 93       	push	r17
    6486:	cf 93       	push	r28
    6488:	df 93       	push	r29
    648a:	8c 01       	movw	r16, r24
    648c:	eb 01       	movw	r28, r22
    648e:	20 97       	sbiw	r28, 0x00	; 0
    6490:	39 f0       	breq	.+14     	; 0x64a0 <ucg_com_DelayMilliseconds+0x1e>
    6492:	68 ee       	ldi	r22, 0xE8	; 232
    6494:	73 e0       	ldi	r23, 0x03	; 3
    6496:	c8 01       	movw	r24, r16
    6498:	0e 94 35 32 	call	0x646a	; 0x646a <ucg_com_DelayMicroseconds>
    649c:	21 97       	sbiw	r28, 0x01	; 1
    649e:	c9 f7       	brne	.-14     	; 0x6492 <ucg_com_DelayMilliseconds+0x10>
    64a0:	df 91       	pop	r29
    64a2:	cf 91       	pop	r28
    64a4:	1f 91       	pop	r17
    64a6:	0f 91       	pop	r16
    64a8:	08 95       	ret

000064aa <ucg_com_SendByte>:
    64aa:	46 2f       	mov	r20, r22
    64ac:	50 e0       	ldi	r21, 0x00	; 0
    64ae:	dc 01       	movw	r26, r24
    64b0:	51 96       	adiw	r26, 0x11	; 17
    64b2:	ed 91       	ld	r30, X+
    64b4:	fc 91       	ld	r31, X
    64b6:	52 97       	sbiw	r26, 0x12	; 18
    64b8:	20 e0       	ldi	r18, 0x00	; 0
    64ba:	30 e0       	ldi	r19, 0x00	; 0
    64bc:	60 e1       	ldi	r22, 0x10	; 16
    64be:	70 e0       	ldi	r23, 0x00	; 0
    64c0:	19 95       	eicall
    64c2:	08 95       	ret

000064c4 <ucg_com_SendStringP>:
    64c4:	ef 92       	push	r14
    64c6:	ff 92       	push	r15
    64c8:	0f 93       	push	r16
    64ca:	1f 93       	push	r17
    64cc:	cf 93       	push	r28
    64ce:	df 93       	push	r29
    64d0:	7c 01       	movw	r14, r24
    64d2:	eb 01       	movw	r28, r22
    64d4:	8a 01       	movw	r16, r20
    64d6:	20 97       	sbiw	r28, 0x00	; 0
    64d8:	91 f0       	breq	.+36     	; 0x64fe <ucg_com_SendStringP+0x3a>
    64da:	f8 01       	movw	r30, r16
    64dc:	44 91       	lpm	r20, Z
    64de:	50 e0       	ldi	r21, 0x00	; 0
    64e0:	d7 01       	movw	r26, r14
    64e2:	51 96       	adiw	r26, 0x11	; 17
    64e4:	ed 91       	ld	r30, X+
    64e6:	fc 91       	ld	r31, X
    64e8:	52 97       	sbiw	r26, 0x12	; 18
    64ea:	20 e0       	ldi	r18, 0x00	; 0
    64ec:	30 e0       	ldi	r19, 0x00	; 0
    64ee:	60 e1       	ldi	r22, 0x10	; 16
    64f0:	70 e0       	ldi	r23, 0x00	; 0
    64f2:	c7 01       	movw	r24, r14
    64f4:	19 95       	eicall
    64f6:	0f 5f       	subi	r16, 0xFF	; 255
    64f8:	1f 4f       	sbci	r17, 0xFF	; 255
    64fa:	21 97       	sbiw	r28, 0x01	; 1
    64fc:	71 f7       	brne	.-36     	; 0x64da <ucg_com_SendStringP+0x16>
    64fe:	df 91       	pop	r29
    6500:	cf 91       	pop	r28
    6502:	1f 91       	pop	r17
    6504:	0f 91       	pop	r16
    6506:	ff 90       	pop	r15
    6508:	ef 90       	pop	r14
    650a:	08 95       	ret

0000650c <ucg_com_SendCmdSeq>:
    650c:	7f 92       	push	r7
    650e:	8f 92       	push	r8
    6510:	9f 92       	push	r9
    6512:	af 92       	push	r10
    6514:	bf 92       	push	r11
    6516:	cf 92       	push	r12
    6518:	df 92       	push	r13
    651a:	ef 92       	push	r14
    651c:	ff 92       	push	r15
    651e:	0f 93       	push	r16
    6520:	1f 93       	push	r17
    6522:	cf 93       	push	r28
    6524:	df 93       	push	r29
    6526:	7c 01       	movw	r14, r24
    6528:	8b 01       	movw	r16, r22
    652a:	6c 01       	movw	r12, r24
    652c:	84 e9       	ldi	r24, 0x94	; 148
    652e:	c8 0e       	add	r12, r24
    6530:	d1 1c       	adc	r13, r1
    6532:	77 24       	eor	r7, r7
    6534:	73 94       	inc	r7
    6536:	f8 01       	movw	r30, r16
    6538:	64 91       	lpm	r22, Z
    653a:	d6 2f       	mov	r29, r22
    653c:	d2 95       	swap	r29
    653e:	df 70       	andi	r29, 0x0F	; 15
    6540:	c6 2f       	mov	r28, r22
    6542:	cf 70       	andi	r28, 0x0F	; 15
    6544:	8d 2f       	mov	r24, r29
    6546:	90 e0       	ldi	r25, 0x00	; 0
    6548:	fc 01       	movw	r30, r24
    654a:	31 97       	sbiw	r30, 0x01	; 1
    654c:	ef 30       	cpi	r30, 0x0F	; 15
    654e:	f1 05       	cpc	r31, r1
    6550:	08 f0       	brcs	.+2      	; 0x6554 <ucg_com_SendCmdSeq+0x48>
    6552:	c5 c0       	rjmp	.+394    	; 0x66de <ucg_com_SendCmdSeq+0x1d2>
    6554:	88 27       	eor	r24, r24
    6556:	e2 50       	subi	r30, 0x02	; 2
    6558:	ff 4f       	sbci	r31, 0xFF	; 255
    655a:	8f 4f       	sbci	r24, 0xFF	; 255
    655c:	0c 94 5b 4b 	jmp	0x96b6	; 0x96b6 <__tablejump2__>
    6560:	48 01       	movw	r8, r16
    6562:	ff ef       	ldi	r31, 0xFF	; 255
    6564:	8f 1a       	sub	r8, r31
    6566:	9f 0a       	sbc	r9, r31
    6568:	f6 01       	movw	r30, r12
    656a:	60 81       	ld	r22, Z
    656c:	66 95       	lsr	r22
    656e:	61 70       	andi	r22, 0x01	; 1
    6570:	c7 01       	movw	r24, r14
    6572:	0e 94 30 32 	call	0x6460	; 0x6460 <ucg_com_SetCDLineStatus>
    6576:	ad 2e       	mov	r10, r29
    6578:	b1 2c       	mov	r11, r1
    657a:	a4 01       	movw	r20, r8
    657c:	b5 01       	movw	r22, r10
    657e:	c7 01       	movw	r24, r14
    6580:	0e 94 62 32 	call	0x64c4	; 0x64c4 <ucg_com_SendStringP>
    6584:	cc 23       	and	r28, r28
    6586:	71 f0       	breq	.+28     	; 0x65a4 <ucg_com_SendCmdSeq+0x98>
    6588:	a8 0c       	add	r10, r8
    658a:	b9 1c       	adc	r11, r9
    658c:	f6 01       	movw	r30, r12
    658e:	60 81       	ld	r22, Z
    6590:	61 70       	andi	r22, 0x01	; 1
    6592:	c7 01       	movw	r24, r14
    6594:	0e 94 30 32 	call	0x6460	; 0x6460 <ucg_com_SetCDLineStatus>
    6598:	6c 2f       	mov	r22, r28
    659a:	70 e0       	ldi	r23, 0x00	; 0
    659c:	a5 01       	movw	r20, r10
    659e:	c7 01       	movw	r24, r14
    65a0:	0e 94 62 32 	call	0x64c4	; 0x64c4 <ucg_com_SendStringP>
    65a4:	8d 2f       	mov	r24, r29
    65a6:	90 e0       	ldi	r25, 0x00	; 0
    65a8:	01 96       	adiw	r24, 0x01	; 1
    65aa:	8c 0f       	add	r24, r28
    65ac:	91 1d       	adc	r25, r1
    65ae:	08 0f       	add	r16, r24
    65b0:	19 1f       	adc	r17, r25
    65b2:	c1 cf       	rjmp	.-126    	; 0x6536 <ucg_com_SendCmdSeq+0x2a>
    65b4:	f6 01       	movw	r30, r12
    65b6:	60 81       	ld	r22, Z
    65b8:	61 70       	andi	r22, 0x01	; 1
    65ba:	c7 01       	movw	r24, r14
    65bc:	0e 94 30 32 	call	0x6460	; 0x6460 <ucg_com_SetCDLineStatus>
    65c0:	a8 01       	movw	r20, r16
    65c2:	4f 5f       	subi	r20, 0xFF	; 255
    65c4:	5f 4f       	sbci	r21, 0xFF	; 255
    65c6:	d0 e0       	ldi	r29, 0x00	; 0
    65c8:	be 01       	movw	r22, r28
    65ca:	c7 01       	movw	r24, r14
    65cc:	0e 94 62 32 	call	0x64c4	; 0x64c4 <ucg_com_SendStringP>
    65d0:	21 96       	adiw	r28, 0x01	; 1
    65d2:	0c 0f       	add	r16, r28
    65d4:	1d 1f       	adc	r17, r29
    65d6:	af cf       	rjmp	.-162    	; 0x6536 <ucg_com_SendCmdSeq+0x2a>
    65d8:	f6 01       	movw	r30, r12
    65da:	60 81       	ld	r22, Z
    65dc:	66 95       	lsr	r22
    65de:	61 70       	andi	r22, 0x01	; 1
    65e0:	67 25       	eor	r22, r7
    65e2:	c7 01       	movw	r24, r14
    65e4:	0e 94 30 32 	call	0x6460	; 0x6460 <ucg_com_SetCDLineStatus>
    65e8:	cc 23       	and	r28, r28
    65ea:	41 f0       	breq	.+16     	; 0x65fc <ucg_com_SendCmdSeq+0xf0>
    65ec:	6c 2f       	mov	r22, r28
    65ee:	70 e0       	ldi	r23, 0x00	; 0
    65f0:	a8 01       	movw	r20, r16
    65f2:	4f 5f       	subi	r20, 0xFF	; 255
    65f4:	5f 4f       	sbci	r21, 0xFF	; 255
    65f6:	c7 01       	movw	r24, r14
    65f8:	0e 94 62 32 	call	0x64c4	; 0x64c4 <ucg_com_SendStringP>
    65fc:	d0 e0       	ldi	r29, 0x00	; 0
    65fe:	21 96       	adiw	r28, 0x01	; 1
    6600:	0c 0f       	add	r16, r28
    6602:	1d 1f       	adc	r17, r29
    6604:	98 cf       	rjmp	.-208    	; 0x6536 <ucg_com_SendCmdSeq+0x2a>
    6606:	f8 01       	movw	r30, r16
    6608:	31 96       	adiw	r30, 0x01	; 1
    660a:	e4 91       	lpm	r30, Z
    660c:	6c 2f       	mov	r22, r28
    660e:	70 e0       	ldi	r23, 0x00	; 0
    6610:	76 2f       	mov	r23, r22
    6612:	66 27       	eor	r22, r22
    6614:	6e 0f       	add	r22, r30
    6616:	71 1d       	adc	r23, r1
    6618:	c7 01       	movw	r24, r14
    661a:	0e 94 41 32 	call	0x6482	; 0x6482 <ucg_com_DelayMilliseconds>
    661e:	0e 5f       	subi	r16, 0xFE	; 254
    6620:	1f 4f       	sbci	r17, 0xFF	; 255
    6622:	89 cf       	rjmp	.-238    	; 0x6536 <ucg_com_SendCmdSeq+0x2a>
    6624:	f8 01       	movw	r30, r16
    6626:	31 96       	adiw	r30, 0x01	; 1
    6628:	e4 91       	lpm	r30, Z
    662a:	6c 2f       	mov	r22, r28
    662c:	70 e0       	ldi	r23, 0x00	; 0
    662e:	76 2f       	mov	r23, r22
    6630:	66 27       	eor	r22, r22
    6632:	6e 0f       	add	r22, r30
    6634:	71 1d       	adc	r23, r1
    6636:	c7 01       	movw	r24, r14
    6638:	0e 94 35 32 	call	0x646a	; 0x646a <ucg_com_DelayMicroseconds>
    663c:	0e 5f       	subi	r16, 0xFE	; 254
    663e:	1f 4f       	sbci	r17, 0xFF	; 255
    6640:	7a cf       	rjmp	.-268    	; 0x6536 <ucg_com_SendCmdSeq+0x2a>
    6642:	f8 01       	movw	r30, r16
    6644:	31 96       	adiw	r30, 0x01	; 1
    6646:	b4 90       	lpm	r11, Z
    6648:	31 96       	adiw	r30, 0x01	; 1
    664a:	d4 91       	lpm	r29, Z
    664c:	0d 5f       	subi	r16, 0xFD	; 253
    664e:	1f 4f       	sbci	r17, 0xFF	; 255
    6650:	f6 01       	movw	r30, r12
    6652:	60 81       	ld	r22, Z
    6654:	61 70       	andi	r22, 0x01	; 1
    6656:	c7 01       	movw	r24, r14
    6658:	0e 94 30 32 	call	0x6460	; 0x6460 <ucg_com_SetCDLineStatus>
    665c:	f7 01       	movw	r30, r14
    665e:	63 89       	ldd	r22, Z+19	; 0x13
    6660:	74 89       	ldd	r23, Z+20	; 0x14
    6662:	02 c0       	rjmp	.+4      	; 0x6668 <ucg_com_SendCmdSeq+0x15c>
    6664:	75 95       	asr	r23
    6666:	67 95       	ror	r22
    6668:	ca 95       	dec	r28
    666a:	e2 f7       	brpl	.-8      	; 0x6664 <ucg_com_SendCmdSeq+0x158>
    666c:	6b 21       	and	r22, r11
    666e:	6d 2b       	or	r22, r29
    6670:	c7 01       	movw	r24, r14
    6672:	0e 94 55 32 	call	0x64aa	; 0x64aa <ucg_com_SendByte>
    6676:	5f cf       	rjmp	.-322    	; 0x6536 <ucg_com_SendCmdSeq+0x2a>
    6678:	f8 01       	movw	r30, r16
    667a:	31 96       	adiw	r30, 0x01	; 1
    667c:	b4 90       	lpm	r11, Z
    667e:	31 96       	adiw	r30, 0x01	; 1
    6680:	d4 91       	lpm	r29, Z
    6682:	0d 5f       	subi	r16, 0xFD	; 253
    6684:	1f 4f       	sbci	r17, 0xFF	; 255
    6686:	f6 01       	movw	r30, r12
    6688:	60 81       	ld	r22, Z
    668a:	61 70       	andi	r22, 0x01	; 1
    668c:	c7 01       	movw	r24, r14
    668e:	0e 94 30 32 	call	0x6460	; 0x6460 <ucg_com_SetCDLineStatus>
    6692:	f7 01       	movw	r30, r14
    6694:	65 89       	ldd	r22, Z+21	; 0x15
    6696:	76 89       	ldd	r23, Z+22	; 0x16
    6698:	02 c0       	rjmp	.+4      	; 0x669e <ucg_com_SendCmdSeq+0x192>
    669a:	75 95       	asr	r23
    669c:	67 95       	ror	r22
    669e:	ca 95       	dec	r28
    66a0:	e2 f7       	brpl	.-8      	; 0x669a <ucg_com_SendCmdSeq+0x18e>
    66a2:	6b 21       	and	r22, r11
    66a4:	6d 2b       	or	r22, r29
    66a6:	c7 01       	movw	r24, r14
    66a8:	0e 94 55 32 	call	0x64aa	; 0x64aa <ucg_com_SendByte>
    66ac:	44 cf       	rjmp	.-376    	; 0x6536 <ucg_com_SendCmdSeq+0x2a>
    66ae:	c6 95       	lsr	r28
    66b0:	c6 95       	lsr	r28
    66b2:	c1 30       	cpi	r28, 0x01	; 1
    66b4:	49 f0       	breq	.+18     	; 0x66c8 <ucg_com_SendCmdSeq+0x1bc>
    66b6:	18 f0       	brcs	.+6      	; 0x66be <ucg_com_SendCmdSeq+0x1b2>
    66b8:	c3 30       	cpi	r28, 0x03	; 3
    66ba:	59 f0       	breq	.+22     	; 0x66d2 <ucg_com_SendCmdSeq+0x1c6>
    66bc:	0d c0       	rjmp	.+26     	; 0x66d8 <ucg_com_SendCmdSeq+0x1cc>
    66be:	61 70       	andi	r22, 0x01	; 1
    66c0:	c7 01       	movw	r24, r14
    66c2:	0e 94 26 32 	call	0x644c	; 0x644c <ucg_com_SetResetLineStatus>
    66c6:	08 c0       	rjmp	.+16     	; 0x66d8 <ucg_com_SendCmdSeq+0x1cc>
    66c8:	61 70       	andi	r22, 0x01	; 1
    66ca:	c7 01       	movw	r24, r14
    66cc:	0e 94 2b 32 	call	0x6456	; 0x6456 <ucg_com_SetCSLineStatus>
    66d0:	03 c0       	rjmp	.+6      	; 0x66d8 <ucg_com_SendCmdSeq+0x1cc>
    66d2:	63 70       	andi	r22, 0x03	; 3
    66d4:	f6 01       	movw	r30, r12
    66d6:	60 83       	st	Z, r22
    66d8:	0f 5f       	subi	r16, 0xFF	; 255
    66da:	1f 4f       	sbci	r17, 0xFF	; 255
    66dc:	2c cf       	rjmp	.-424    	; 0x6536 <ucg_com_SendCmdSeq+0x2a>
    66de:	df 91       	pop	r29
    66e0:	cf 91       	pop	r28
    66e2:	1f 91       	pop	r17
    66e4:	0f 91       	pop	r16
    66e6:	ff 90       	pop	r15
    66e8:	ef 90       	pop	r14
    66ea:	df 90       	pop	r13
    66ec:	cf 90       	pop	r12
    66ee:	bf 90       	pop	r11
    66f0:	af 90       	pop	r10
    66f2:	9f 90       	pop	r9
    66f4:	8f 90       	pop	r8
    66f6:	7f 90       	pop	r7
    66f8:	08 95       	ret

000066fa <ucg_dev_default_cb>:
    66fa:	6c 30       	cpi	r22, 0x0C	; 12
    66fc:	71 05       	cpc	r23, r1
    66fe:	61 f0       	breq	.+24     	; 0x6718 <ucg_dev_default_cb+0x1e>
    6700:	67 31       	cpi	r22, 0x17	; 23
    6702:	71 05       	cpc	r23, r1
    6704:	a9 f4       	brne	.+42     	; 0x6730 <ucg_dev_default_cb+0x36>
    6706:	dc 01       	movw	r26, r24
    6708:	17 96       	adiw	r26, 0x07	; 7
    670a:	ed 91       	ld	r30, X+
    670c:	fc 91       	ld	r31, X
    670e:	18 97       	sbiw	r26, 0x08	; 8
    6710:	67 e1       	ldi	r22, 0x17	; 23
    6712:	70 e0       	ldi	r23, 0x00	; 0
    6714:	19 95       	eicall
    6716:	08 95       	ret
    6718:	dc 01       	movw	r26, r24
    671a:	a4 5a       	subi	r26, 0xA4	; 164
    671c:	bf 4f       	sbci	r27, 0xFF	; 255
    671e:	88 e0       	ldi	r24, 0x08	; 8
    6720:	fa 01       	movw	r30, r20
    6722:	01 90       	ld	r0, Z+
    6724:	0d 92       	st	X+, r0
    6726:	8a 95       	dec	r24
    6728:	e1 f7       	brne	.-8      	; 0x6722 <ucg_dev_default_cb+0x28>
    672a:	81 e0       	ldi	r24, 0x01	; 1
    672c:	90 e0       	ldi	r25, 0x00	; 0
    672e:	08 95       	ret
    6730:	81 e0       	ldi	r24, 0x01	; 1
    6732:	90 e0       	ldi	r25, 0x00	; 0
    6734:	08 95       	ret

00006736 <ucg_ext_none>:
    6736:	81 e0       	ldi	r24, 0x01	; 1
    6738:	90 e0       	ldi	r25, 0x00	; 0
    673a:	08 95       	ret

0000673c <ucg_handle_st7735_l90fx>:
    673c:	ef 92       	push	r14
    673e:	ff 92       	push	r15
    6740:	0f 93       	push	r16
    6742:	1f 93       	push	r17
    6744:	cf 93       	push	r28
    6746:	df 93       	push	r29
    6748:	00 d0       	rcall	.+0      	; 0x674a <ucg_handle_st7735_l90fx+0xe>
    674a:	cd b7       	in	r28, 0x3d	; 61
    674c:	de b7       	in	r29, 0x3e	; 62
    674e:	8c 01       	movw	r16, r24
    6750:	0e 94 57 30 	call	0x60ae	; 0x60ae <ucg_clip_l90fx>
    6754:	00 97       	sbiw	r24, 0x00	; 0
    6756:	09 f4       	brne	.+2      	; 0x675a <ucg_handle_st7735_l90fx+0x1e>
    6758:	59 c0       	rjmp	.+178    	; 0x680c <ucg_handle_st7735_l90fx+0xd0>
    675a:	d8 01       	movw	r26, r16
    675c:	5c 96       	adiw	r26, 0x1c	; 28
    675e:	8d 91       	ld	r24, X+
    6760:	9c 91       	ld	r25, X
    6762:	5d 97       	sbiw	r26, 0x1d	; 29
    6764:	81 30       	cpi	r24, 0x01	; 1
    6766:	91 05       	cpc	r25, r1
    6768:	59 f0       	breq	.+22     	; 0x6780 <ucg_handle_st7735_l90fx+0x44>
    676a:	82 30       	cpi	r24, 0x02	; 2
    676c:	91 05       	cpc	r25, r1
    676e:	71 f0       	breq	.+28     	; 0x678c <ucg_handle_st7735_l90fx+0x50>
    6770:	89 2b       	or	r24, r25
    6772:	01 f5       	brne	.+64     	; 0x67b4 <ucg_handle_st7735_l90fx+0x78>
    6774:	61 e1       	ldi	r22, 0x11	; 17
    6776:	73 e0       	ldi	r23, 0x03	; 3
    6778:	c8 01       	movw	r24, r16
    677a:	0e 94 86 32 	call	0x650c	; 0x650c <ucg_com_SendCmdSeq>
    677e:	2d c0       	rjmp	.+90     	; 0x67da <ucg_handle_st7735_l90fx+0x9e>
    6780:	60 ef       	ldi	r22, 0xF0	; 240
    6782:	72 e0       	ldi	r23, 0x02	; 2
    6784:	c8 01       	movw	r24, r16
    6786:	0e 94 86 32 	call	0x650c	; 0x650c <ucg_com_SendCmdSeq>
    678a:	27 c0       	rjmp	.+78     	; 0x67da <ucg_handle_st7735_l90fx+0x9e>
    678c:	f8 01       	movw	r30, r16
    678e:	e3 88       	ldd	r14, Z+19	; 0x13
    6790:	f4 88       	ldd	r15, Z+20	; 0x14
    6792:	8f e7       	ldi	r24, 0x7F	; 127
    6794:	90 e0       	ldi	r25, 0x00	; 0
    6796:	8e 19       	sub	r24, r14
    6798:	9f 09       	sbc	r25, r15
    679a:	83 8b       	std	Z+19, r24	; 0x13
    679c:	94 8b       	std	Z+20, r25	; 0x14
    679e:	6f ec       	ldi	r22, 0xCF	; 207
    67a0:	72 e0       	ldi	r23, 0x02	; 2
    67a2:	c8 01       	movw	r24, r16
    67a4:	0e 94 86 32 	call	0x650c	; 0x650c <ucg_com_SendCmdSeq>
    67a8:	d8 01       	movw	r26, r16
    67aa:	53 96       	adiw	r26, 0x13	; 19
    67ac:	ed 92       	st	X+, r14
    67ae:	fc 92       	st	X, r15
    67b0:	54 97       	sbiw	r26, 0x14	; 20
    67b2:	13 c0       	rjmp	.+38     	; 0x67da <ucg_handle_st7735_l90fx+0x9e>
    67b4:	f8 01       	movw	r30, r16
    67b6:	e5 88       	ldd	r14, Z+21	; 0x15
    67b8:	f6 88       	ldd	r15, Z+22	; 0x16
    67ba:	8f e9       	ldi	r24, 0x9F	; 159
    67bc:	90 e0       	ldi	r25, 0x00	; 0
    67be:	8e 19       	sub	r24, r14
    67c0:	9f 09       	sbc	r25, r15
    67c2:	85 8b       	std	Z+21, r24	; 0x15
    67c4:	96 8b       	std	Z+22, r25	; 0x16
    67c6:	6b ea       	ldi	r22, 0xAB	; 171
    67c8:	72 e0       	ldi	r23, 0x02	; 2
    67ca:	c8 01       	movw	r24, r16
    67cc:	0e 94 86 32 	call	0x650c	; 0x650c <ucg_com_SendCmdSeq>
    67d0:	d8 01       	movw	r26, r16
    67d2:	55 96       	adiw	r26, 0x15	; 21
    67d4:	ed 92       	st	X+, r14
    67d6:	fc 92       	st	X, r15
    67d8:	56 97       	sbiw	r26, 0x16	; 22
    67da:	f8 01       	movw	r30, r16
    67dc:	87 89       	ldd	r24, Z+23	; 0x17
    67de:	89 83       	std	Y+1, r24	; 0x01
    67e0:	80 8d       	ldd	r24, Z+24	; 0x18
    67e2:	8a 83       	std	Y+2, r24	; 0x02
    67e4:	81 8d       	ldd	r24, Z+25	; 0x19
    67e6:	8b 83       	std	Y+3, r24	; 0x03
    67e8:	42 8d       	ldd	r20, Z+26	; 0x1a
    67ea:	53 8d       	ldd	r21, Z+27	; 0x1b
    67ec:	01 88       	ldd	r0, Z+17	; 0x11
    67ee:	f2 89       	ldd	r31, Z+18	; 0x12
    67f0:	e0 2d       	mov	r30, r0
    67f2:	9e 01       	movw	r18, r28
    67f4:	2f 5f       	subi	r18, 0xFF	; 255
    67f6:	3f 4f       	sbci	r19, 0xFF	; 255
    67f8:	63 e1       	ldi	r22, 0x13	; 19
    67fa:	70 e0       	ldi	r23, 0x00	; 0
    67fc:	c8 01       	movw	r24, r16
    67fe:	19 95       	eicall
    6800:	61 e0       	ldi	r22, 0x01	; 1
    6802:	c8 01       	movw	r24, r16
    6804:	0e 94 2b 32 	call	0x6456	; 0x6456 <ucg_com_SetCSLineStatus>
    6808:	81 e0       	ldi	r24, 0x01	; 1
    680a:	90 e0       	ldi	r25, 0x00	; 0
    680c:	23 96       	adiw	r28, 0x03	; 3
    680e:	cd bf       	out	0x3d, r28	; 61
    6810:	de bf       	out	0x3e, r29	; 62
    6812:	df 91       	pop	r29
    6814:	cf 91       	pop	r28
    6816:	1f 91       	pop	r17
    6818:	0f 91       	pop	r16
    681a:	ff 90       	pop	r15
    681c:	ef 90       	pop	r14
    681e:	08 95       	ret

00006820 <ucg_handle_st7735_l90se>:
    6820:	8f 92       	push	r8
    6822:	9f 92       	push	r9
    6824:	af 92       	push	r10
    6826:	bf 92       	push	r11
    6828:	cf 92       	push	r12
    682a:	df 92       	push	r13
    682c:	ef 92       	push	r14
    682e:	ff 92       	push	r15
    6830:	0f 93       	push	r16
    6832:	1f 93       	push	r17
    6834:	cf 93       	push	r28
    6836:	df 93       	push	r29
    6838:	00 d0       	rcall	.+0      	; 0x683a <ucg_handle_st7735_l90se+0x1a>
    683a:	cd b7       	in	r28, 0x3d	; 61
    683c:	de b7       	in	r29, 0x3e	; 62
    683e:	8c 01       	movw	r16, r24
    6840:	7c 01       	movw	r14, r24
    6842:	86 e2       	ldi	r24, 0x26	; 38
    6844:	e8 0e       	add	r14, r24
    6846:	f1 1c       	adc	r15, r1
    6848:	58 01       	movw	r10, r16
    684a:	a2 e3       	ldi	r26, 0x32	; 50
    684c:	aa 0e       	add	r10, r26
    684e:	b1 1c       	adc	r11, r1
    6850:	65 01       	movw	r12, r10
    6852:	48 01       	movw	r8, r16
    6854:	b9 e2       	ldi	r27, 0x29	; 41
    6856:	8b 0e       	add	r8, r27
    6858:	91 1c       	adc	r9, r1
    685a:	f7 01       	movw	r30, r14
    685c:	8f ef       	ldi	r24, 0xFF	; 255
    685e:	e8 1a       	sub	r14, r24
    6860:	f8 0a       	sbc	r15, r24
    6862:	d8 01       	movw	r26, r16
    6864:	5a 96       	adiw	r26, 0x1a	; 26
    6866:	2d 91       	ld	r18, X+
    6868:	3c 91       	ld	r19, X
    686a:	5b 97       	sbiw	r26, 0x1b	; 27
    686c:	43 81       	ldd	r20, Z+3	; 0x03
    686e:	60 81       	ld	r22, Z
    6870:	c6 01       	movw	r24, r12
    6872:	0e 94 61 2f 	call	0x5ec2	; 0x5ec2 <ucg_ccs_init>
    6876:	be e0       	ldi	r27, 0x0E	; 14
    6878:	cb 0e       	add	r12, r27
    687a:	d1 1c       	adc	r13, r1
    687c:	e8 14       	cp	r14, r8
    687e:	f9 04       	cpc	r15, r9
    6880:	61 f7       	brne	.-40     	; 0x685a <ucg_handle_st7735_l90se+0x3a>
    6882:	c8 01       	movw	r24, r16
    6884:	0e 94 69 31 	call	0x62d2	; 0x62d2 <ucg_clip_l90se>
    6888:	00 97       	sbiw	r24, 0x00	; 0
    688a:	09 f4       	brne	.+2      	; 0x688e <ucg_handle_st7735_l90se+0x6e>
    688c:	81 c0       	rjmp	.+258    	; 0x6990 <ucg_handle_st7735_l90se+0x170>
    688e:	f8 01       	movw	r30, r16
    6890:	84 8d       	ldd	r24, Z+28	; 0x1c
    6892:	95 8d       	ldd	r25, Z+29	; 0x1d
    6894:	81 30       	cpi	r24, 0x01	; 1
    6896:	91 05       	cpc	r25, r1
    6898:	99 f0       	breq	.+38     	; 0x68c0 <ucg_handle_st7735_l90se+0xa0>
    689a:	82 30       	cpi	r24, 0x02	; 2
    689c:	91 05       	cpc	r25, r1
    689e:	b1 f0       	breq	.+44     	; 0x68cc <ucg_handle_st7735_l90se+0xac>
    68a0:	89 2b       	or	r24, r25
    68a2:	41 f5       	brne	.+80     	; 0x68f4 <ucg_handle_st7735_l90se+0xd4>
    68a4:	61 e1       	ldi	r22, 0x11	; 17
    68a6:	73 e0       	ldi	r23, 0x03	; 3
    68a8:	c8 01       	movw	r24, r16
    68aa:	0e 94 86 32 	call	0x650c	; 0x650c <ucg_com_SendCmdSeq>
    68ae:	d8 01       	movw	r26, r16
    68b0:	5a 96       	adiw	r26, 0x1a	; 26
    68b2:	8d 91       	ld	r24, X+
    68b4:	9c 91       	ld	r25, X
    68b6:	5b 97       	sbiw	r26, 0x1b	; 27
    68b8:	18 16       	cp	r1, r24
    68ba:	19 06       	cpc	r1, r25
    68bc:	7c f1       	brlt	.+94     	; 0x691c <ucg_handle_st7735_l90se+0xfc>
    68be:	62 c0       	rjmp	.+196    	; 0x6984 <ucg_handle_st7735_l90se+0x164>
    68c0:	60 ef       	ldi	r22, 0xF0	; 240
    68c2:	72 e0       	ldi	r23, 0x02	; 2
    68c4:	c8 01       	movw	r24, r16
    68c6:	0e 94 86 32 	call	0x650c	; 0x650c <ucg_com_SendCmdSeq>
    68ca:	f1 cf       	rjmp	.-30     	; 0x68ae <ucg_handle_st7735_l90se+0x8e>
    68cc:	f8 01       	movw	r30, r16
    68ce:	e3 88       	ldd	r14, Z+19	; 0x13
    68d0:	f4 88       	ldd	r15, Z+20	; 0x14
    68d2:	8f e7       	ldi	r24, 0x7F	; 127
    68d4:	90 e0       	ldi	r25, 0x00	; 0
    68d6:	8e 19       	sub	r24, r14
    68d8:	9f 09       	sbc	r25, r15
    68da:	83 8b       	std	Z+19, r24	; 0x13
    68dc:	94 8b       	std	Z+20, r25	; 0x14
    68de:	6f ec       	ldi	r22, 0xCF	; 207
    68e0:	72 e0       	ldi	r23, 0x02	; 2
    68e2:	c8 01       	movw	r24, r16
    68e4:	0e 94 86 32 	call	0x650c	; 0x650c <ucg_com_SendCmdSeq>
    68e8:	d8 01       	movw	r26, r16
    68ea:	53 96       	adiw	r26, 0x13	; 19
    68ec:	ed 92       	st	X+, r14
    68ee:	fc 92       	st	X, r15
    68f0:	54 97       	sbiw	r26, 0x14	; 20
    68f2:	dd cf       	rjmp	.-70     	; 0x68ae <ucg_handle_st7735_l90se+0x8e>
    68f4:	f8 01       	movw	r30, r16
    68f6:	e5 88       	ldd	r14, Z+21	; 0x15
    68f8:	f6 88       	ldd	r15, Z+22	; 0x16
    68fa:	8f e9       	ldi	r24, 0x9F	; 159
    68fc:	90 e0       	ldi	r25, 0x00	; 0
    68fe:	8e 19       	sub	r24, r14
    6900:	9f 09       	sbc	r25, r15
    6902:	85 8b       	std	Z+21, r24	; 0x15
    6904:	96 8b       	std	Z+22, r25	; 0x16
    6906:	6b ea       	ldi	r22, 0xAB	; 171
    6908:	72 e0       	ldi	r23, 0x02	; 2
    690a:	c8 01       	movw	r24, r16
    690c:	0e 94 86 32 	call	0x650c	; 0x650c <ucg_com_SendCmdSeq>
    6910:	d8 01       	movw	r26, r16
    6912:	55 96       	adiw	r26, 0x15	; 21
    6914:	ed 92       	st	X+, r14
    6916:	fc 92       	st	X, r15
    6918:	56 97       	sbiw	r26, 0x16	; 22
    691a:	c9 cf       	rjmp	.-110    	; 0x68ae <ucg_handle_st7735_l90se+0x8e>
    691c:	e1 2c       	mov	r14, r1
    691e:	f1 2c       	mov	r15, r1
    6920:	48 01       	movw	r8, r16
    6922:	b0 e4       	ldi	r27, 0x40	; 64
    6924:	8b 0e       	add	r8, r27
    6926:	91 1c       	adc	r9, r1
    6928:	68 01       	movw	r12, r16
    692a:	ee e4       	ldi	r30, 0x4E	; 78
    692c:	ce 0e       	add	r12, r30
    692e:	d1 1c       	adc	r13, r1
    6930:	d8 01       	movw	r26, r16
    6932:	d2 96       	adiw	r26, 0x32	; 50
    6934:	8c 91       	ld	r24, X
    6936:	89 83       	std	Y+1, r24	; 0x01
    6938:	f4 01       	movw	r30, r8
    693a:	80 81       	ld	r24, Z
    693c:	8a 83       	std	Y+2, r24	; 0x02
    693e:	d6 01       	movw	r26, r12
    6940:	8c 91       	ld	r24, X
    6942:	8b 83       	std	Y+3, r24	; 0x03
    6944:	d8 01       	movw	r26, r16
    6946:	51 96       	adiw	r26, 0x11	; 17
    6948:	ed 91       	ld	r30, X+
    694a:	fc 91       	ld	r31, X
    694c:	52 97       	sbiw	r26, 0x12	; 18
    694e:	9e 01       	movw	r18, r28
    6950:	2f 5f       	subi	r18, 0xFF	; 255
    6952:	3f 4f       	sbci	r19, 0xFF	; 255
    6954:	41 e0       	ldi	r20, 0x01	; 1
    6956:	50 e0       	ldi	r21, 0x00	; 0
    6958:	63 e1       	ldi	r22, 0x13	; 19
    695a:	70 e0       	ldi	r23, 0x00	; 0
    695c:	c8 01       	movw	r24, r16
    695e:	19 95       	eicall
    6960:	c5 01       	movw	r24, r10
    6962:	0e 94 9a 2f 	call	0x5f34	; 0x5f34 <ucg_ccs_step>
    6966:	c4 01       	movw	r24, r8
    6968:	0e 94 9a 2f 	call	0x5f34	; 0x5f34 <ucg_ccs_step>
    696c:	c6 01       	movw	r24, r12
    696e:	0e 94 9a 2f 	call	0x5f34	; 0x5f34 <ucg_ccs_step>
    6972:	bf ef       	ldi	r27, 0xFF	; 255
    6974:	eb 1a       	sub	r14, r27
    6976:	fb 0a       	sbc	r15, r27
    6978:	f8 01       	movw	r30, r16
    697a:	82 8d       	ldd	r24, Z+26	; 0x1a
    697c:	93 8d       	ldd	r25, Z+27	; 0x1b
    697e:	e8 16       	cp	r14, r24
    6980:	f9 06       	cpc	r15, r25
    6982:	b4 f2       	brlt	.-84     	; 0x6930 <ucg_handle_st7735_l90se+0x110>
    6984:	61 e0       	ldi	r22, 0x01	; 1
    6986:	c8 01       	movw	r24, r16
    6988:	0e 94 2b 32 	call	0x6456	; 0x6456 <ucg_com_SetCSLineStatus>
    698c:	81 e0       	ldi	r24, 0x01	; 1
    698e:	90 e0       	ldi	r25, 0x00	; 0
    6990:	23 96       	adiw	r28, 0x03	; 3
    6992:	cd bf       	out	0x3d, r28	; 61
    6994:	de bf       	out	0x3e, r29	; 62
    6996:	df 91       	pop	r29
    6998:	cf 91       	pop	r28
    699a:	1f 91       	pop	r17
    699c:	0f 91       	pop	r16
    699e:	ff 90       	pop	r15
    69a0:	ef 90       	pop	r14
    69a2:	df 90       	pop	r13
    69a4:	cf 90       	pop	r12
    69a6:	bf 90       	pop	r11
    69a8:	af 90       	pop	r10
    69aa:	9f 90       	pop	r9
    69ac:	8f 90       	pop	r8
    69ae:	08 95       	ret

000069b0 <ucg_dev_ic_st7735_18>:
    69b0:	0f 93       	push	r16
    69b2:	1f 93       	push	r17
    69b4:	cf 93       	push	r28
    69b6:	df 93       	push	r29
    69b8:	00 d0       	rcall	.+0      	; 0x69ba <ucg_dev_ic_st7735_18+0xa>
    69ba:	cd b7       	in	r28, 0x3d	; 61
    69bc:	de b7       	in	r29, 0x3e	; 62
    69be:	6f 30       	cpi	r22, 0x0F	; 15
    69c0:	71 05       	cpc	r23, r1
    69c2:	09 f1       	breq	.+66     	; 0x6a06 <ucg_dev_ic_st7735_18+0x56>
    69c4:	8c 01       	movw	r16, r24
    69c6:	60 31       	cpi	r22, 0x10	; 16
    69c8:	71 05       	cpc	r23, r1
    69ca:	3c f4       	brge	.+14     	; 0x69da <ucg_dev_ic_st7735_18+0x2a>
    69cc:	6a 30       	cpi	r22, 0x0A	; 10
    69ce:	71 05       	cpc	r23, r1
    69d0:	61 f0       	breq	.+24     	; 0x69ea <ucg_dev_ic_st7735_18+0x3a>
    69d2:	6b 30       	cpi	r22, 0x0B	; 11
    69d4:	71 05       	cpc	r23, r1
    69d6:	81 f0       	breq	.+32     	; 0x69f8 <ucg_dev_ic_st7735_18+0x48>
    69d8:	4d c0       	rjmp	.+154    	; 0x6a74 <ucg_dev_ic_st7735_18+0xc4>
    69da:	64 31       	cpi	r22, 0x14	; 20
    69dc:	71 05       	cpc	r23, r1
    69de:	11 f1       	breq	.+68     	; 0x6a24 <ucg_dev_ic_st7735_18+0x74>
    69e0:	65 31       	cpi	r22, 0x15	; 21
    69e2:	71 05       	cpc	r23, r1
    69e4:	09 f4       	brne	.+2      	; 0x69e8 <ucg_dev_ic_st7735_18+0x38>
    69e6:	41 c0       	rjmp	.+130    	; 0x6a6a <ucg_dev_ic_st7735_18+0xba>
    69e8:	45 c0       	rjmp	.+138    	; 0x6a74 <ucg_dev_ic_st7735_18+0xc4>
    69ea:	42 e4       	ldi	r20, 0x42	; 66
    69ec:	50 e0       	ldi	r21, 0x00	; 0
    69ee:	64 e6       	ldi	r22, 0x64	; 100
    69f0:	70 e0       	ldi	r23, 0x00	; 0
    69f2:	0e 94 a8 31 	call	0x6350	; 0x6350 <ucg_com_PowerUp>
    69f6:	44 c0       	rjmp	.+136    	; 0x6a80 <ucg_dev_ic_st7735_18+0xd0>
    69f8:	64 ea       	ldi	r22, 0xA4	; 164
    69fa:	72 e0       	ldi	r23, 0x02	; 2
    69fc:	0e 94 86 32 	call	0x650c	; 0x650c <ucg_com_SendCmdSeq>
    6a00:	81 e0       	ldi	r24, 0x01	; 1
    6a02:	90 e0       	ldi	r25, 0x00	; 0
    6a04:	3d c0       	rjmp	.+122    	; 0x6a80 <ucg_dev_ic_st7735_18+0xd0>
    6a06:	80 e8       	ldi	r24, 0x80	; 128
    6a08:	90 e0       	ldi	r25, 0x00	; 0
    6a0a:	da 01       	movw	r26, r20
    6a0c:	8d 93       	st	X+, r24
    6a0e:	9c 93       	st	X, r25
    6a10:	11 97       	sbiw	r26, 0x01	; 1
    6a12:	80 ea       	ldi	r24, 0xA0	; 160
    6a14:	90 e0       	ldi	r25, 0x00	; 0
    6a16:	12 96       	adiw	r26, 0x02	; 2
    6a18:	8d 93       	st	X+, r24
    6a1a:	9c 93       	st	X, r25
    6a1c:	13 97       	sbiw	r26, 0x03	; 3
    6a1e:	81 e0       	ldi	r24, 0x01	; 1
    6a20:	90 e0       	ldi	r25, 0x00	; 0
    6a22:	2e c0       	rjmp	.+92     	; 0x6a80 <ucg_dev_ic_st7735_18+0xd0>
    6a24:	0e 94 43 30 	call	0x6086	; 0x6086 <ucg_clip_is_pixel_visible>
    6a28:	89 2b       	or	r24, r25
    6a2a:	41 f1       	breq	.+80     	; 0x6a7c <ucg_dev_ic_st7735_18+0xcc>
    6a2c:	6f e2       	ldi	r22, 0x2F	; 47
    6a2e:	73 e0       	ldi	r23, 0x03	; 3
    6a30:	c8 01       	movw	r24, r16
    6a32:	0e 94 86 32 	call	0x650c	; 0x650c <ucg_com_SendCmdSeq>
    6a36:	f8 01       	movw	r30, r16
    6a38:	87 89       	ldd	r24, Z+23	; 0x17
    6a3a:	89 83       	std	Y+1, r24	; 0x01
    6a3c:	80 8d       	ldd	r24, Z+24	; 0x18
    6a3e:	8a 83       	std	Y+2, r24	; 0x02
    6a40:	81 8d       	ldd	r24, Z+25	; 0x19
    6a42:	8b 83       	std	Y+3, r24	; 0x03
    6a44:	01 88       	ldd	r0, Z+17	; 0x11
    6a46:	f2 89       	ldd	r31, Z+18	; 0x12
    6a48:	e0 2d       	mov	r30, r0
    6a4a:	9e 01       	movw	r18, r28
    6a4c:	2f 5f       	subi	r18, 0xFF	; 255
    6a4e:	3f 4f       	sbci	r19, 0xFF	; 255
    6a50:	41 e0       	ldi	r20, 0x01	; 1
    6a52:	50 e0       	ldi	r21, 0x00	; 0
    6a54:	63 e1       	ldi	r22, 0x13	; 19
    6a56:	70 e0       	ldi	r23, 0x00	; 0
    6a58:	c8 01       	movw	r24, r16
    6a5a:	19 95       	eicall
    6a5c:	61 e0       	ldi	r22, 0x01	; 1
    6a5e:	c8 01       	movw	r24, r16
    6a60:	0e 94 2b 32 	call	0x6456	; 0x6456 <ucg_com_SetCSLineStatus>
    6a64:	81 e0       	ldi	r24, 0x01	; 1
    6a66:	90 e0       	ldi	r25, 0x00	; 0
    6a68:	0b c0       	rjmp	.+22     	; 0x6a80 <ucg_dev_ic_st7735_18+0xd0>
    6a6a:	0e 94 9e 33 	call	0x673c	; 0x673c <ucg_handle_st7735_l90fx>
    6a6e:	81 e0       	ldi	r24, 0x01	; 1
    6a70:	90 e0       	ldi	r25, 0x00	; 0
    6a72:	06 c0       	rjmp	.+12     	; 0x6a80 <ucg_dev_ic_st7735_18+0xd0>
    6a74:	c8 01       	movw	r24, r16
    6a76:	0e 94 7d 33 	call	0x66fa	; 0x66fa <ucg_dev_default_cb>
    6a7a:	02 c0       	rjmp	.+4      	; 0x6a80 <ucg_dev_ic_st7735_18+0xd0>
    6a7c:	81 e0       	ldi	r24, 0x01	; 1
    6a7e:	90 e0       	ldi	r25, 0x00	; 0
    6a80:	23 96       	adiw	r28, 0x03	; 3
    6a82:	cd bf       	out	0x3d, r28	; 61
    6a84:	de bf       	out	0x3e, r29	; 62
    6a86:	df 91       	pop	r29
    6a88:	cf 91       	pop	r28
    6a8a:	1f 91       	pop	r17
    6a8c:	0f 91       	pop	r16
    6a8e:	08 95       	ret

00006a90 <ucg_ext_st7735_18>:
    6a90:	67 31       	cpi	r22, 0x17	; 23
    6a92:	71 05       	cpc	r23, r1
    6a94:	11 f4       	brne	.+4      	; 0x6a9a <ucg_ext_st7735_18+0xa>
    6a96:	0e 94 10 34 	call	0x6820	; 0x6820 <ucg_handle_st7735_l90se>
    6a9a:	81 e0       	ldi	r24, 0x01	; 1
    6a9c:	90 e0       	ldi	r25, 0x00	; 0
    6a9e:	08 95       	ret

00006aa0 <ucg_PowerDown>:
    6aa0:	cf 93       	push	r28
    6aa2:	df 93       	push	r29
    6aa4:	fc 01       	movw	r30, r24
    6aa6:	20 81       	ld	r18, Z
    6aa8:	20 ff       	sbrs	r18, 0
    6aaa:	0c c0       	rjmp	.+24     	; 0x6ac4 <ucg_PowerDown+0x24>
    6aac:	ec 01       	movw	r28, r24
    6aae:	05 80       	ldd	r0, Z+5	; 0x05
    6ab0:	f6 81       	ldd	r31, Z+6	; 0x06
    6ab2:	e0 2d       	mov	r30, r0
    6ab4:	40 e0       	ldi	r20, 0x00	; 0
    6ab6:	50 e0       	ldi	r21, 0x00	; 0
    6ab8:	6b e0       	ldi	r22, 0x0B	; 11
    6aba:	70 e0       	ldi	r23, 0x00	; 0
    6abc:	19 95       	eicall
    6abe:	88 81       	ld	r24, Y
    6ac0:	8e 7f       	andi	r24, 0xFE	; 254
    6ac2:	88 83       	st	Y, r24
    6ac4:	df 91       	pop	r29
    6ac6:	cf 91       	pop	r28
    6ac8:	08 95       	ret

00006aca <ucg_PowerUp>:
    6aca:	cf 93       	push	r28
    6acc:	df 93       	push	r29
    6ace:	ec 01       	movw	r28, r24
    6ad0:	0e 94 50 35 	call	0x6aa0	; 0x6aa0 <ucg_PowerDown>
    6ad4:	ed 81       	ldd	r30, Y+5	; 0x05
    6ad6:	fe 81       	ldd	r31, Y+6	; 0x06
    6ad8:	40 e0       	ldi	r20, 0x00	; 0
    6ada:	50 e0       	ldi	r21, 0x00	; 0
    6adc:	6a e0       	ldi	r22, 0x0A	; 10
    6ade:	70 e0       	ldi	r23, 0x00	; 0
    6ae0:	ce 01       	movw	r24, r28
    6ae2:	19 95       	eicall
    6ae4:	00 97       	sbiw	r24, 0x00	; 0
    6ae6:	19 f0       	breq	.+6      	; 0x6aee <ucg_PowerUp+0x24>
    6ae8:	28 81       	ld	r18, Y
    6aea:	21 60       	ori	r18, 0x01	; 1
    6aec:	28 83       	st	Y, r18
    6aee:	df 91       	pop	r29
    6af0:	cf 91       	pop	r28
    6af2:	08 95       	ret

00006af4 <ucg_SetClipBox>:
    6af4:	ab 01       	movw	r20, r22
    6af6:	dc 01       	movw	r26, r24
    6af8:	15 96       	adiw	r26, 0x05	; 5
    6afa:	ed 91       	ld	r30, X+
    6afc:	fc 91       	ld	r31, X
    6afe:	16 97       	sbiw	r26, 0x06	; 6
    6b00:	6c e0       	ldi	r22, 0x0C	; 12
    6b02:	70 e0       	ldi	r23, 0x00	; 0
    6b04:	19 95       	eicall
    6b06:	08 95       	ret

00006b08 <ucg_SetMaxClipRange>:
    6b08:	cf 93       	push	r28
    6b0a:	df 93       	push	r29
    6b0c:	cd b7       	in	r28, 0x3d	; 61
    6b0e:	de b7       	in	r29, 0x3e	; 62
    6b10:	28 97       	sbiw	r28, 0x08	; 8
    6b12:	cd bf       	out	0x3d, r28	; 61
    6b14:	de bf       	out	0x3e, r29	; 62
    6b16:	fc 01       	movw	r30, r24
    6b18:	41 81       	ldd	r20, Z+1	; 0x01
    6b1a:	52 81       	ldd	r21, Z+2	; 0x02
    6b1c:	63 81       	ldd	r22, Z+3	; 0x03
    6b1e:	74 81       	ldd	r23, Z+4	; 0x04
    6b20:	4d 83       	std	Y+5, r20	; 0x05
    6b22:	5e 83       	std	Y+6, r21	; 0x06
    6b24:	6f 83       	std	Y+7, r22	; 0x07
    6b26:	78 87       	std	Y+8, r23	; 0x08
    6b28:	19 82       	std	Y+1, r1	; 0x01
    6b2a:	1a 82       	std	Y+2, r1	; 0x02
    6b2c:	1b 82       	std	Y+3, r1	; 0x03
    6b2e:	1c 82       	std	Y+4, r1	; 0x04
    6b30:	be 01       	movw	r22, r28
    6b32:	6f 5f       	subi	r22, 0xFF	; 255
    6b34:	7f 4f       	sbci	r23, 0xFF	; 255
    6b36:	0e 94 7a 35 	call	0x6af4	; 0x6af4 <ucg_SetClipBox>
    6b3a:	28 96       	adiw	r28, 0x08	; 8
    6b3c:	cd bf       	out	0x3d, r28	; 61
    6b3e:	de bf       	out	0x3e, r29	; 62
    6b40:	df 91       	pop	r29
    6b42:	cf 91       	pop	r28
    6b44:	08 95       	ret

00006b46 <ucg_GetDimension>:
    6b46:	cf 93       	push	r28
    6b48:	df 93       	push	r29
    6b4a:	ec 01       	movw	r28, r24
    6b4c:	ac 01       	movw	r20, r24
    6b4e:	4f 5f       	subi	r20, 0xFF	; 255
    6b50:	5f 4f       	sbci	r21, 0xFF	; 255
    6b52:	ed 81       	ldd	r30, Y+5	; 0x05
    6b54:	fe 81       	ldd	r31, Y+6	; 0x06
    6b56:	6f e0       	ldi	r22, 0x0F	; 15
    6b58:	70 e0       	ldi	r23, 0x00	; 0
    6b5a:	19 95       	eicall
    6b5c:	ce 01       	movw	r24, r28
    6b5e:	0e 94 84 35 	call	0x6b08	; 0x6b08 <ucg_SetMaxClipRange>
    6b62:	df 91       	pop	r29
    6b64:	cf 91       	pop	r28
    6b66:	08 95       	ret

00006b68 <ucg_DrawL90FXWithArg>:
    6b68:	ac 01       	movw	r20, r24
    6b6a:	4d 5e       	subi	r20, 0xED	; 237
    6b6c:	5f 4f       	sbci	r21, 0xFF	; 255
    6b6e:	dc 01       	movw	r26, r24
    6b70:	15 96       	adiw	r26, 0x05	; 5
    6b72:	ed 91       	ld	r30, X+
    6b74:	fc 91       	ld	r31, X
    6b76:	16 97       	sbiw	r26, 0x06	; 6
    6b78:	65 e1       	ldi	r22, 0x15	; 21
    6b7a:	70 e0       	ldi	r23, 0x00	; 0
    6b7c:	19 95       	eicall
    6b7e:	08 95       	ret

00006b80 <ucg_dev_st7735_18x128x160>:
    6b80:	cf 93       	push	r28
    6b82:	df 93       	push	r29
    6b84:	ec 01       	movw	r28, r24
    6b86:	6b 30       	cpi	r22, 0x0B	; 11
    6b88:	71 05       	cpc	r23, r1
    6b8a:	a1 f0       	breq	.+40     	; 0x6bb4 <ucg_dev_st7735_18x128x160+0x34>
    6b8c:	6f 30       	cpi	r22, 0x0F	; 15
    6b8e:	71 05       	cpc	r23, r1
    6b90:	b1 f0       	breq	.+44     	; 0x6bbe <ucg_dev_st7735_18x128x160+0x3e>
    6b92:	6a 30       	cpi	r22, 0x0A	; 10
    6b94:	71 05       	cpc	r23, r1
    6b96:	f9 f4       	brne	.+62     	; 0x6bd6 <ucg_dev_st7735_18x128x160+0x56>
    6b98:	6a e0       	ldi	r22, 0x0A	; 10
    6b9a:	70 e0       	ldi	r23, 0x00	; 0
    6b9c:	0e 94 d8 34 	call	0x69b0	; 0x69b0 <ucg_dev_ic_st7735_18>
    6ba0:	00 97       	sbiw	r24, 0x00	; 0
    6ba2:	d9 f0       	breq	.+54     	; 0x6bda <ucg_dev_st7735_18x128x160+0x5a>
    6ba4:	6d e4       	ldi	r22, 0x4D	; 77
    6ba6:	73 e0       	ldi	r23, 0x03	; 3
    6ba8:	ce 01       	movw	r24, r28
    6baa:	0e 94 86 32 	call	0x650c	; 0x650c <ucg_com_SendCmdSeq>
    6bae:	81 e0       	ldi	r24, 0x01	; 1
    6bb0:	90 e0       	ldi	r25, 0x00	; 0
    6bb2:	13 c0       	rjmp	.+38     	; 0x6bda <ucg_dev_st7735_18x128x160+0x5a>
    6bb4:	6b e0       	ldi	r22, 0x0B	; 11
    6bb6:	70 e0       	ldi	r23, 0x00	; 0
    6bb8:	0e 94 d8 34 	call	0x69b0	; 0x69b0 <ucg_dev_ic_st7735_18>
    6bbc:	0e c0       	rjmp	.+28     	; 0x6bda <ucg_dev_st7735_18x128x160+0x5a>
    6bbe:	80 e8       	ldi	r24, 0x80	; 128
    6bc0:	90 e0       	ldi	r25, 0x00	; 0
    6bc2:	fa 01       	movw	r30, r20
    6bc4:	80 83       	st	Z, r24
    6bc6:	91 83       	std	Z+1, r25	; 0x01
    6bc8:	80 ea       	ldi	r24, 0xA0	; 160
    6bca:	90 e0       	ldi	r25, 0x00	; 0
    6bcc:	82 83       	std	Z+2, r24	; 0x02
    6bce:	93 83       	std	Z+3, r25	; 0x03
    6bd0:	81 e0       	ldi	r24, 0x01	; 1
    6bd2:	90 e0       	ldi	r25, 0x00	; 0
    6bd4:	02 c0       	rjmp	.+4      	; 0x6bda <ucg_dev_st7735_18x128x160+0x5a>
    6bd6:	0e 94 d8 34 	call	0x69b0	; 0x69b0 <ucg_dev_ic_st7735_18>
    6bda:	df 91       	pop	r29
    6bdc:	cf 91       	pop	r28
    6bde:	08 95       	ret

00006be0 <ucg_font_get_word>:
    6be0:	fc 01       	movw	r30, r24
    6be2:	e6 0f       	add	r30, r22
    6be4:	f1 1d       	adc	r31, r1
    6be6:	84 91       	lpm	r24, Z
    6be8:	90 e0       	ldi	r25, 0x00	; 0
    6bea:	98 2f       	mov	r25, r24
    6bec:	88 27       	eor	r24, r24
    6bee:	31 96       	adiw	r30, 0x01	; 1
    6bf0:	e4 91       	lpm	r30, Z
    6bf2:	8e 0f       	add	r24, r30
    6bf4:	91 1d       	adc	r25, r1
    6bf6:	08 95       	ret

00006bf8 <ucg_add_vector_y>:
    6bf8:	21 30       	cpi	r18, 0x01	; 1
    6bfa:	49 f0       	breq	.+18     	; 0x6c0e <ucg_add_vector_y+0x16>
    6bfc:	18 f0       	brcs	.+6      	; 0x6c04 <ucg_add_vector_y+0xc>
    6bfe:	22 30       	cpi	r18, 0x02	; 2
    6c00:	59 f0       	breq	.+22     	; 0x6c18 <ucg_add_vector_y+0x20>
    6c02:	0f c0       	rjmp	.+30     	; 0x6c22 <ucg_add_vector_y+0x2a>
    6c04:	84 0f       	add	r24, r20
    6c06:	91 1d       	adc	r25, r1
    6c08:	47 fd       	sbrc	r20, 7
    6c0a:	9a 95       	dec	r25
    6c0c:	08 95       	ret
    6c0e:	86 0f       	add	r24, r22
    6c10:	91 1d       	adc	r25, r1
    6c12:	67 fd       	sbrc	r22, 7
    6c14:	9a 95       	dec	r25
    6c16:	08 95       	ret
    6c18:	84 1b       	sub	r24, r20
    6c1a:	91 09       	sbc	r25, r1
    6c1c:	47 fd       	sbrc	r20, 7
    6c1e:	93 95       	inc	r25
    6c20:	08 95       	ret
    6c22:	86 1b       	sub	r24, r22
    6c24:	91 09       	sbc	r25, r1
    6c26:	67 fd       	sbrc	r22, 7
    6c28:	93 95       	inc	r25
    6c2a:	08 95       	ret

00006c2c <ucg_add_vector_x>:
    6c2c:	21 30       	cpi	r18, 0x01	; 1
    6c2e:	49 f0       	breq	.+18     	; 0x6c42 <ucg_add_vector_x+0x16>
    6c30:	18 f0       	brcs	.+6      	; 0x6c38 <ucg_add_vector_x+0xc>
    6c32:	22 30       	cpi	r18, 0x02	; 2
    6c34:	59 f0       	breq	.+22     	; 0x6c4c <ucg_add_vector_x+0x20>
    6c36:	0f c0       	rjmp	.+30     	; 0x6c56 <ucg_add_vector_x+0x2a>
    6c38:	86 0f       	add	r24, r22
    6c3a:	91 1d       	adc	r25, r1
    6c3c:	67 fd       	sbrc	r22, 7
    6c3e:	9a 95       	dec	r25
    6c40:	08 95       	ret
    6c42:	84 1b       	sub	r24, r20
    6c44:	91 09       	sbc	r25, r1
    6c46:	47 fd       	sbrc	r20, 7
    6c48:	93 95       	inc	r25
    6c4a:	08 95       	ret
    6c4c:	86 1b       	sub	r24, r22
    6c4e:	91 09       	sbc	r25, r1
    6c50:	67 fd       	sbrc	r22, 7
    6c52:	93 95       	inc	r25
    6c54:	08 95       	ret
    6c56:	84 0f       	add	r24, r20
    6c58:	91 1d       	adc	r25, r1
    6c5a:	47 fd       	sbrc	r20, 7
    6c5c:	9a 95       	dec	r25
    6c5e:	08 95       	ret

00006c60 <ucg_font_calc_vref_font>:
    6c60:	80 e0       	ldi	r24, 0x00	; 0
    6c62:	90 e0       	ldi	r25, 0x00	; 0
    6c64:	08 95       	ret

00006c66 <ucg_read_font_info>:
    6c66:	0f 93       	push	r16
    6c68:	1f 93       	push	r17
    6c6a:	cf 93       	push	r28
    6c6c:	df 93       	push	r29
    6c6e:	ec 01       	movw	r28, r24
    6c70:	8b 01       	movw	r16, r22
    6c72:	fb 01       	movw	r30, r22
    6c74:	84 91       	lpm	r24, Z
    6c76:	88 83       	st	Y, r24
    6c78:	31 96       	adiw	r30, 0x01	; 1
    6c7a:	e4 91       	lpm	r30, Z
    6c7c:	e9 83       	std	Y+1, r30	; 0x01
    6c7e:	fb 01       	movw	r30, r22
    6c80:	32 96       	adiw	r30, 0x02	; 2
    6c82:	e4 91       	lpm	r30, Z
    6c84:	ea 83       	std	Y+2, r30	; 0x02
    6c86:	fb 01       	movw	r30, r22
    6c88:	33 96       	adiw	r30, 0x03	; 3
    6c8a:	e4 91       	lpm	r30, Z
    6c8c:	eb 83       	std	Y+3, r30	; 0x03
    6c8e:	fb 01       	movw	r30, r22
    6c90:	34 96       	adiw	r30, 0x04	; 4
    6c92:	e4 91       	lpm	r30, Z
    6c94:	ec 83       	std	Y+4, r30	; 0x04
    6c96:	fb 01       	movw	r30, r22
    6c98:	35 96       	adiw	r30, 0x05	; 5
    6c9a:	e4 91       	lpm	r30, Z
    6c9c:	ed 83       	std	Y+5, r30	; 0x05
    6c9e:	fb 01       	movw	r30, r22
    6ca0:	36 96       	adiw	r30, 0x06	; 6
    6ca2:	e4 91       	lpm	r30, Z
    6ca4:	ee 83       	std	Y+6, r30	; 0x06
    6ca6:	fb 01       	movw	r30, r22
    6ca8:	37 96       	adiw	r30, 0x07	; 7
    6caa:	e4 91       	lpm	r30, Z
    6cac:	ef 83       	std	Y+7, r30	; 0x07
    6cae:	fb 01       	movw	r30, r22
    6cb0:	38 96       	adiw	r30, 0x08	; 8
    6cb2:	e4 91       	lpm	r30, Z
    6cb4:	e8 87       	std	Y+8, r30	; 0x08
    6cb6:	fb 01       	movw	r30, r22
    6cb8:	39 96       	adiw	r30, 0x09	; 9
    6cba:	e4 91       	lpm	r30, Z
    6cbc:	e9 87       	std	Y+9, r30	; 0x09
    6cbe:	fb 01       	movw	r30, r22
    6cc0:	3a 96       	adiw	r30, 0x0a	; 10
    6cc2:	e4 91       	lpm	r30, Z
    6cc4:	ea 87       	std	Y+10, r30	; 0x0a
    6cc6:	fb 01       	movw	r30, r22
    6cc8:	3b 96       	adiw	r30, 0x0b	; 11
    6cca:	e4 91       	lpm	r30, Z
    6ccc:	eb 87       	std	Y+11, r30	; 0x0b
    6cce:	fb 01       	movw	r30, r22
    6cd0:	3c 96       	adiw	r30, 0x0c	; 12
    6cd2:	e4 91       	lpm	r30, Z
    6cd4:	ec 87       	std	Y+12, r30	; 0x0c
    6cd6:	fb 01       	movw	r30, r22
    6cd8:	3d 96       	adiw	r30, 0x0d	; 13
    6cda:	e4 91       	lpm	r30, Z
    6cdc:	ed 87       	std	Y+13, r30	; 0x0d
    6cde:	fb 01       	movw	r30, r22
    6ce0:	3e 96       	adiw	r30, 0x0e	; 14
    6ce2:	e4 91       	lpm	r30, Z
    6ce4:	ee 87       	std	Y+14, r30	; 0x0e
    6ce6:	fb 01       	movw	r30, r22
    6ce8:	3f 96       	adiw	r30, 0x0f	; 15
    6cea:	e4 91       	lpm	r30, Z
    6cec:	ef 87       	std	Y+15, r30	; 0x0f
    6cee:	fb 01       	movw	r30, r22
    6cf0:	70 96       	adiw	r30, 0x10	; 16
    6cf2:	e4 91       	lpm	r30, Z
    6cf4:	e8 8b       	std	Y+16, r30	; 0x10
    6cf6:	61 e1       	ldi	r22, 0x11	; 17
    6cf8:	c8 01       	movw	r24, r16
    6cfa:	0e 94 f0 35 	call	0x6be0	; 0x6be0 <ucg_font_get_word>
    6cfe:	89 8b       	std	Y+17, r24	; 0x11
    6d00:	9a 8b       	std	Y+18, r25	; 0x12
    6d02:	63 e1       	ldi	r22, 0x13	; 19
    6d04:	c8 01       	movw	r24, r16
    6d06:	0e 94 f0 35 	call	0x6be0	; 0x6be0 <ucg_font_get_word>
    6d0a:	8b 8b       	std	Y+19, r24	; 0x13
    6d0c:	9c 8b       	std	Y+20, r25	; 0x14
    6d0e:	df 91       	pop	r29
    6d10:	cf 91       	pop	r28
    6d12:	1f 91       	pop	r17
    6d14:	0f 91       	pop	r16
    6d16:	08 95       	ret

00006d18 <ucg_font_decode_get_unsigned_bits>:
    6d18:	dc 01       	movw	r26, r24
    6d1a:	1a 96       	adiw	r26, 0x0a	; 10
    6d1c:	9c 91       	ld	r25, X
    6d1e:	1a 97       	sbiw	r26, 0x0a	; 10
    6d20:	ed 91       	ld	r30, X+
    6d22:	fc 91       	ld	r31, X
    6d24:	11 97       	sbiw	r26, 0x01	; 1
    6d26:	24 91       	lpm	r18, Z
    6d28:	30 e0       	ldi	r19, 0x00	; 0
    6d2a:	09 2e       	mov	r0, r25
    6d2c:	02 c0       	rjmp	.+4      	; 0x6d32 <ucg_font_decode_get_unsigned_bits+0x1a>
    6d2e:	35 95       	asr	r19
    6d30:	27 95       	ror	r18
    6d32:	0a 94       	dec	r0
    6d34:	e2 f7       	brpl	.-8      	; 0x6d2e <ucg_font_decode_get_unsigned_bits+0x16>
    6d36:	89 2f       	mov	r24, r25
    6d38:	86 0f       	add	r24, r22
    6d3a:	88 30       	cpi	r24, 0x08	; 8
    6d3c:	10 f4       	brcc	.+4      	; 0x6d42 <ucg_font_decode_get_unsigned_bits+0x2a>
    6d3e:	e2 2f       	mov	r30, r18
    6d40:	0f c0       	rjmp	.+30     	; 0x6d60 <ucg_font_decode_get_unsigned_bits+0x48>
    6d42:	31 96       	adiw	r30, 0x01	; 1
    6d44:	ed 93       	st	X+, r30
    6d46:	fc 93       	st	X, r31
    6d48:	11 97       	sbiw	r26, 0x01	; 1
    6d4a:	e4 91       	lpm	r30, Z
    6d4c:	f0 e0       	ldi	r31, 0x00	; 0
    6d4e:	38 e0       	ldi	r19, 0x08	; 8
    6d50:	39 1b       	sub	r19, r25
    6d52:	02 c0       	rjmp	.+4      	; 0x6d58 <ucg_font_decode_get_unsigned_bits+0x40>
    6d54:	ee 0f       	add	r30, r30
    6d56:	ff 1f       	adc	r31, r31
    6d58:	3a 95       	dec	r19
    6d5a:	e2 f7       	brpl	.-8      	; 0x6d54 <ucg_font_decode_get_unsigned_bits+0x3c>
    6d5c:	e2 2b       	or	r30, r18
    6d5e:	88 50       	subi	r24, 0x08	; 8
    6d60:	1a 96       	adiw	r26, 0x0a	; 10
    6d62:	8c 93       	st	X, r24
    6d64:	81 e0       	ldi	r24, 0x01	; 1
    6d66:	90 e0       	ldi	r25, 0x00	; 0
    6d68:	02 c0       	rjmp	.+4      	; 0x6d6e <ucg_font_decode_get_unsigned_bits+0x56>
    6d6a:	88 0f       	add	r24, r24
    6d6c:	99 1f       	adc	r25, r25
    6d6e:	6a 95       	dec	r22
    6d70:	e2 f7       	brpl	.-8      	; 0x6d6a <ucg_font_decode_get_unsigned_bits+0x52>
    6d72:	81 50       	subi	r24, 0x01	; 1
    6d74:	8e 23       	and	r24, r30
    6d76:	08 95       	ret

00006d78 <ucg_font_setup_decode>:
    6d78:	0f 93       	push	r16
    6d7a:	1f 93       	push	r17
    6d7c:	cf 93       	push	r28
    6d7e:	df 93       	push	r29
    6d80:	8c 01       	movw	r16, r24
    6d82:	ec 01       	movw	r28, r24
    6d84:	c8 59       	subi	r28, 0x98	; 152
    6d86:	df 4f       	sbci	r29, 0xFF	; 255
    6d88:	1a 86       	std	Y+10, r1	; 0x0a
    6d8a:	6e 5f       	subi	r22, 0xFE	; 254
    6d8c:	7f 4f       	sbci	r23, 0xFF	; 255
    6d8e:	68 83       	st	Y, r22
    6d90:	79 83       	std	Y+1, r23	; 0x01
    6d92:	fc 01       	movw	r30, r24
    6d94:	e7 58       	subi	r30, 0x87	; 135
    6d96:	ff 4f       	sbci	r31, 0xFF	; 255
    6d98:	60 81       	ld	r22, Z
    6d9a:	ce 01       	movw	r24, r28
    6d9c:	0e 94 8c 36 	call	0x6d18	; 0x6d18 <ucg_font_decode_get_unsigned_bits>
    6da0:	88 87       	std	Y+8, r24	; 0x08
    6da2:	f8 01       	movw	r30, r16
    6da4:	e6 58       	subi	r30, 0x86	; 134
    6da6:	ff 4f       	sbci	r31, 0xFF	; 255
    6da8:	60 81       	ld	r22, Z
    6daa:	ce 01       	movw	r24, r28
    6dac:	0e 94 8c 36 	call	0x6d18	; 0x6d18 <ucg_font_decode_get_unsigned_bits>
    6db0:	89 87       	std	Y+9, r24	; 0x09
    6db2:	df 91       	pop	r29
    6db4:	cf 91       	pop	r28
    6db6:	1f 91       	pop	r17
    6db8:	0f 91       	pop	r16
    6dba:	08 95       	ret

00006dbc <ucg_font_decode_get_signed_bits>:
    6dbc:	cf 93       	push	r28
    6dbe:	c6 2f       	mov	r28, r22
    6dc0:	0e 94 8c 36 	call	0x6d18	; 0x6d18 <ucg_font_decode_get_unsigned_bits>
    6dc4:	c1 50       	subi	r28, 0x01	; 1
    6dc6:	21 e0       	ldi	r18, 0x01	; 1
    6dc8:	30 e0       	ldi	r19, 0x00	; 0
    6dca:	02 c0       	rjmp	.+4      	; 0x6dd0 <ucg_font_decode_get_signed_bits+0x14>
    6dcc:	22 0f       	add	r18, r18
    6dce:	33 1f       	adc	r19, r19
    6dd0:	ca 95       	dec	r28
    6dd2:	e2 f7       	brpl	.-8      	; 0x6dcc <ucg_font_decode_get_signed_bits+0x10>
    6dd4:	82 1b       	sub	r24, r18
    6dd6:	cf 91       	pop	r28
    6dd8:	08 95       	ret

00006dda <ucg_font_decode_len>:
    6dda:	3f 92       	push	r3
    6ddc:	4f 92       	push	r4
    6dde:	5f 92       	push	r5
    6de0:	6f 92       	push	r6
    6de2:	7f 92       	push	r7
    6de4:	8f 92       	push	r8
    6de6:	9f 92       	push	r9
    6de8:	af 92       	push	r10
    6dea:	bf 92       	push	r11
    6dec:	cf 92       	push	r12
    6dee:	df 92       	push	r13
    6df0:	ef 92       	push	r14
    6df2:	ff 92       	push	r15
    6df4:	0f 93       	push	r16
    6df6:	1f 93       	push	r17
    6df8:	cf 93       	push	r28
    6dfa:	df 93       	push	r29
    6dfc:	4c 01       	movw	r8, r24
    6dfe:	d6 2f       	mov	r29, r22
    6e00:	44 2e       	mov	r4, r20
    6e02:	fc 01       	movw	r30, r24
    6e04:	e8 59       	subi	r30, 0x98	; 152
    6e06:	ff 4f       	sbci	r31, 0xFF	; 255
    6e08:	c6 80       	ldd	r12, Z+6	; 0x06
    6e0a:	d7 80       	ldd	r13, Z+7	; 0x07
    6e0c:	3f 01       	movw	r6, r30
    6e0e:	f3 01       	movw	r30, r6
    6e10:	c0 85       	ldd	r28, Z+8	; 0x08
    6e12:	cc 19       	sub	r28, r12
    6e14:	3d 2e       	mov	r3, r29
    6e16:	cd 17       	cp	r28, r29
    6e18:	08 f4       	brcc	.+2      	; 0x6e1c <ucg_font_decode_len+0x42>
    6e1a:	3c 2e       	mov	r3, r28
    6e1c:	f3 01       	movw	r30, r6
    6e1e:	e4 80       	ldd	r14, Z+4	; 0x04
    6e20:	f5 80       	ldd	r15, Z+5	; 0x05
    6e22:	04 85       	ldd	r16, Z+12	; 0x0c
    6e24:	5d 2c       	mov	r5, r13
    6e26:	20 2f       	mov	r18, r16
    6e28:	4d 2d       	mov	r20, r13
    6e2a:	6c 2d       	mov	r22, r12
    6e2c:	82 81       	ldd	r24, Z+2	; 0x02
    6e2e:	93 81       	ldd	r25, Z+3	; 0x03
    6e30:	0e 94 16 36 	call	0x6c2c	; 0x6c2c <ucg_add_vector_x>
    6e34:	5c 01       	movw	r10, r24
    6e36:	20 2f       	mov	r18, r16
    6e38:	4d 2d       	mov	r20, r13
    6e3a:	6c 2d       	mov	r22, r12
    6e3c:	c7 01       	movw	r24, r14
    6e3e:	0e 94 fc 35 	call	0x6bf8	; 0x6bf8 <ucg_add_vector_y>
    6e42:	44 20       	and	r4, r4
    6e44:	59 f0       	breq	.+22     	; 0x6e5c <ucg_font_decode_len+0x82>
    6e46:	10 e0       	ldi	r17, 0x00	; 0
    6e48:	23 2d       	mov	r18, r3
    6e4a:	30 e0       	ldi	r19, 0x00	; 0
    6e4c:	e1 2c       	mov	r14, r1
    6e4e:	f1 2c       	mov	r15, r1
    6e50:	ac 01       	movw	r20, r24
    6e52:	b5 01       	movw	r22, r10
    6e54:	c4 01       	movw	r24, r8
    6e56:	0e 94 3a 39 	call	0x7274	; 0x7274 <ucg_Draw90Line>
    6e5a:	0f c0       	rjmp	.+30     	; 0x6e7a <ucg_font_decode_len+0xa0>
    6e5c:	f3 01       	movw	r30, r6
    6e5e:	23 85       	ldd	r18, Z+11	; 0x0b
    6e60:	21 11       	cpse	r18, r1
    6e62:	0b c0       	rjmp	.+22     	; 0x6e7a <ucg_font_decode_len+0xa0>
    6e64:	10 e0       	ldi	r17, 0x00	; 0
    6e66:	23 2d       	mov	r18, r3
    6e68:	30 e0       	ldi	r19, 0x00	; 0
    6e6a:	ee 24       	eor	r14, r14
    6e6c:	e3 94       	inc	r14
    6e6e:	f1 2c       	mov	r15, r1
    6e70:	ac 01       	movw	r20, r24
    6e72:	b5 01       	movw	r22, r10
    6e74:	c4 01       	movw	r24, r8
    6e76:	0e 94 3a 39 	call	0x7274	; 0x7274 <ucg_Draw90Line>
    6e7a:	dc 17       	cp	r29, r28
    6e7c:	20 f0       	brcs	.+8      	; 0x6e86 <ucg_font_decode_len+0xac>
    6e7e:	dc 1b       	sub	r29, r28
    6e80:	d3 94       	inc	r13
    6e82:	c1 2c       	mov	r12, r1
    6e84:	c4 cf       	rjmp	.-120    	; 0x6e0e <ucg_font_decode_len+0x34>
    6e86:	f4 01       	movw	r30, r8
    6e88:	e8 59       	subi	r30, 0x98	; 152
    6e8a:	ff 4f       	sbci	r31, 0xFF	; 255
    6e8c:	dc 0d       	add	r29, r12
    6e8e:	d6 83       	std	Z+6, r29	; 0x06
    6e90:	57 82       	std	Z+7, r5	; 0x07
    6e92:	df 91       	pop	r29
    6e94:	cf 91       	pop	r28
    6e96:	1f 91       	pop	r17
    6e98:	0f 91       	pop	r16
    6e9a:	ff 90       	pop	r15
    6e9c:	ef 90       	pop	r14
    6e9e:	df 90       	pop	r13
    6ea0:	cf 90       	pop	r12
    6ea2:	bf 90       	pop	r11
    6ea4:	af 90       	pop	r10
    6ea6:	9f 90       	pop	r9
    6ea8:	8f 90       	pop	r8
    6eaa:	7f 90       	pop	r7
    6eac:	6f 90       	pop	r6
    6eae:	5f 90       	pop	r5
    6eb0:	4f 90       	pop	r4
    6eb2:	3f 90       	pop	r3
    6eb4:	08 95       	ret

00006eb6 <ucg_font_decode_glyph>:
    6eb6:	6f 92       	push	r6
    6eb8:	7f 92       	push	r7
    6eba:	8f 92       	push	r8
    6ebc:	9f 92       	push	r9
    6ebe:	af 92       	push	r10
    6ec0:	bf 92       	push	r11
    6ec2:	cf 92       	push	r12
    6ec4:	df 92       	push	r13
    6ec6:	ef 92       	push	r14
    6ec8:	ff 92       	push	r15
    6eca:	0f 93       	push	r16
    6ecc:	1f 93       	push	r17
    6ece:	cf 93       	push	r28
    6ed0:	df 93       	push	r29
    6ed2:	ec 01       	movw	r28, r24
    6ed4:	8c 01       	movw	r16, r24
    6ed6:	08 59       	subi	r16, 0x98	; 152
    6ed8:	1f 4f       	sbci	r17, 0xFF	; 255
    6eda:	0e 94 bc 36 	call	0x6d78	; 0x6d78 <ucg_font_setup_decode>
    6ede:	fe 01       	movw	r30, r28
    6ee0:	ef 58       	subi	r30, 0x8F	; 143
    6ee2:	ff 4f       	sbci	r31, 0xFF	; 255
    6ee4:	70 80       	ld	r7, Z
    6ee6:	3a 96       	adiw	r30, 0x0a	; 10
    6ee8:	60 81       	ld	r22, Z
    6eea:	c8 01       	movw	r24, r16
    6eec:	0e 94 de 36 	call	0x6dbc	; 0x6dbc <ucg_font_decode_get_signed_bits>
    6ef0:	c8 2e       	mov	r12, r24
    6ef2:	fe 01       	movw	r30, r28
    6ef4:	e4 58       	subi	r30, 0x84	; 132
    6ef6:	ff 4f       	sbci	r31, 0xFF	; 255
    6ef8:	60 81       	ld	r22, Z
    6efa:	c8 01       	movw	r24, r16
    6efc:	0e 94 de 36 	call	0x6dbc	; 0x6dbc <ucg_font_decode_get_signed_bits>
    6f00:	d8 2e       	mov	r13, r24
    6f02:	fe 01       	movw	r30, r28
    6f04:	e3 58       	subi	r30, 0x83	; 131
    6f06:	ff 4f       	sbci	r31, 0xFF	; 255
    6f08:	60 81       	ld	r22, Z
    6f0a:	c8 01       	movw	r24, r16
    6f0c:	0e 94 de 36 	call	0x6dbc	; 0x6dbc <ucg_font_decode_get_signed_bits>
    6f10:	68 2e       	mov	r6, r24
    6f12:	f8 01       	movw	r30, r16
    6f14:	80 85       	ldd	r24, Z+8	; 0x08
    6f16:	18 16       	cp	r1, r24
    6f18:	0c f0       	brlt	.+2      	; 0x6f1c <ucg_font_decode_glyph+0x66>
    6f1a:	42 c0       	rjmp	.+132    	; 0x6fa0 <ucg_font_decode_glyph+0xea>
    6f1c:	b4 84       	ldd	r11, Z+12	; 0x0c
    6f1e:	d7 0c       	add	r13, r7
    6f20:	d1 94       	neg	r13
    6f22:	2b 2d       	mov	r18, r11
    6f24:	4d 2d       	mov	r20, r13
    6f26:	6c 2d       	mov	r22, r12
    6f28:	82 81       	ldd	r24, Z+2	; 0x02
    6f2a:	93 81       	ldd	r25, Z+3	; 0x03
    6f2c:	0e 94 16 36 	call	0x6c2c	; 0x6c2c <ucg_add_vector_x>
    6f30:	f8 01       	movw	r30, r16
    6f32:	82 83       	std	Z+2, r24	; 0x02
    6f34:	93 83       	std	Z+3, r25	; 0x03
    6f36:	2b 2d       	mov	r18, r11
    6f38:	4d 2d       	mov	r20, r13
    6f3a:	6c 2d       	mov	r22, r12
    6f3c:	84 81       	ldd	r24, Z+4	; 0x04
    6f3e:	95 81       	ldd	r25, Z+5	; 0x05
    6f40:	0e 94 fc 35 	call	0x6bf8	; 0x6bf8 <ucg_add_vector_y>
    6f44:	f8 01       	movw	r30, r16
    6f46:	84 83       	std	Z+4, r24	; 0x04
    6f48:	95 83       	std	Z+5, r25	; 0x05
    6f4a:	16 82       	std	Z+6, r1	; 0x06
    6f4c:	17 82       	std	Z+7, r1	; 0x07
    6f4e:	4e 01       	movw	r8, r28
    6f50:	f7 e7       	ldi	r31, 0x77	; 119
    6f52:	8f 0e       	add	r8, r31
    6f54:	91 1c       	adc	r9, r1
    6f56:	5e 01       	movw	r10, r28
    6f58:	88 e7       	ldi	r24, 0x78	; 120
    6f5a:	a8 0e       	add	r10, r24
    6f5c:	b1 1c       	adc	r11, r1
    6f5e:	68 01       	movw	r12, r16
    6f60:	f4 01       	movw	r30, r8
    6f62:	60 81       	ld	r22, Z
    6f64:	c8 01       	movw	r24, r16
    6f66:	0e 94 8c 36 	call	0x6d18	; 0x6d18 <ucg_font_decode_get_unsigned_bits>
    6f6a:	e8 2e       	mov	r14, r24
    6f6c:	f5 01       	movw	r30, r10
    6f6e:	60 81       	ld	r22, Z
    6f70:	c8 01       	movw	r24, r16
    6f72:	0e 94 8c 36 	call	0x6d18	; 0x6d18 <ucg_font_decode_get_unsigned_bits>
    6f76:	f8 2e       	mov	r15, r24
    6f78:	40 e0       	ldi	r20, 0x00	; 0
    6f7a:	6e 2d       	mov	r22, r14
    6f7c:	ce 01       	movw	r24, r28
    6f7e:	0e 94 ed 36 	call	0x6dda	; 0x6dda <ucg_font_decode_len>
    6f82:	41 e0       	ldi	r20, 0x01	; 1
    6f84:	6f 2d       	mov	r22, r15
    6f86:	ce 01       	movw	r24, r28
    6f88:	0e 94 ed 36 	call	0x6dda	; 0x6dda <ucg_font_decode_len>
    6f8c:	61 e0       	ldi	r22, 0x01	; 1
    6f8e:	c8 01       	movw	r24, r16
    6f90:	0e 94 8c 36 	call	0x6d18	; 0x6d18 <ucg_font_decode_get_unsigned_bits>
    6f94:	81 11       	cpse	r24, r1
    6f96:	f0 cf       	rjmp	.-32     	; 0x6f78 <ucg_font_decode_glyph+0xc2>
    6f98:	f6 01       	movw	r30, r12
    6f9a:	87 81       	ldd	r24, Z+7	; 0x07
    6f9c:	87 15       	cp	r24, r7
    6f9e:	04 f3       	brlt	.-64     	; 0x6f60 <ucg_font_decode_glyph+0xaa>
    6fa0:	86 2d       	mov	r24, r6
    6fa2:	df 91       	pop	r29
    6fa4:	cf 91       	pop	r28
    6fa6:	1f 91       	pop	r17
    6fa8:	0f 91       	pop	r16
    6faa:	ff 90       	pop	r15
    6fac:	ef 90       	pop	r14
    6fae:	df 90       	pop	r13
    6fb0:	cf 90       	pop	r12
    6fb2:	bf 90       	pop	r11
    6fb4:	af 90       	pop	r10
    6fb6:	9f 90       	pop	r9
    6fb8:	8f 90       	pop	r8
    6fba:	7f 90       	pop	r7
    6fbc:	6f 90       	pop	r6
    6fbe:	08 95       	ret

00006fc0 <ucg_font_get_glyph_data>:
    6fc0:	fc 01       	movw	r30, r24
    6fc2:	ec 59       	subi	r30, 0x9C	; 156
    6fc4:	ff 4f       	sbci	r31, 0xFF	; 255
    6fc6:	20 81       	ld	r18, Z
    6fc8:	31 81       	ldd	r19, Z+1	; 0x01
    6fca:	2b 5e       	subi	r18, 0xEB	; 235
    6fcc:	3f 4f       	sbci	r19, 0xFF	; 255
    6fce:	61 36       	cpi	r22, 0x61	; 97
    6fd0:	30 f0       	brcs	.+12     	; 0x6fde <ucg_font_get_glyph_data+0x1e>
    6fd2:	b4 96       	adiw	r30, 0x24	; 36
    6fd4:	80 81       	ld	r24, Z
    6fd6:	91 81       	ldd	r25, Z+1	; 0x01
    6fd8:	28 0f       	add	r18, r24
    6fda:	39 1f       	adc	r19, r25
    6fdc:	09 c0       	rjmp	.+18     	; 0x6ff0 <ucg_font_get_glyph_data+0x30>
    6fde:	61 34       	cpi	r22, 0x41	; 65
    6fe0:	38 f0       	brcs	.+14     	; 0x6ff0 <ucg_font_get_glyph_data+0x30>
    6fe2:	fc 01       	movw	r30, r24
    6fe4:	ea 57       	subi	r30, 0x7A	; 122
    6fe6:	ff 4f       	sbci	r31, 0xFF	; 255
    6fe8:	80 81       	ld	r24, Z
    6fea:	91 81       	ldd	r25, Z+1	; 0x01
    6fec:	28 0f       	add	r18, r24
    6fee:	39 1f       	adc	r19, r25
    6ff0:	c9 01       	movw	r24, r18
    6ff2:	01 96       	adiw	r24, 0x01	; 1
    6ff4:	fc 01       	movw	r30, r24
    6ff6:	44 91       	lpm	r20, Z
    6ff8:	44 23       	and	r20, r20
    6ffa:	b1 f0       	breq	.+44     	; 0x7028 <ucg_font_get_glyph_data+0x68>
    6ffc:	f9 01       	movw	r30, r18
    6ffe:	44 91       	lpm	r20, Z
    7000:	64 13       	cpse	r22, r20
    7002:	05 c0       	rjmp	.+10     	; 0x700e <ucg_font_get_glyph_data+0x4e>
    7004:	14 c0       	rjmp	.+40     	; 0x702e <ucg_font_get_glyph_data+0x6e>
    7006:	f9 01       	movw	r30, r18
    7008:	44 91       	lpm	r20, Z
    700a:	64 17       	cp	r22, r20
    700c:	99 f0       	breq	.+38     	; 0x7034 <ucg_font_get_glyph_data+0x74>
    700e:	fc 01       	movw	r30, r24
    7010:	84 91       	lpm	r24, Z
    7012:	28 0f       	add	r18, r24
    7014:	31 1d       	adc	r19, r1
    7016:	c9 01       	movw	r24, r18
    7018:	01 96       	adiw	r24, 0x01	; 1
    701a:	fc 01       	movw	r30, r24
    701c:	44 91       	lpm	r20, Z
    701e:	41 11       	cpse	r20, r1
    7020:	f2 cf       	rjmp	.-28     	; 0x7006 <ucg_font_get_glyph_data+0x46>
    7022:	80 e0       	ldi	r24, 0x00	; 0
    7024:	90 e0       	ldi	r25, 0x00	; 0
    7026:	08 95       	ret
    7028:	80 e0       	ldi	r24, 0x00	; 0
    702a:	90 e0       	ldi	r25, 0x00	; 0
    702c:	08 95       	ret
    702e:	82 2f       	mov	r24, r18
    7030:	93 2f       	mov	r25, r19
    7032:	08 95       	ret
    7034:	82 2f       	mov	r24, r18
    7036:	93 2f       	mov	r25, r19
    7038:	08 95       	ret

0000703a <ucg_font_draw_glyph>:
    703a:	0f 93       	push	r16
    703c:	cf 93       	push	r28
    703e:	df 93       	push	r29
    7040:	ec 01       	movw	r28, r24
    7042:	fc 01       	movw	r30, r24
    7044:	e6 59       	subi	r30, 0x96	; 150
    7046:	ff 4f       	sbci	r31, 0xFF	; 255
    7048:	60 83       	st	Z, r22
    704a:	71 83       	std	Z+1, r23	; 0x01
    704c:	32 96       	adiw	r30, 0x02	; 2
    704e:	40 83       	st	Z, r20
    7050:	51 83       	std	Z+1, r21	; 0x01
    7052:	38 96       	adiw	r30, 0x08	; 8
    7054:	20 83       	st	Z, r18
    7056:	60 2f       	mov	r22, r16
    7058:	0e 94 e0 37 	call	0x6fc0	; 0x6fc0 <ucg_font_get_glyph_data>
    705c:	00 97       	sbiw	r24, 0x00	; 0
    705e:	41 f0       	breq	.+16     	; 0x7070 <ucg_font_draw_glyph+0x36>
    7060:	bc 01       	movw	r22, r24
    7062:	ce 01       	movw	r24, r28
    7064:	0e 94 5b 37 	call	0x6eb6	; 0x6eb6 <ucg_font_decode_glyph>
    7068:	08 2e       	mov	r0, r24
    706a:	00 0c       	add	r0, r0
    706c:	99 0b       	sbc	r25, r25
    706e:	02 c0       	rjmp	.+4      	; 0x7074 <ucg_font_draw_glyph+0x3a>
    7070:	80 e0       	ldi	r24, 0x00	; 0
    7072:	90 e0       	ldi	r25, 0x00	; 0
    7074:	df 91       	pop	r29
    7076:	cf 91       	pop	r28
    7078:	0f 91       	pop	r16
    707a:	08 95       	ret

0000707c <ucg_SetFontMode>:
    707c:	8d 58       	subi	r24, 0x8D	; 141
    707e:	9f 4f       	sbci	r25, 0xFF	; 255
    7080:	fc 01       	movw	r30, r24
    7082:	60 83       	st	Z, r22
    7084:	08 95       	ret

00007086 <ucg_DrawGlyph>:
    7086:	af 92       	push	r10
    7088:	bf 92       	push	r11
    708a:	cf 92       	push	r12
    708c:	df 92       	push	r13
    708e:	ef 92       	push	r14
    7090:	ff 92       	push	r15
    7092:	0f 93       	push	r16
    7094:	cf 93       	push	r28
    7096:	7c 01       	movw	r14, r24
    7098:	6b 01       	movw	r12, r22
    709a:	5a 01       	movw	r10, r20
    709c:	c2 2f       	mov	r28, r18
    709e:	21 30       	cpi	r18, 0x01	; 1
    70a0:	81 f0       	breq	.+32     	; 0x70c2 <ucg_DrawGlyph+0x3c>
    70a2:	28 f0       	brcs	.+10     	; 0x70ae <ucg_DrawGlyph+0x28>
    70a4:	22 30       	cpi	r18, 0x02	; 2
    70a6:	b9 f0       	breq	.+46     	; 0x70d6 <ucg_DrawGlyph+0x50>
    70a8:	23 30       	cpi	r18, 0x03	; 3
    70aa:	f9 f0       	breq	.+62     	; 0x70ea <ucg_DrawGlyph+0x64>
    70ac:	27 c0       	rjmp	.+78     	; 0x70fc <ucg_DrawGlyph+0x76>
    70ae:	fc 01       	movw	r30, r24
    70b0:	ea 59       	subi	r30, 0x9A	; 154
    70b2:	ff 4f       	sbci	r31, 0xFF	; 255
    70b4:	01 90       	ld	r0, Z+
    70b6:	f0 81       	ld	r31, Z
    70b8:	e0 2d       	mov	r30, r0
    70ba:	19 95       	eicall
    70bc:	a8 0e       	add	r10, r24
    70be:	b9 1e       	adc	r11, r25
    70c0:	1d c0       	rjmp	.+58     	; 0x70fc <ucg_DrawGlyph+0x76>
    70c2:	fc 01       	movw	r30, r24
    70c4:	ea 59       	subi	r30, 0x9A	; 154
    70c6:	ff 4f       	sbci	r31, 0xFF	; 255
    70c8:	01 90       	ld	r0, Z+
    70ca:	f0 81       	ld	r31, Z
    70cc:	e0 2d       	mov	r30, r0
    70ce:	19 95       	eicall
    70d0:	c8 1a       	sub	r12, r24
    70d2:	d9 0a       	sbc	r13, r25
    70d4:	13 c0       	rjmp	.+38     	; 0x70fc <ucg_DrawGlyph+0x76>
    70d6:	fc 01       	movw	r30, r24
    70d8:	ea 59       	subi	r30, 0x9A	; 154
    70da:	ff 4f       	sbci	r31, 0xFF	; 255
    70dc:	01 90       	ld	r0, Z+
    70de:	f0 81       	ld	r31, Z
    70e0:	e0 2d       	mov	r30, r0
    70e2:	19 95       	eicall
    70e4:	a8 1a       	sub	r10, r24
    70e6:	b9 0a       	sbc	r11, r25
    70e8:	09 c0       	rjmp	.+18     	; 0x70fc <ucg_DrawGlyph+0x76>
    70ea:	fc 01       	movw	r30, r24
    70ec:	ea 59       	subi	r30, 0x9A	; 154
    70ee:	ff 4f       	sbci	r31, 0xFF	; 255
    70f0:	01 90       	ld	r0, Z+
    70f2:	f0 81       	ld	r31, Z
    70f4:	e0 2d       	mov	r30, r0
    70f6:	19 95       	eicall
    70f8:	c8 0e       	add	r12, r24
    70fa:	d9 1e       	adc	r13, r25
    70fc:	2c 2f       	mov	r18, r28
    70fe:	a5 01       	movw	r20, r10
    7100:	b6 01       	movw	r22, r12
    7102:	c7 01       	movw	r24, r14
    7104:	0e 94 1d 38 	call	0x703a	; 0x703a <ucg_font_draw_glyph>
    7108:	cf 91       	pop	r28
    710a:	0f 91       	pop	r16
    710c:	ff 90       	pop	r15
    710e:	ef 90       	pop	r14
    7110:	df 90       	pop	r13
    7112:	cf 90       	pop	r12
    7114:	bf 90       	pop	r11
    7116:	af 90       	pop	r10
    7118:	08 95       	ret

0000711a <ucg_UpdateRefHeight>:
    711a:	fc 01       	movw	r30, r24
    711c:	ec 59       	subi	r30, 0x9C	; 156
    711e:	ff 4f       	sbci	r31, 0xFF	; 255
    7120:	20 81       	ld	r18, Z
    7122:	31 81       	ldd	r19, Z+1	; 0x01
    7124:	23 2b       	or	r18, r19
    7126:	e1 f1       	breq	.+120    	; 0x71a0 <ucg_UpdateRefHeight+0x86>
    7128:	7e 96       	adiw	r30, 0x1e	; 30
    712a:	20 81       	ld	r18, Z
    712c:	3e 96       	adiw	r30, 0x0e	; 14
    712e:	20 83       	st	Z, r18
    7130:	3d 97       	sbiw	r30, 0x0d	; 13
    7132:	40 81       	ld	r20, Z
    7134:	3e 96       	adiw	r30, 0x0e	; 14
    7136:	40 83       	st	Z, r20
    7138:	32 97       	sbiw	r30, 0x02	; 2
    713a:	30 81       	ld	r19, Z
    713c:	33 23       	and	r19, r19
    713e:	81 f1       	breq	.+96     	; 0x71a0 <ucg_UpdateRefHeight+0x86>
    7140:	31 30       	cpi	r19, 0x01	; 1
    7142:	79 f4       	brne	.+30     	; 0x7162 <ucg_UpdateRefHeight+0x48>
    7144:	3b 97       	sbiw	r30, 0x0b	; 11
    7146:	30 81       	ld	r19, Z
    7148:	23 17       	cp	r18, r19
    714a:	14 f4       	brge	.+4      	; 0x7150 <ucg_UpdateRefHeight+0x36>
    714c:	3c 96       	adiw	r30, 0x0c	; 12
    714e:	30 83       	st	Z, r19
    7150:	fc 01       	movw	r30, r24
    7152:	eb 57       	subi	r30, 0x7B	; 123
    7154:	ff 4f       	sbci	r31, 0xFF	; 255
    7156:	20 81       	ld	r18, Z
    7158:	24 17       	cp	r18, r20
    715a:	14 f5       	brge	.+68     	; 0x71a0 <ucg_UpdateRefHeight+0x86>
    715c:	3c 96       	adiw	r30, 0x0c	; 12
    715e:	20 83       	st	Z, r18
    7160:	08 95       	ret
    7162:	fc 01       	movw	r30, r24
    7164:	e1 58       	subi	r30, 0x81	; 129
    7166:	ff 4f       	sbci	r31, 0xFF	; 255
    7168:	e0 81       	ld	r30, Z
    716a:	dc 01       	movw	r26, r24
    716c:	af 57       	subi	r26, 0x7F	; 127
    716e:	bf 4f       	sbci	r27, 0xFF	; 255
    7170:	5c 91       	ld	r21, X
    7172:	02 2e       	mov	r0, r18
    7174:	00 0c       	add	r0, r0
    7176:	33 0b       	sbc	r19, r19
    7178:	65 2f       	mov	r22, r21
    717a:	05 2e       	mov	r0, r21
    717c:	00 0c       	add	r0, r0
    717e:	77 0b       	sbc	r23, r23
    7180:	6e 0f       	add	r22, r30
    7182:	71 1d       	adc	r23, r1
    7184:	e7 fd       	sbrc	r30, 7
    7186:	7a 95       	dec	r23
    7188:	26 17       	cp	r18, r22
    718a:	37 07       	cpc	r19, r23
    718c:	1c f4       	brge	.+6      	; 0x7194 <ucg_UpdateRefHeight+0x7a>
    718e:	1f 96       	adiw	r26, 0x0f	; 15
    7190:	e5 0f       	add	r30, r21
    7192:	ec 93       	st	X, r30
    7194:	54 17       	cp	r21, r20
    7196:	24 f4       	brge	.+8      	; 0x71a0 <ucg_UpdateRefHeight+0x86>
    7198:	fc 01       	movw	r30, r24
    719a:	ef 56       	subi	r30, 0x6F	; 111
    719c:	ff 4f       	sbci	r31, 0xFF	; 255
    719e:	50 83       	st	Z, r21
    71a0:	08 95       	ret

000071a2 <ucg_SetFontPosBaseline>:
    71a2:	8a 59       	subi	r24, 0x9A	; 154
    71a4:	9f 4f       	sbci	r25, 0xFF	; 255
    71a6:	20 e3       	ldi	r18, 0x30	; 48
    71a8:	36 e3       	ldi	r19, 0x36	; 54
    71aa:	fc 01       	movw	r30, r24
    71ac:	20 83       	st	Z, r18
    71ae:	31 83       	std	Z+1, r19	; 0x01
    71b0:	08 95       	ret

000071b2 <ucg_SetFont>:
    71b2:	cf 93       	push	r28
    71b4:	df 93       	push	r29
    71b6:	fc 01       	movw	r30, r24
    71b8:	ec 59       	subi	r30, 0x9C	; 156
    71ba:	ff 4f       	sbci	r31, 0xFF	; 255
    71bc:	20 81       	ld	r18, Z
    71be:	31 81       	ldd	r19, Z+1	; 0x01
    71c0:	26 17       	cp	r18, r22
    71c2:	37 07       	cpc	r19, r23
    71c4:	51 f0       	breq	.+20     	; 0x71da <ucg_SetFont+0x28>
    71c6:	ec 01       	movw	r28, r24
    71c8:	60 83       	st	Z, r22
    71ca:	71 83       	std	Z+1, r23	; 0x01
    71cc:	8b 58       	subi	r24, 0x8B	; 139
    71ce:	9f 4f       	sbci	r25, 0xFF	; 255
    71d0:	0e 94 33 36 	call	0x6c66	; 0x6c66 <ucg_read_font_info>
    71d4:	ce 01       	movw	r24, r28
    71d6:	0e 94 8d 38 	call	0x711a	; 0x711a <ucg_UpdateRefHeight>
    71da:	df 91       	pop	r29
    71dc:	cf 91       	pop	r28
    71de:	08 95       	ret

000071e0 <ucg_init_struct>:
    71e0:	fc 01       	movw	r30, r24
    71e2:	80 81       	ld	r24, Z
    71e4:	8e 7f       	andi	r24, 0xFE	; 254
    71e6:	80 83       	st	Z, r24
    71e8:	11 86       	std	Z+9, r1	; 0x09
    71ea:	12 86       	std	Z+10, r1	; 0x0a
    71ec:	81 e0       	ldi	r24, 0x01	; 1
    71ee:	90 e0       	ldi	r25, 0x00	; 0
    71f0:	80 a3       	std	Z+32, r24	; 0x20
    71f2:	91 a3       	std	Z+33, r25	; 0x21
    71f4:	df 01       	movw	r26, r30
    71f6:	ac 59       	subi	r26, 0x9C	; 156
    71f8:	bf 4f       	sbci	r27, 0xFF	; 255
    71fa:	1d 92       	st	X+, r1
    71fc:	1c 92       	st	X, r1
    71fe:	11 97       	sbiw	r26, 0x01	; 1
    7200:	1f 96       	adiw	r26, 0x0f	; 15
    7202:	8c 93       	st	X, r24
    7204:	5f 96       	adiw	r26, 0x1f	; 31
    7206:	1c 92       	st	X, r1
    7208:	11 96       	adiw	r26, 0x01	; 1
    720a:	1c 92       	st	X, r1
    720c:	ec 56       	subi	r30, 0x6C	; 108
    720e:	ff 4f       	sbci	r31, 0xFF	; 255
    7210:	10 82       	st	Z, r1
    7212:	08 95       	ret

00007214 <ucg_Init>:
    7214:	cf 92       	push	r12
    7216:	df 92       	push	r13
    7218:	ef 92       	push	r14
    721a:	ff 92       	push	r15
    721c:	0f 93       	push	r16
    721e:	1f 93       	push	r17
    7220:	cf 93       	push	r28
    7222:	df 93       	push	r29
    7224:	ec 01       	movw	r28, r24
    7226:	6b 01       	movw	r12, r22
    7228:	8a 01       	movw	r16, r20
    722a:	79 01       	movw	r14, r18
    722c:	0e 94 f0 38 	call	0x71e0	; 0x71e0 <ucg_init_struct>
    7230:	01 15       	cp	r16, r1
    7232:	11 05       	cpc	r17, r1
    7234:	29 f4       	brne	.+10     	; 0x7240 <ucg_Init+0x2c>
    7236:	8b e9       	ldi	r24, 0x9B	; 155
    7238:	93 e3       	ldi	r25, 0x33	; 51
    723a:	8f 83       	std	Y+7, r24	; 0x07
    723c:	98 87       	std	Y+8, r25	; 0x08
    723e:	02 c0       	rjmp	.+4      	; 0x7244 <ucg_Init+0x30>
    7240:	0f 83       	std	Y+7, r16	; 0x07
    7242:	18 87       	std	Y+8, r17	; 0x08
    7244:	cd 82       	std	Y+5, r12	; 0x05
    7246:	de 82       	std	Y+6, r13	; 0x06
    7248:	e9 8a       	std	Y+17, r14	; 0x11
    724a:	fa 8a       	std	Y+18, r15	; 0x12
    724c:	ce 01       	movw	r24, r28
    724e:	0e 94 d1 38 	call	0x71a2	; 0x71a2 <ucg_SetFontPosBaseline>
    7252:	ce 01       	movw	r24, r28
    7254:	0e 94 65 35 	call	0x6aca	; 0x6aca <ucg_PowerUp>
    7258:	8c 01       	movw	r16, r24
    725a:	ce 01       	movw	r24, r28
    725c:	0e 94 a3 35 	call	0x6b46	; 0x6b46 <ucg_GetDimension>
    7260:	c8 01       	movw	r24, r16
    7262:	df 91       	pop	r29
    7264:	cf 91       	pop	r28
    7266:	1f 91       	pop	r17
    7268:	0f 91       	pop	r16
    726a:	ff 90       	pop	r15
    726c:	ef 90       	pop	r14
    726e:	df 90       	pop	r13
    7270:	cf 90       	pop	r12
    7272:	08 95       	ret

00007274 <ucg_Draw90Line>:
    7274:	ef 92       	push	r14
    7276:	ff 92       	push	r15
    7278:	0f 93       	push	r16
    727a:	1f 93       	push	r17
    727c:	fc 01       	movw	r30, r24
    727e:	d7 01       	movw	r26, r14
    7280:	aa 0f       	add	r26, r26
    7282:	bb 1f       	adc	r27, r27
    7284:	ea 0e       	add	r14, r26
    7286:	fb 1e       	adc	r15, r27
    7288:	dc 01       	movw	r26, r24
    728a:	ae 0d       	add	r26, r14
    728c:	bf 1d       	adc	r27, r15
    728e:	96 96       	adiw	r26, 0x26	; 38
    7290:	8c 91       	ld	r24, X
    7292:	96 97       	sbiw	r26, 0x26	; 38
    7294:	87 8b       	std	Z+23, r24	; 0x17
    7296:	97 96       	adiw	r26, 0x27	; 39
    7298:	8c 91       	ld	r24, X
    729a:	97 97       	sbiw	r26, 0x27	; 39
    729c:	80 8f       	std	Z+24, r24	; 0x18
    729e:	98 96       	adiw	r26, 0x28	; 40
    72a0:	8c 91       	ld	r24, X
    72a2:	81 8f       	std	Z+25, r24	; 0x19
    72a4:	63 8b       	std	Z+19, r22	; 0x13
    72a6:	74 8b       	std	Z+20, r23	; 0x14
    72a8:	45 8b       	std	Z+21, r20	; 0x15
    72aa:	56 8b       	std	Z+22, r21	; 0x16
    72ac:	22 8f       	std	Z+26, r18	; 0x1a
    72ae:	33 8f       	std	Z+27, r19	; 0x1b
    72b0:	04 8f       	std	Z+28, r16	; 0x1c
    72b2:	15 8f       	std	Z+29, r17	; 0x1d
    72b4:	cf 01       	movw	r24, r30
    72b6:	0e 94 b4 35 	call	0x6b68	; 0x6b68 <ucg_DrawL90FXWithArg>
    72ba:	1f 91       	pop	r17
    72bc:	0f 91       	pop	r16
    72be:	ff 90       	pop	r15
    72c0:	ef 90       	pop	r14
    72c2:	08 95       	ret

000072c4 <ucg_DrawHLine>:
    72c4:	fc 01       	movw	r30, r24
    72c6:	86 a1       	ldd	r24, Z+38	; 0x26
    72c8:	87 8b       	std	Z+23, r24	; 0x17
    72ca:	87 a1       	ldd	r24, Z+39	; 0x27
    72cc:	80 8f       	std	Z+24, r24	; 0x18
    72ce:	80 a5       	ldd	r24, Z+40	; 0x28
    72d0:	81 8f       	std	Z+25, r24	; 0x19
    72d2:	63 8b       	std	Z+19, r22	; 0x13
    72d4:	74 8b       	std	Z+20, r23	; 0x14
    72d6:	45 8b       	std	Z+21, r20	; 0x15
    72d8:	56 8b       	std	Z+22, r21	; 0x16
    72da:	22 8f       	std	Z+26, r18	; 0x1a
    72dc:	33 8f       	std	Z+27, r19	; 0x1b
    72de:	14 8e       	std	Z+28, r1	; 0x1c
    72e0:	15 8e       	std	Z+29, r1	; 0x1d
    72e2:	cf 01       	movw	r24, r30
    72e4:	0e 94 b4 35 	call	0x6b68	; 0x6b68 <ucg_DrawL90FXWithArg>
    72e8:	08 95       	ret

000072ea <ucg_SetColor>:
    72ea:	0f 93       	push	r16
    72ec:	70 e0       	ldi	r23, 0x00	; 0
    72ee:	fb 01       	movw	r30, r22
    72f0:	ee 0f       	add	r30, r30
    72f2:	ff 1f       	adc	r31, r31
    72f4:	6e 0f       	add	r22, r30
    72f6:	7f 1f       	adc	r23, r31
    72f8:	fc 01       	movw	r30, r24
    72fa:	e6 0f       	add	r30, r22
    72fc:	f7 1f       	adc	r31, r23
    72fe:	46 a3       	std	Z+38, r20	; 0x26
    7300:	27 a3       	std	Z+39, r18	; 0x27
    7302:	00 a7       	std	Z+40, r16	; 0x28
    7304:	0f 91       	pop	r16
    7306:	08 95       	ret

00007308 <ucg_dev_rotate90>:
    7308:	0f 93       	push	r16
    730a:	1f 93       	push	r17
    730c:	cf 93       	push	r28
    730e:	df 93       	push	r29
    7310:	ec 01       	movw	r28, r24
    7312:	8a 01       	movw	r16, r20
    7314:	66 31       	cpi	r22, 0x16	; 22
    7316:	71 05       	cpc	r23, r1
    7318:	5c f4       	brge	.+22     	; 0x7330 <ucg_dev_rotate90+0x28>
    731a:	64 31       	cpi	r22, 0x14	; 20
    731c:	71 05       	cpc	r23, r1
    731e:	0c f0       	brlt	.+2      	; 0x7322 <ucg_dev_rotate90+0x1a>
    7320:	4b c0       	rjmp	.+150    	; 0x73b8 <ucg_dev_rotate90+0xb0>
    7322:	6c 30       	cpi	r22, 0x0C	; 12
    7324:	71 05       	cpc	r23, r1
    7326:	f9 f0       	breq	.+62     	; 0x7366 <ucg_dev_rotate90+0x5e>
    7328:	6f 30       	cpi	r22, 0x0F	; 15
    732a:	71 05       	cpc	r23, r1
    732c:	31 f0       	breq	.+12     	; 0x733a <ucg_dev_rotate90+0x32>
    732e:	58 c0       	rjmp	.+176    	; 0x73e0 <ucg_dev_rotate90+0xd8>
    7330:	67 31       	cpi	r22, 0x17	; 23
    7332:	71 05       	cpc	r23, r1
    7334:	09 f4       	brne	.+2      	; 0x7338 <ucg_dev_rotate90+0x30>
    7336:	40 c0       	rjmp	.+128    	; 0x73b8 <ucg_dev_rotate90+0xb0>
    7338:	53 c0       	rjmp	.+166    	; 0x73e0 <ucg_dev_rotate90+0xd8>
    733a:	ac 01       	movw	r20, r24
    733c:	45 5f       	subi	r20, 0xF5	; 245
    733e:	5f 4f       	sbci	r21, 0xFF	; 255
    7340:	e9 85       	ldd	r30, Y+9	; 0x09
    7342:	fa 85       	ldd	r31, Y+10	; 0x0a
    7344:	6f e0       	ldi	r22, 0x0F	; 15
    7346:	70 e0       	ldi	r23, 0x00	; 0
    7348:	19 95       	eicall
    734a:	8b 85       	ldd	r24, Y+11	; 0x0b
    734c:	9c 85       	ldd	r25, Y+12	; 0x0c
    734e:	d8 01       	movw	r26, r16
    7350:	12 96       	adiw	r26, 0x02	; 2
    7352:	8d 93       	st	X+, r24
    7354:	9c 93       	st	X, r25
    7356:	13 97       	sbiw	r26, 0x03	; 3
    7358:	8d 85       	ldd	r24, Y+13	; 0x0d
    735a:	9e 85       	ldd	r25, Y+14	; 0x0e
    735c:	8d 93       	st	X+, r24
    735e:	9c 93       	st	X, r25
    7360:	81 e0       	ldi	r24, 0x01	; 1
    7362:	90 e0       	ldi	r25, 0x00	; 0
    7364:	42 c0       	rjmp	.+132    	; 0x73ea <ucg_dev_rotate90+0xe2>
    7366:	fa 01       	movw	r30, r20
    7368:	46 81       	ldd	r20, Z+6	; 0x06
    736a:	57 81       	ldd	r21, Z+7	; 0x07
    736c:	9a 01       	movw	r18, r20
    736e:	21 50       	subi	r18, 0x01	; 1
    7370:	31 09       	sbc	r19, r1
    7372:	82 81       	ldd	r24, Z+2	; 0x02
    7374:	93 81       	ldd	r25, Z+3	; 0x03
    7376:	28 0f       	add	r18, r24
    7378:	39 1f       	adc	r19, r25
    737a:	22 83       	std	Z+2, r18	; 0x02
    737c:	33 83       	std	Z+3, r19	; 0x03
    737e:	01 90       	ld	r0, Z+
    7380:	f0 81       	ld	r31, Z
    7382:	e0 2d       	mov	r30, r0
    7384:	8b 85       	ldd	r24, Y+11	; 0x0b
    7386:	9c 85       	ldd	r25, Y+12	; 0x0c
    7388:	82 1b       	sub	r24, r18
    738a:	93 0b       	sbc	r25, r19
    738c:	01 97       	sbiw	r24, 0x01	; 1
    738e:	d8 01       	movw	r26, r16
    7390:	8d 93       	st	X+, r24
    7392:	9c 93       	st	X, r25
    7394:	11 97       	sbiw	r26, 0x01	; 1
    7396:	12 96       	adiw	r26, 0x02	; 2
    7398:	ed 93       	st	X+, r30
    739a:	fc 93       	st	X, r31
    739c:	13 97       	sbiw	r26, 0x03	; 3
    739e:	14 96       	adiw	r26, 0x04	; 4
    73a0:	8d 91       	ld	r24, X+
    73a2:	9c 91       	ld	r25, X
    73a4:	15 97       	sbiw	r26, 0x05	; 5
    73a6:	14 96       	adiw	r26, 0x04	; 4
    73a8:	4d 93       	st	X+, r20
    73aa:	5c 93       	st	X, r21
    73ac:	15 97       	sbiw	r26, 0x05	; 5
    73ae:	16 96       	adiw	r26, 0x06	; 6
    73b0:	8d 93       	st	X+, r24
    73b2:	9c 93       	st	X, r25
    73b4:	17 97       	sbiw	r26, 0x07	; 7
    73b6:	14 c0       	rjmp	.+40     	; 0x73e0 <ucg_dev_rotate90+0xd8>
    73b8:	8c 8d       	ldd	r24, Y+28	; 0x1c
    73ba:	9d 8d       	ldd	r25, Y+29	; 0x1d
    73bc:	01 96       	adiw	r24, 0x01	; 1
    73be:	83 70       	andi	r24, 0x03	; 3
    73c0:	99 27       	eor	r25, r25
    73c2:	8c 8f       	std	Y+28, r24	; 0x1c
    73c4:	9d 8f       	std	Y+29, r25	; 0x1d
    73c6:	2b 89       	ldd	r18, Y+19	; 0x13
    73c8:	3c 89       	ldd	r19, Y+20	; 0x14
    73ca:	8b 85       	ldd	r24, Y+11	; 0x0b
    73cc:	9c 85       	ldd	r25, Y+12	; 0x0c
    73ce:	4d 89       	ldd	r20, Y+21	; 0x15
    73d0:	5e 89       	ldd	r21, Y+22	; 0x16
    73d2:	84 1b       	sub	r24, r20
    73d4:	95 0b       	sbc	r25, r21
    73d6:	01 97       	sbiw	r24, 0x01	; 1
    73d8:	8b 8b       	std	Y+19, r24	; 0x13
    73da:	9c 8b       	std	Y+20, r25	; 0x14
    73dc:	2d 8b       	std	Y+21, r18	; 0x15
    73de:	3e 8b       	std	Y+22, r19	; 0x16
    73e0:	e9 85       	ldd	r30, Y+9	; 0x09
    73e2:	fa 85       	ldd	r31, Y+10	; 0x0a
    73e4:	a8 01       	movw	r20, r16
    73e6:	ce 01       	movw	r24, r28
    73e8:	19 95       	eicall
    73ea:	df 91       	pop	r29
    73ec:	cf 91       	pop	r28
    73ee:	1f 91       	pop	r17
    73f0:	0f 91       	pop	r16
    73f2:	08 95       	ret

000073f4 <ucg_UndoRotate>:
    73f4:	cf 93       	push	r28
    73f6:	df 93       	push	r29
    73f8:	ec 01       	movw	r28, r24
    73fa:	89 85       	ldd	r24, Y+9	; 0x09
    73fc:	9a 85       	ldd	r25, Y+10	; 0x0a
    73fe:	00 97       	sbiw	r24, 0x00	; 0
    7400:	21 f0       	breq	.+8      	; 0x740a <ucg_UndoRotate+0x16>
    7402:	8d 83       	std	Y+5, r24	; 0x05
    7404:	9e 83       	std	Y+6, r25	; 0x06
    7406:	19 86       	std	Y+9, r1	; 0x09
    7408:	1a 86       	std	Y+10, r1	; 0x0a
    740a:	ce 01       	movw	r24, r28
    740c:	0e 94 a3 35 	call	0x6b46	; 0x6b46 <ucg_GetDimension>
    7410:	ce 01       	movw	r24, r28
    7412:	0e 94 84 35 	call	0x6b08	; 0x6b08 <ucg_SetMaxClipRange>
    7416:	df 91       	pop	r29
    7418:	cf 91       	pop	r28
    741a:	08 95       	ret

0000741c <ucg_SetRotate90>:
    741c:	cf 93       	push	r28
    741e:	df 93       	push	r29
    7420:	ec 01       	movw	r28, r24
    7422:	0e 94 fa 39 	call	0x73f4	; 0x73f4 <ucg_UndoRotate>
    7426:	8d 81       	ldd	r24, Y+5	; 0x05
    7428:	9e 81       	ldd	r25, Y+6	; 0x06
    742a:	89 87       	std	Y+9, r24	; 0x09
    742c:	9a 87       	std	Y+10, r25	; 0x0a
    742e:	84 e8       	ldi	r24, 0x84	; 132
    7430:	99 e3       	ldi	r25, 0x39	; 57
    7432:	8d 83       	std	Y+5, r24	; 0x05
    7434:	9e 83       	std	Y+6, r25	; 0x06
    7436:	ce 01       	movw	r24, r28
    7438:	0e 94 a3 35 	call	0x6b46	; 0x6b46 <ucg_GetDimension>
    743c:	ce 01       	movw	r24, r28
    743e:	0e 94 84 35 	call	0x6b08	; 0x6b08 <ucg_SetMaxClipRange>
    7442:	df 91       	pop	r29
    7444:	cf 91       	pop	r28
    7446:	08 95       	ret

00007448 <__vector_47>:
* From: https://www.arduino.cc/reference/en/language/functions/math/map/
*/
uint32_t map(uint32_t x, uint32_t in_min, uint32_t in_max, uint32_t out_min, uint32_t out_max)
{
	return (x - in_min) * (out_max - out_min) / (in_max - in_min) + out_min;
}
    7448:	1f 92       	push	r1
    744a:	0f 92       	push	r0
    744c:	0f b6       	in	r0, 0x3f	; 63
    744e:	0f 92       	push	r0
    7450:	11 24       	eor	r1, r1
    7452:	8f 93       	push	r24
    7454:	9f 93       	push	r25
    7456:	80 91 a2 20 	lds	r24, 0x20A2	; 0x8020a2 <s>
    745a:	90 91 a3 20 	lds	r25, 0x20A3	; 0x8020a3 <s+0x1>
    745e:	01 96       	adiw	r24, 0x01	; 1
    7460:	8c 33       	cpi	r24, 0x3C	; 60
    7462:	91 05       	cpc	r25, r1
    7464:	29 f0       	breq	.+10     	; 0x7470 <__vector_47+0x28>
    7466:	80 93 a2 20 	sts	0x20A2, r24	; 0x8020a2 <s>
    746a:	90 93 a3 20 	sts	0x20A3, r25	; 0x8020a3 <s+0x1>
    746e:	0d c0       	rjmp	.+26     	; 0x748a <__vector_47+0x42>
    7470:	10 92 a2 20 	sts	0x20A2, r1	; 0x8020a2 <s>
    7474:	10 92 a3 20 	sts	0x20A3, r1	; 0x8020a3 <s+0x1>
    7478:	80 91 a0 20 	lds	r24, 0x20A0	; 0x8020a0 <m>
    747c:	90 91 a1 20 	lds	r25, 0x20A1	; 0x8020a1 <m+0x1>
    7480:	01 96       	adiw	r24, 0x01	; 1
    7482:	80 93 a0 20 	sts	0x20A0, r24	; 0x8020a0 <m>
    7486:	90 93 a1 20 	sts	0x20A1, r25	; 0x8020a1 <m+0x1>
    748a:	80 91 a0 20 	lds	r24, 0x20A0	; 0x8020a0 <m>
    748e:	90 91 a1 20 	lds	r25, 0x20A1	; 0x8020a1 <m+0x1>
    7492:	cc 97       	sbiw	r24, 0x3c	; 60
    7494:	69 f4       	brne	.+26     	; 0x74b0 <__vector_47+0x68>
    7496:	10 92 a0 20 	sts	0x20A0, r1	; 0x8020a0 <m>
    749a:	10 92 a1 20 	sts	0x20A1, r1	; 0x8020a1 <m+0x1>
    749e:	80 91 9e 20 	lds	r24, 0x209E	; 0x80209e <h>
    74a2:	90 91 9f 20 	lds	r25, 0x209F	; 0x80209f <h+0x1>
    74a6:	01 96       	adiw	r24, 0x01	; 1
    74a8:	80 93 9e 20 	sts	0x209E, r24	; 0x80209e <h>
    74ac:	90 93 9f 20 	sts	0x209F, r25	; 0x80209f <h+0x1>
    74b0:	80 91 9e 20 	lds	r24, 0x209E	; 0x80209e <h>
    74b4:	90 91 9f 20 	lds	r25, 0x209F	; 0x80209f <h+0x1>
    74b8:	48 97       	sbiw	r24, 0x18	; 24
    74ba:	21 f4       	brne	.+8      	; 0x74c4 <__vector_47+0x7c>
    74bc:	10 92 9e 20 	sts	0x209E, r1	; 0x80209e <h>
    74c0:	10 92 9f 20 	sts	0x209F, r1	; 0x80209f <h+0x1>
    74c4:	9f 91       	pop	r25
    74c6:	8f 91       	pop	r24
    74c8:	0f 90       	pop	r0
    74ca:	0f be       	out	0x3f, r0	; 63
    74cc:	0f 90       	pop	r0
    74ce:	1f 90       	pop	r1
    74d0:	18 95       	reti

000074d2 <__vector_77>:
    74d2:	1f 92       	push	r1
    74d4:	0f 92       	push	r0
    74d6:	0f b6       	in	r0, 0x3f	; 63
    74d8:	0f 92       	push	r0
    74da:	11 24       	eor	r1, r1
    74dc:	8f 93       	push	r24
    74de:	80 e8       	ldi	r24, 0x80	; 128
    74e0:	80 93 87 06 	sts	0x0687, r24	; 0x800687 <__TEXT_REGION_LENGTH__+0x700687>
    74e4:	8f 91       	pop	r24
    74e6:	0f 90       	pop	r0
    74e8:	0f be       	out	0x3f, r0	; 63
    74ea:	0f 90       	pop	r0
    74ec:	1f 90       	pop	r1
    74ee:	18 95       	reti

000074f0 <alarm>:
    74f0:	0f 93       	push	r16
    74f2:	1f 93       	push	r17
    74f4:	cf 93       	push	r28
    74f6:	df 93       	push	r29
    74f8:	1f 92       	push	r1
    74fa:	1f 92       	push	r1
    74fc:	cd b7       	in	r28, 0x3d	; 61
    74fe:	de b7       	in	r29, 0x3e	; 62
    7500:	0e 94 c9 43 	call	0x8792	; 0x8792 <nrfStopListening>
    7504:	85 e1       	ldi	r24, 0x15	; 21
    7506:	90 e2       	ldi	r25, 0x20	; 32
    7508:	0e 94 26 44 	call	0x884c	; 0x884c <nrfOpenWritingPipe>
    750c:	86 e6       	ldi	r24, 0x66	; 102
    750e:	89 83       	std	Y+1, r24	; 0x01
    7510:	1f 92       	push	r1
    7512:	8f 93       	push	r24
    7514:	0b e2       	ldi	r16, 0x2B	; 43
    7516:	10 e2       	ldi	r17, 0x20	; 32
    7518:	1f 93       	push	r17
    751a:	0f 93       	push	r16
    751c:	0e 94 fb 4c 	call	0x99f6	; 0x99f6 <printf>
    7520:	61 e0       	ldi	r22, 0x01	; 1
    7522:	ce 01       	movw	r24, r28
    7524:	01 96       	adiw	r24, 0x01	; 1
    7526:	0e 94 5a 45 	call	0x8ab4	; 0x8ab4 <nrfWrite>
    752a:	80 e1       	ldi	r24, 0x10	; 16
    752c:	90 e2       	ldi	r25, 0x20	; 32
    752e:	0e 94 26 44 	call	0x884c	; 0x884c <nrfOpenWritingPipe>
    7532:	8d e6       	ldi	r24, 0x6D	; 109
    7534:	8a 83       	std	Y+2, r24	; 0x02
    7536:	1f 92       	push	r1
    7538:	8f 93       	push	r24
    753a:	1f 93       	push	r17
    753c:	0f 93       	push	r16
    753e:	0e 94 fb 4c 	call	0x99f6	; 0x99f6 <printf>
    7542:	61 e0       	ldi	r22, 0x01	; 1
    7544:	ce 01       	movw	r24, r28
    7546:	02 96       	adiw	r24, 0x02	; 2
    7548:	0e 94 5a 45 	call	0x8ab4	; 0x8ab4 <nrfWrite>
    754c:	0e 94 94 43 	call	0x8728	; 0x8728 <nrfStartListening>
    7550:	cd bf       	out	0x3d, r28	; 61
    7552:	de bf       	out	0x3e, r29	; 62
    7554:	0f 90       	pop	r0
    7556:	0f 90       	pop	r0
    7558:	df 91       	pop	r29
    755a:	cf 91       	pop	r28
    755c:	1f 91       	pop	r17
    755e:	0f 91       	pop	r16
    7560:	08 95       	ret

00007562 <getData>:
    7562:	cf 93       	push	r28
    7564:	df 93       	push	r29
    7566:	1f 92       	push	r1
    7568:	cd b7       	in	r28, 0x3d	; 61
    756a:	de b7       	in	r29, 0x3e	; 62
    756c:	0e 94 c9 43 	call	0x8792	; 0x8792 <nrfStopListening>
    7570:	80 e1       	ldi	r24, 0x10	; 16
    7572:	90 e2       	ldi	r25, 0x20	; 32
    7574:	0e 94 26 44 	call	0x884c	; 0x884c <nrfOpenWritingPipe>
    7578:	84 e6       	ldi	r24, 0x64	; 100
    757a:	89 83       	std	Y+1, r24	; 0x01
    757c:	1f 92       	push	r1
    757e:	8f 93       	push	r24
    7580:	8b e2       	ldi	r24, 0x2B	; 43
    7582:	90 e2       	ldi	r25, 0x20	; 32
    7584:	9f 93       	push	r25
    7586:	8f 93       	push	r24
    7588:	0e 94 fb 4c 	call	0x99f6	; 0x99f6 <printf>
    758c:	61 e0       	ldi	r22, 0x01	; 1
    758e:	ce 01       	movw	r24, r28
    7590:	01 96       	adiw	r24, 0x01	; 1
    7592:	0e 94 5a 45 	call	0x8ab4	; 0x8ab4 <nrfWrite>
    7596:	0e 94 94 43 	call	0x8728	; 0x8728 <nrfStartListening>
    759a:	0f 90       	pop	r0
    759c:	0f 90       	pop	r0
    759e:	0f 90       	pop	r0
    75a0:	0f 90       	pop	r0
    75a2:	0f 90       	pop	r0
    75a4:	df 91       	pop	r29
    75a6:	cf 91       	pop	r28
    75a8:	08 95       	ret

000075aa <init_klokje>:
    75aa:	e0 e0       	ldi	r30, 0x00	; 0
    75ac:	fa e0       	ldi	r31, 0x0A	; 10
    75ae:	11 82       	std	Z+1, r1	; 0x01
    75b0:	87 e0       	ldi	r24, 0x07	; 7
    75b2:	80 83       	st	Z, r24
    75b4:	81 e0       	ldi	r24, 0x01	; 1
    75b6:	86 83       	std	Z+6, r24	; 0x06
    75b8:	81 e1       	ldi	r24, 0x11	; 17
    75ba:	9a e7       	ldi	r25, 0x7A	; 122
    75bc:	86 a3       	std	Z+38, r24	; 0x26
    75be:	97 a3       	std	Z+39, r25	; 0x27
    75c0:	e0 ea       	ldi	r30, 0xA0	; 160
    75c2:	f0 e0       	ldi	r31, 0x00	; 0
    75c4:	82 81       	ldd	r24, Z+2	; 0x02
    75c6:	81 60       	ori	r24, 0x01	; 1
    75c8:	82 83       	std	Z+2, r24	; 0x02
    75ca:	78 94       	sei
    75cc:	08 95       	ret

000075ce <geluid>:
    75ce:	e0 e0       	ldi	r30, 0x00	; 0
    75d0:	f9 e0       	ldi	r31, 0x09	; 9
    75d2:	11 82       	std	Z+1, r1	; 0x01
    75d4:	23 e0       	ldi	r18, 0x03	; 3
    75d6:	20 83       	st	Z, r18
    75d8:	21 e0       	ldi	r18, 0x01	; 1
    75da:	26 83       	std	Z+6, r18	; 0x06
    75dc:	86 a3       	std	Z+38, r24	; 0x26
    75de:	97 a3       	std	Z+39, r25	; 0x27
    75e0:	e0 ea       	ldi	r30, 0xA0	; 160
    75e2:	f0 e0       	ldi	r31, 0x00	; 0
    75e4:	82 81       	ldd	r24, Z+2	; 0x02
    75e6:	81 60       	ori	r24, 0x01	; 1
    75e8:	82 83       	std	Z+2, r24	; 0x02
    75ea:	78 94       	sei
    75ec:	08 95       	ret

000075ee <prepare_screen>:
    75ee:	0f 93       	push	r16
    75f0:	88 e9       	ldi	r24, 0x98	; 152
    75f2:	91 e2       	ldi	r25, 0x21	; 33
    75f4:	0e 94 3c 2f 	call	0x5e78	; 0x5e78 <ucg_ClearScreen>
    75f8:	88 e9       	ldi	r24, 0x98	; 152
    75fa:	91 e2       	ldi	r25, 0x21	; 33
    75fc:	0e 94 0e 3a 	call	0x741c	; 0x741c <ucg_SetRotate90>
    7600:	00 e0       	ldi	r16, 0x00	; 0
    7602:	20 e0       	ldi	r18, 0x00	; 0
    7604:	4f ef       	ldi	r20, 0xFF	; 255
    7606:	60 e0       	ldi	r22, 0x00	; 0
    7608:	88 e9       	ldi	r24, 0x98	; 152
    760a:	91 e2       	ldi	r25, 0x21	; 33
    760c:	0e 94 75 39 	call	0x72ea	; 0x72ea <ucg_SetColor>
    7610:	60 e0       	ldi	r22, 0x00	; 0
    7612:	88 e9       	ldi	r24, 0x98	; 152
    7614:	91 e2       	ldi	r25, 0x21	; 33
    7616:	0e 94 3e 38 	call	0x707c	; 0x707c <ucg_SetFontMode>
    761a:	69 e7       	ldi	r22, 0x79	; 121
    761c:	73 e0       	ldi	r23, 0x03	; 3
    761e:	88 e9       	ldi	r24, 0x98	; 152
    7620:	91 e2       	ldi	r25, 0x21	; 33
    7622:	0e 94 d9 38 	call	0x71b2	; 0x71b2 <ucg_SetFont>
    7626:	0f 91       	pop	r16
    7628:	08 95       	ret

0000762a <print_info>:
    762a:	0f 93       	push	r16
    762c:	cf 93       	push	r28
    762e:	df 93       	push	r29
    7630:	0a e0       	ldi	r16, 0x0A	; 10
    7632:	2f ef       	ldi	r18, 0xFF	; 255
    7634:	4f ef       	ldi	r20, 0xFF	; 255
    7636:	60 e0       	ldi	r22, 0x00	; 0
    7638:	88 e9       	ldi	r24, 0x98	; 152
    763a:	91 e2       	ldi	r25, 0x21	; 33
    763c:	0e 94 75 39 	call	0x72ea	; 0x72ea <ucg_SetColor>
    7640:	44 e6       	ldi	r20, 0x64	; 100
    7642:	50 e0       	ldi	r21, 0x00	; 0
    7644:	6a e0       	ldi	r22, 0x0A	; 10
    7646:	70 e0       	ldi	r23, 0x00	; 0
    7648:	88 e9       	ldi	r24, 0x98	; 152
    764a:	91 e2       	ldi	r25, 0x21	; 33
    764c:	0e 94 d6 47 	call	0x8fac	; 0x8fac <ucg_SetPrintPos>
    7650:	6b e1       	ldi	r22, 0x1B	; 27
    7652:	77 e3       	ldi	r23, 0x37	; 55
    7654:	88 e9       	ldi	r24, 0x98	; 152
    7656:	91 e2       	ldi	r25, 0x21	; 33
    7658:	0e 94 d9 38 	call	0x71b2	; 0x71b2 <ucg_SetFont>
    765c:	80 91 07 20 	lds	r24, 0x2007	; 0x802007 <hum+0x1>
    7660:	8f 93       	push	r24
    7662:	80 91 06 20 	lds	r24, 0x2006	; 0x802006 <hum>
    7666:	8f 93       	push	r24
    7668:	85 e3       	ldi	r24, 0x35	; 53
    766a:	90 e2       	ldi	r25, 0x20	; 32
    766c:	9f 93       	push	r25
    766e:	8f 93       	push	r24
    7670:	c8 e9       	ldi	r28, 0x98	; 152
    7672:	d1 e2       	ldi	r29, 0x21	; 33
    7674:	df 93       	push	r29
    7676:	cf 93       	push	r28
    7678:	0e 94 e5 47 	call	0x8fca	; 0x8fca <ucg_Print>
    767c:	44 e6       	ldi	r20, 0x64	; 100
    767e:	50 e0       	ldi	r21, 0x00	; 0
    7680:	6b e4       	ldi	r22, 0x4B	; 75
    7682:	70 e0       	ldi	r23, 0x00	; 0
    7684:	ce 01       	movw	r24, r28
    7686:	0e 94 d6 47 	call	0x8fac	; 0x8fac <ucg_SetPrintPos>
    768a:	80 91 09 20 	lds	r24, 0x2009	; 0x802009 <co2+0x1>
    768e:	8f 93       	push	r24
    7690:	80 91 08 20 	lds	r24, 0x2008	; 0x802008 <co2>
    7694:	8f 93       	push	r24
    7696:	8c e3       	ldi	r24, 0x3C	; 60
    7698:	90 e2       	ldi	r25, 0x20	; 32
    769a:	9f 93       	push	r25
    769c:	8f 93       	push	r24
    769e:	df 93       	push	r29
    76a0:	cf 93       	push	r28
    76a2:	0e 94 e5 47 	call	0x8fca	; 0x8fca <ucg_Print>
    76a6:	6f e3       	ldi	r22, 0x3F	; 63
    76a8:	7e e4       	ldi	r23, 0x4E	; 78
    76aa:	ce 01       	movw	r24, r28
    76ac:	0e 94 d9 38 	call	0x71b2	; 0x71b2 <ucg_SetFont>
    76b0:	81 e4       	ldi	r24, 0x41	; 65
    76b2:	90 e2       	ldi	r25, 0x20	; 32
    76b4:	9f 93       	push	r25
    76b6:	8f 93       	push	r24
    76b8:	df 93       	push	r29
    76ba:	cf 93       	push	r28
    76bc:	0e 94 e5 47 	call	0x8fca	; 0x8fca <ucg_Print>
    76c0:	69 e7       	ldi	r22, 0x79	; 121
    76c2:	73 e0       	ldi	r23, 0x03	; 3
    76c4:	ce 01       	movw	r24, r28
    76c6:	0e 94 d9 38 	call	0x71b2	; 0x71b2 <ucg_SetFont>
    76ca:	8d b7       	in	r24, 0x3d	; 61
    76cc:	9e b7       	in	r25, 0x3e	; 62
    76ce:	40 96       	adiw	r24, 0x10	; 16
    76d0:	8d bf       	out	0x3d, r24	; 61
    76d2:	9e bf       	out	0x3e, r25	; 62
    76d4:	df 91       	pop	r29
    76d6:	cf 91       	pop	r28
    76d8:	0f 91       	pop	r16
    76da:	08 95       	ret

000076dc <set_time>:
    76dc:	80 91 08 06 	lds	r24, 0x0608	; 0x800608 <__TEXT_REGION_LENGTH__+0x700608>
    76e0:	88 23       	and	r24, r24
    76e2:	0c f0       	brlt	.+2      	; 0x76e6 <set_time+0xa>
    76e4:	43 c0       	rjmp	.+134    	; 0x776c <set_time+0x90>
    76e6:	80 91 a0 20 	lds	r24, 0x20A0	; 0x8020a0 <m>
    76ea:	90 91 a1 20 	lds	r25, 0x20A1	; 0x8020a1 <m+0x1>
    76ee:	01 96       	adiw	r24, 0x01	; 1
    76f0:	80 93 a0 20 	sts	0x20A0, r24	; 0x8020a0 <m>
    76f4:	90 93 a1 20 	sts	0x20A1, r25	; 0x8020a1 <m+0x1>
    76f8:	10 92 a2 20 	sts	0x20A2, r1	; 0x8020a2 <s>
    76fc:	10 92 a3 20 	sts	0x20A3, r1	; 0x8020a3 <s+0x1>
    7700:	cc 97       	sbiw	r24, 0x3c	; 60
    7702:	24 f0       	brlt	.+8      	; 0x770c <set_time+0x30>
    7704:	10 92 a0 20 	sts	0x20A0, r1	; 0x8020a0 <m>
    7708:	10 92 a1 20 	sts	0x20A1, r1	; 0x8020a1 <m+0x1>
    770c:	40 91 0a 20 	lds	r20, 0x200A	; 0x80200a <py>
    7710:	50 91 0b 20 	lds	r21, 0x200B	; 0x80200b <py+0x1>
    7714:	60 91 0c 20 	lds	r22, 0x200C	; 0x80200c <px>
    7718:	70 91 0d 20 	lds	r23, 0x200D	; 0x80200d <px+0x1>
    771c:	88 e9       	ldi	r24, 0x98	; 152
    771e:	91 e2       	ldi	r25, 0x21	; 33
    7720:	0e 94 d6 47 	call	0x8fac	; 0x8fac <ucg_SetPrintPos>
    7724:	80 91 a1 20 	lds	r24, 0x20A1	; 0x8020a1 <m+0x1>
    7728:	8f 93       	push	r24
    772a:	80 91 a0 20 	lds	r24, 0x20A0	; 0x8020a0 <m>
    772e:	8f 93       	push	r24
    7730:	80 91 9f 20 	lds	r24, 0x209F	; 0x80209f <h+0x1>
    7734:	8f 93       	push	r24
    7736:	80 91 9e 20 	lds	r24, 0x209E	; 0x80209e <h>
    773a:	8f 93       	push	r24
    773c:	85 e4       	ldi	r24, 0x45	; 69
    773e:	90 e2       	ldi	r25, 0x20	; 32
    7740:	9f 93       	push	r25
    7742:	8f 93       	push	r24
    7744:	88 e9       	ldi	r24, 0x98	; 152
    7746:	91 e2       	ldi	r25, 0x21	; 33
    7748:	9f 93       	push	r25
    774a:	8f 93       	push	r24
    774c:	0e 94 e5 47 	call	0x8fca	; 0x8fca <ucg_Print>
    7750:	2f ef       	ldi	r18, 0xFF	; 255
    7752:	89 ef       	ldi	r24, 0xF9	; 249
    7754:	90 e0       	ldi	r25, 0x00	; 0
    7756:	21 50       	subi	r18, 0x01	; 1
    7758:	80 40       	sbci	r24, 0x00	; 0
    775a:	90 40       	sbci	r25, 0x00	; 0
    775c:	e1 f7       	brne	.-8      	; 0x7756 <set_time+0x7a>
    775e:	00 c0       	rjmp	.+0      	; 0x7760 <set_time+0x84>
    7760:	00 00       	nop
    7762:	8d b7       	in	r24, 0x3d	; 61
    7764:	9e b7       	in	r25, 0x3e	; 62
    7766:	08 96       	adiw	r24, 0x08	; 8
    7768:	8d bf       	out	0x3d, r24	; 61
    776a:	9e bf       	out	0x3e, r25	; 62
    776c:	80 91 28 06 	lds	r24, 0x0628	; 0x800628 <__TEXT_REGION_LENGTH__+0x700628>
    7770:	80 ff       	sbrs	r24, 0
    7772:	43 c0       	rjmp	.+134    	; 0x77fa <set_time+0x11e>
    7774:	80 91 9e 20 	lds	r24, 0x209E	; 0x80209e <h>
    7778:	90 91 9f 20 	lds	r25, 0x209F	; 0x80209f <h+0x1>
    777c:	01 96       	adiw	r24, 0x01	; 1
    777e:	80 93 9e 20 	sts	0x209E, r24	; 0x80209e <h>
    7782:	90 93 9f 20 	sts	0x209F, r25	; 0x80209f <h+0x1>
    7786:	10 92 a2 20 	sts	0x20A2, r1	; 0x8020a2 <s>
    778a:	10 92 a3 20 	sts	0x20A3, r1	; 0x8020a3 <s+0x1>
    778e:	48 97       	sbiw	r24, 0x18	; 24
    7790:	24 f0       	brlt	.+8      	; 0x779a <set_time+0xbe>
    7792:	10 92 9e 20 	sts	0x209E, r1	; 0x80209e <h>
    7796:	10 92 9f 20 	sts	0x209F, r1	; 0x80209f <h+0x1>
    779a:	40 91 0a 20 	lds	r20, 0x200A	; 0x80200a <py>
    779e:	50 91 0b 20 	lds	r21, 0x200B	; 0x80200b <py+0x1>
    77a2:	60 91 0c 20 	lds	r22, 0x200C	; 0x80200c <px>
    77a6:	70 91 0d 20 	lds	r23, 0x200D	; 0x80200d <px+0x1>
    77aa:	88 e9       	ldi	r24, 0x98	; 152
    77ac:	91 e2       	ldi	r25, 0x21	; 33
    77ae:	0e 94 d6 47 	call	0x8fac	; 0x8fac <ucg_SetPrintPos>
    77b2:	80 91 a1 20 	lds	r24, 0x20A1	; 0x8020a1 <m+0x1>
    77b6:	8f 93       	push	r24
    77b8:	80 91 a0 20 	lds	r24, 0x20A0	; 0x8020a0 <m>
    77bc:	8f 93       	push	r24
    77be:	80 91 9f 20 	lds	r24, 0x209F	; 0x80209f <h+0x1>
    77c2:	8f 93       	push	r24
    77c4:	80 91 9e 20 	lds	r24, 0x209E	; 0x80209e <h>
    77c8:	8f 93       	push	r24
    77ca:	85 e4       	ldi	r24, 0x45	; 69
    77cc:	90 e2       	ldi	r25, 0x20	; 32
    77ce:	9f 93       	push	r25
    77d0:	8f 93       	push	r24
    77d2:	88 e9       	ldi	r24, 0x98	; 152
    77d4:	91 e2       	ldi	r25, 0x21	; 33
    77d6:	9f 93       	push	r25
    77d8:	8f 93       	push	r24
    77da:	0e 94 e5 47 	call	0x8fca	; 0x8fca <ucg_Print>
    77de:	9f ef       	ldi	r25, 0xFF	; 255
    77e0:	29 ef       	ldi	r18, 0xF9	; 249
    77e2:	80 e0       	ldi	r24, 0x00	; 0
    77e4:	91 50       	subi	r25, 0x01	; 1
    77e6:	20 40       	sbci	r18, 0x00	; 0
    77e8:	80 40       	sbci	r24, 0x00	; 0
    77ea:	e1 f7       	brne	.-8      	; 0x77e4 <set_time+0x108>
    77ec:	00 c0       	rjmp	.+0      	; 0x77ee <set_time+0x112>
    77ee:	00 00       	nop
    77f0:	8d b7       	in	r24, 0x3d	; 61
    77f2:	9e b7       	in	r25, 0x3e	; 62
    77f4:	08 96       	adiw	r24, 0x08	; 8
    77f6:	8d bf       	out	0x3d, r24	; 61
    77f8:	9e bf       	out	0x3e, r25	; 62
    77fa:	08 95       	ret

000077fc <set_alarm>:
    77fc:	80 91 08 06 	lds	r24, 0x0608	; 0x800608 <__TEXT_REGION_LENGTH__+0x700608>
    7800:	88 23       	and	r24, r24
    7802:	0c f0       	brlt	.+2      	; 0x7806 <set_alarm+0xa>
    7804:	43 c0       	rjmp	.+134    	; 0x788c <set_alarm+0x90>
    7806:	80 91 9c 20 	lds	r24, 0x209C	; 0x80209c <am>
    780a:	90 91 9d 20 	lds	r25, 0x209D	; 0x80209d <am+0x1>
    780e:	01 96       	adiw	r24, 0x01	; 1
    7810:	80 93 9c 20 	sts	0x209C, r24	; 0x80209c <am>
    7814:	90 93 9d 20 	sts	0x209D, r25	; 0x80209d <am+0x1>
    7818:	10 92 0e 20 	sts	0x200E, r1	; 0x80200e <as>
    781c:	10 92 0f 20 	sts	0x200F, r1	; 0x80200f <as+0x1>
    7820:	cc 97       	sbiw	r24, 0x3c	; 60
    7822:	24 f0       	brlt	.+8      	; 0x782c <set_alarm+0x30>
    7824:	10 92 9c 20 	sts	0x209C, r1	; 0x80209c <am>
    7828:	10 92 9d 20 	sts	0x209D, r1	; 0x80209d <am+0x1>
    782c:	40 91 0a 20 	lds	r20, 0x200A	; 0x80200a <py>
    7830:	50 91 0b 20 	lds	r21, 0x200B	; 0x80200b <py+0x1>
    7834:	60 91 0c 20 	lds	r22, 0x200C	; 0x80200c <px>
    7838:	70 91 0d 20 	lds	r23, 0x200D	; 0x80200d <px+0x1>
    783c:	88 e9       	ldi	r24, 0x98	; 152
    783e:	91 e2       	ldi	r25, 0x21	; 33
    7840:	0e 94 d6 47 	call	0x8fac	; 0x8fac <ucg_SetPrintPos>
    7844:	80 91 9d 20 	lds	r24, 0x209D	; 0x80209d <am+0x1>
    7848:	8f 93       	push	r24
    784a:	80 91 9c 20 	lds	r24, 0x209C	; 0x80209c <am>
    784e:	8f 93       	push	r24
    7850:	80 91 9b 20 	lds	r24, 0x209B	; 0x80209b <__data_end+0x1>
    7854:	8f 93       	push	r24
    7856:	80 91 9a 20 	lds	r24, 0x209A	; 0x80209a <__data_end>
    785a:	8f 93       	push	r24
    785c:	85 e4       	ldi	r24, 0x45	; 69
    785e:	90 e2       	ldi	r25, 0x20	; 32
    7860:	9f 93       	push	r25
    7862:	8f 93       	push	r24
    7864:	88 e9       	ldi	r24, 0x98	; 152
    7866:	91 e2       	ldi	r25, 0x21	; 33
    7868:	9f 93       	push	r25
    786a:	8f 93       	push	r24
    786c:	0e 94 e5 47 	call	0x8fca	; 0x8fca <ucg_Print>
    7870:	2f ef       	ldi	r18, 0xFF	; 255
    7872:	89 ef       	ldi	r24, 0xF9	; 249
    7874:	90 e0       	ldi	r25, 0x00	; 0
    7876:	21 50       	subi	r18, 0x01	; 1
    7878:	80 40       	sbci	r24, 0x00	; 0
    787a:	90 40       	sbci	r25, 0x00	; 0
    787c:	e1 f7       	brne	.-8      	; 0x7876 <set_alarm+0x7a>
    787e:	00 c0       	rjmp	.+0      	; 0x7880 <set_alarm+0x84>
    7880:	00 00       	nop
    7882:	8d b7       	in	r24, 0x3d	; 61
    7884:	9e b7       	in	r25, 0x3e	; 62
    7886:	08 96       	adiw	r24, 0x08	; 8
    7888:	8d bf       	out	0x3d, r24	; 61
    788a:	9e bf       	out	0x3e, r25	; 62
    788c:	80 91 28 06 	lds	r24, 0x0628	; 0x800628 <__TEXT_REGION_LENGTH__+0x700628>
    7890:	80 ff       	sbrs	r24, 0
    7892:	43 c0       	rjmp	.+134    	; 0x791a <set_alarm+0x11e>
    7894:	80 91 9a 20 	lds	r24, 0x209A	; 0x80209a <__data_end>
    7898:	90 91 9b 20 	lds	r25, 0x209B	; 0x80209b <__data_end+0x1>
    789c:	01 96       	adiw	r24, 0x01	; 1
    789e:	80 93 9a 20 	sts	0x209A, r24	; 0x80209a <__data_end>
    78a2:	90 93 9b 20 	sts	0x209B, r25	; 0x80209b <__data_end+0x1>
    78a6:	10 92 0e 20 	sts	0x200E, r1	; 0x80200e <as>
    78aa:	10 92 0f 20 	sts	0x200F, r1	; 0x80200f <as+0x1>
    78ae:	48 97       	sbiw	r24, 0x18	; 24
    78b0:	24 f0       	brlt	.+8      	; 0x78ba <set_alarm+0xbe>
    78b2:	10 92 9a 20 	sts	0x209A, r1	; 0x80209a <__data_end>
    78b6:	10 92 9b 20 	sts	0x209B, r1	; 0x80209b <__data_end+0x1>
    78ba:	40 91 0a 20 	lds	r20, 0x200A	; 0x80200a <py>
    78be:	50 91 0b 20 	lds	r21, 0x200B	; 0x80200b <py+0x1>
    78c2:	60 91 0c 20 	lds	r22, 0x200C	; 0x80200c <px>
    78c6:	70 91 0d 20 	lds	r23, 0x200D	; 0x80200d <px+0x1>
    78ca:	88 e9       	ldi	r24, 0x98	; 152
    78cc:	91 e2       	ldi	r25, 0x21	; 33
    78ce:	0e 94 d6 47 	call	0x8fac	; 0x8fac <ucg_SetPrintPos>
    78d2:	80 91 9d 20 	lds	r24, 0x209D	; 0x80209d <am+0x1>
    78d6:	8f 93       	push	r24
    78d8:	80 91 9c 20 	lds	r24, 0x209C	; 0x80209c <am>
    78dc:	8f 93       	push	r24
    78de:	80 91 9b 20 	lds	r24, 0x209B	; 0x80209b <__data_end+0x1>
    78e2:	8f 93       	push	r24
    78e4:	80 91 9a 20 	lds	r24, 0x209A	; 0x80209a <__data_end>
    78e8:	8f 93       	push	r24
    78ea:	85 e4       	ldi	r24, 0x45	; 69
    78ec:	90 e2       	ldi	r25, 0x20	; 32
    78ee:	9f 93       	push	r25
    78f0:	8f 93       	push	r24
    78f2:	88 e9       	ldi	r24, 0x98	; 152
    78f4:	91 e2       	ldi	r25, 0x21	; 33
    78f6:	9f 93       	push	r25
    78f8:	8f 93       	push	r24
    78fa:	0e 94 e5 47 	call	0x8fca	; 0x8fca <ucg_Print>
    78fe:	9f ef       	ldi	r25, 0xFF	; 255
    7900:	29 ef       	ldi	r18, 0xF9	; 249
    7902:	80 e0       	ldi	r24, 0x00	; 0
    7904:	91 50       	subi	r25, 0x01	; 1
    7906:	20 40       	sbci	r18, 0x00	; 0
    7908:	80 40       	sbci	r24, 0x00	; 0
    790a:	e1 f7       	brne	.-8      	; 0x7904 <set_alarm+0x108>
    790c:	00 c0       	rjmp	.+0      	; 0x790e <set_alarm+0x112>
    790e:	00 00       	nop
    7910:	8d b7       	in	r24, 0x3d	; 61
    7912:	9e b7       	in	r25, 0x3e	; 62
    7914:	08 96       	adiw	r24, 0x08	; 8
    7916:	8d bf       	out	0x3d, r24	; 61
    7918:	9e bf       	out	0x3e, r25	; 62
    791a:	08 95       	ret

0000791c <init_nrf>:
    791c:	0e 94 8e 45 	call	0x8b1c	; 0x8b1c <nrfspiInit>
    7920:	0e 94 65 45 	call	0x8aca	; 0x8aca <nrfBegin>
    7924:	68 e0       	ldi	r22, 0x08	; 8
    7926:	80 e3       	ldi	r24, 0x30	; 48
    7928:	0e 94 09 45 	call	0x8a12	; 0x8a12 <nrfSetRetries>
    792c:	84 e0       	ldi	r24, 0x04	; 4
    792e:	0e 94 d7 44 	call	0x89ae	; 0x89ae <nrfSetPALevel>
    7932:	80 e2       	ldi	r24, 0x20	; 32
    7934:	0e 94 e5 44 	call	0x89ca	; 0x89ca <nrfSetDataRate>
    7938:	8c e0       	ldi	r24, 0x0C	; 12
    793a:	0e 94 fb 44 	call	0x89f6	; 0x89f6 <nrfSetCRCLength>
    793e:	80 e2       	ldi	r24, 0x20	; 32
    7940:	0e 94 bf 44 	call	0x897e	; 0x897e <nrfSetChannel>
    7944:	81 e0       	ldi	r24, 0x01	; 1
    7946:	0e 94 cb 44 	call	0x8996	; 0x8996 <nrfSetAutoAck>
    794a:	0e 94 9c 44 	call	0x8938	; 0x8938 <nrfEnableDynamicPayloads>
    794e:	0e 94 60 45 	call	0x8ac0	; 0x8ac0 <nrfClearInterruptBits>
    7952:	0e 94 76 43 	call	0x86ec	; 0x86ec <nrfFlushRx>
    7956:	0e 94 85 43 	call	0x870a	; 0x870a <nrfFlushTx>
    795a:	e0 ea       	ldi	r30, 0xA0	; 160
    795c:	f6 e0       	ldi	r31, 0x06	; 6
    795e:	82 85       	ldd	r24, Z+10	; 0x0a
    7960:	80 64       	ori	r24, 0x40	; 64
    7962:	82 87       	std	Z+10, r24	; 0x0a
    7964:	82 e0       	ldi	r24, 0x02	; 2
    7966:	86 8b       	std	Z+22, r24	; 0x16
    7968:	81 85       	ldd	r24, Z+9	; 0x09
    796a:	8c 7f       	andi	r24, 0xFC	; 252
    796c:	81 60       	ori	r24, 0x01	; 1
    796e:	81 87       	std	Z+9, r24	; 0x09
    7970:	65 e1       	ldi	r22, 0x15	; 21
    7972:	70 e2       	ldi	r23, 0x20	; 32
    7974:	80 e0       	ldi	r24, 0x00	; 0
    7976:	0e 94 44 44 	call	0x8888	; 0x8888 <nrfOpenReadingPipe>
    797a:	60 e1       	ldi	r22, 0x10	; 16
    797c:	70 e2       	ldi	r23, 0x20	; 32
    797e:	81 e0       	ldi	r24, 0x01	; 1
    7980:	0e 94 44 44 	call	0x8888	; 0x8888 <nrfOpenReadingPipe>
    7984:	0e 94 94 43 	call	0x8728	; 0x8728 <nrfStartListening>
    7988:	08 95       	ret

0000798a <__vector_104>:
    798a:	1f 92       	push	r1
    798c:	0f 92       	push	r0
    798e:	0f b6       	in	r0, 0x3f	; 63
    7990:	0f 92       	push	r0
    7992:	11 24       	eor	r1, r1
    7994:	0b b6       	in	r0, 0x3b	; 59
    7996:	0f 92       	push	r0
    7998:	0f 93       	push	r16
    799a:	1f 93       	push	r17
    799c:	2f 93       	push	r18
    799e:	3f 93       	push	r19
    79a0:	4f 93       	push	r20
    79a2:	5f 93       	push	r21
    79a4:	6f 93       	push	r22
    79a6:	7f 93       	push	r23
    79a8:	8f 93       	push	r24
    79aa:	9f 93       	push	r25
    79ac:	af 93       	push	r26
    79ae:	bf 93       	push	r27
    79b0:	ef 93       	push	r30
    79b2:	ff 93       	push	r31
    79b4:	cf 93       	push	r28
    79b6:	df 93       	push	r29
    79b8:	00 d0       	rcall	.+0      	; 0x79ba <__vector_104+0x30>
    79ba:	cd b7       	in	r28, 0x3d	; 61
    79bc:	de b7       	in	r29, 0x3e	; 62
    79be:	ae 01       	movw	r20, r28
    79c0:	4d 5f       	subi	r20, 0xFD	; 253
    79c2:	5f 4f       	sbci	r21, 0xFF	; 255
    79c4:	be 01       	movw	r22, r28
    79c6:	6e 5f       	subi	r22, 0xFE	; 254
    79c8:	7f 4f       	sbci	r23, 0xFF	; 255
    79ca:	ce 01       	movw	r24, r28
    79cc:	01 96       	adiw	r24, 0x01	; 1
    79ce:	0e 94 08 44 	call	0x8810	; 0x8810 <nrfWhatHappened>
    79d2:	8b 81       	ldd	r24, Y+3	; 0x03
    79d4:	88 23       	and	r24, r24
    79d6:	09 f4       	brne	.+2      	; 0x79da <__vector_104+0x50>
    79d8:	77 c0       	rjmp	.+238    	; 0x7ac8 <__vector_104+0x13e>
    79da:	66 e0       	ldi	r22, 0x06	; 6
    79dc:	86 e7       	ldi	r24, 0x76	; 118
    79de:	91 e2       	ldi	r25, 0x21	; 33
    79e0:	0e 94 6f 43 	call	0x86de	; 0x86de <nrfRead>
    79e4:	06 e7       	ldi	r16, 0x76	; 118
    79e6:	11 e2       	ldi	r17, 0x21	; 33
    79e8:	f8 01       	movw	r30, r16
    79ea:	80 81       	ld	r24, Z
    79ec:	1f 92       	push	r1
    79ee:	8f 93       	push	r24
    79f0:	81 e5       	ldi	r24, 0x51	; 81
    79f2:	90 e2       	ldi	r25, 0x20	; 32
    79f4:	9f 93       	push	r25
    79f6:	8f 93       	push	r24
    79f8:	0e 94 fb 4c 	call	0x99f6	; 0x99f6 <printf>
    79fc:	0f 90       	pop	r0
    79fe:	0f 90       	pop	r0
    7a00:	0f 90       	pop	r0
    7a02:	0f 90       	pop	r0
    7a04:	f8 01       	movw	r30, r16
    7a06:	80 81       	ld	r24, Z
    7a08:	82 37       	cpi	r24, 0x72	; 114
    7a0a:	09 f0       	breq	.+2      	; 0x7a0e <__vector_104+0x84>
    7a0c:	5d c0       	rjmp	.+186    	; 0x7ac8 <__vector_104+0x13e>
    7a0e:	85 81       	ldd	r24, Z+5	; 0x05
    7a10:	1f 92       	push	r1
    7a12:	8f 93       	push	r24
    7a14:	84 81       	ldd	r24, Z+4	; 0x04
    7a16:	1f 92       	push	r1
    7a18:	8f 93       	push	r24
    7a1a:	83 81       	ldd	r24, Z+3	; 0x03
    7a1c:	1f 92       	push	r1
    7a1e:	8f 93       	push	r24
    7a20:	82 81       	ldd	r24, Z+2	; 0x02
    7a22:	1f 92       	push	r1
    7a24:	8f 93       	push	r24
    7a26:	8e e5       	ldi	r24, 0x5E	; 94
    7a28:	90 e2       	ldi	r25, 0x20	; 32
    7a2a:	9f 93       	push	r25
    7a2c:	8f 93       	push	r24
    7a2e:	0e 94 fb 4c 	call	0x99f6	; 0x99f6 <printf>
    7a32:	f8 01       	movw	r30, r16
    7a34:	22 81       	ldd	r18, Z+2	; 0x02
    7a36:	43 81       	ldd	r20, Z+3	; 0x03
    7a38:	84 81       	ldd	r24, Z+4	; 0x04
    7a3a:	95 81       	ldd	r25, Z+5	; 0x05
    7a3c:	cd bf       	out	0x3d, r28	; 61
    7a3e:	de bf       	out	0x3e, r29	; 62
    7a40:	41 11       	cpse	r20, r1
    7a42:	02 c0       	rjmp	.+4      	; 0x7a48 <__vector_104+0xbe>
    7a44:	30 e0       	ldi	r19, 0x00	; 0
    7a46:	0c c0       	rjmp	.+24     	; 0x7a60 <__vector_104+0xd6>
    7a48:	30 e0       	ldi	r19, 0x00	; 0
    7a4a:	32 2f       	mov	r19, r18
    7a4c:	22 27       	eor	r18, r18
    7a4e:	42 95       	swap	r20
    7a50:	40 7f       	andi	r20, 0xF0	; 240
    7a52:	24 2b       	or	r18, r20
    7a54:	32 95       	swap	r19
    7a56:	22 95       	swap	r18
    7a58:	2f 70       	andi	r18, 0x0F	; 15
    7a5a:	23 27       	eor	r18, r19
    7a5c:	3f 70       	andi	r19, 0x0F	; 15
    7a5e:	23 27       	eor	r18, r19
    7a60:	91 11       	cpse	r25, r1
    7a62:	03 c0       	rjmp	.+6      	; 0x7a6a <__vector_104+0xe0>
    7a64:	08 2f       	mov	r16, r24
    7a66:	10 e0       	ldi	r17, 0x00	; 0
    7a68:	0d c0       	rjmp	.+26     	; 0x7a84 <__vector_104+0xfa>
    7a6a:	08 2f       	mov	r16, r24
    7a6c:	10 e0       	ldi	r17, 0x00	; 0
    7a6e:	10 2f       	mov	r17, r16
    7a70:	00 27       	eor	r16, r16
    7a72:	92 95       	swap	r25
    7a74:	90 7f       	andi	r25, 0xF0	; 240
    7a76:	09 2b       	or	r16, r25
    7a78:	12 95       	swap	r17
    7a7a:	02 95       	swap	r16
    7a7c:	0f 70       	andi	r16, 0x0F	; 15
    7a7e:	01 27       	eor	r16, r17
    7a80:	1f 70       	andi	r17, 0x0F	; 15
    7a82:	01 27       	eor	r16, r17
    7a84:	a4 e6       	ldi	r26, 0x64	; 100
    7a86:	b0 e0       	ldi	r27, 0x00	; 0
    7a88:	0e 94 63 4b 	call	0x96c6	; 0x96c6 <__umulhisi3>
    7a8c:	2f ef       	ldi	r18, 0xFF	; 255
    7a8e:	3f e0       	ldi	r19, 0x0F	; 15
    7a90:	40 e0       	ldi	r20, 0x00	; 0
    7a92:	50 e0       	ldi	r21, 0x00	; 0
    7a94:	0e 94 39 4b 	call	0x9672	; 0x9672 <__udivmodsi4>
    7a98:	20 93 06 20 	sts	0x2006, r18	; 0x802006 <hum>
    7a9c:	30 93 07 20 	sts	0x2007, r19	; 0x802007 <hum+0x1>
    7aa0:	00 93 08 20 	sts	0x2008, r16	; 0x802008 <co2>
    7aa4:	10 93 09 20 	sts	0x2009, r17	; 0x802009 <co2+0x1>
    7aa8:	1f 93       	push	r17
    7aaa:	0f 93       	push	r16
    7aac:	3f 93       	push	r19
    7aae:	2f 93       	push	r18
    7ab0:	89 e7       	ldi	r24, 0x79	; 121
    7ab2:	90 e2       	ldi	r25, 0x20	; 32
    7ab4:	9f 93       	push	r25
    7ab6:	8f 93       	push	r24
    7ab8:	0e 94 fb 4c 	call	0x99f6	; 0x99f6 <printf>
    7abc:	0f 90       	pop	r0
    7abe:	0f 90       	pop	r0
    7ac0:	0f 90       	pop	r0
    7ac2:	0f 90       	pop	r0
    7ac4:	0f 90       	pop	r0
    7ac6:	0f 90       	pop	r0
    7ac8:	23 96       	adiw	r28, 0x03	; 3
    7aca:	cd bf       	out	0x3d, r28	; 61
    7acc:	de bf       	out	0x3e, r29	; 62
    7ace:	df 91       	pop	r29
    7ad0:	cf 91       	pop	r28
    7ad2:	ff 91       	pop	r31
    7ad4:	ef 91       	pop	r30
    7ad6:	bf 91       	pop	r27
    7ad8:	af 91       	pop	r26
    7ada:	9f 91       	pop	r25
    7adc:	8f 91       	pop	r24
    7ade:	7f 91       	pop	r23
    7ae0:	6f 91       	pop	r22
    7ae2:	5f 91       	pop	r21
    7ae4:	4f 91       	pop	r20
    7ae6:	3f 91       	pop	r19
    7ae8:	2f 91       	pop	r18
    7aea:	1f 91       	pop	r17
    7aec:	0f 91       	pop	r16
    7aee:	0f 90       	pop	r0
    7af0:	0b be       	out	0x3b, r0	; 59
    7af2:	0f 90       	pop	r0
    7af4:	0f be       	out	0x3f, r0	; 63
    7af6:	0f 90       	pop	r0
    7af8:	1f 90       	pop	r1
    7afa:	18 95       	reti

00007afc <deuntje>:

void deuntje(int f)
{
    7afc:	cf 93       	push	r28
    7afe:	df 93       	push	r29
	ucg_SetPrintPos(&ucg, px, py);
    7b00:	40 91 0a 20 	lds	r20, 0x200A	; 0x80200a <py>
    7b04:	50 91 0b 20 	lds	r21, 0x200B	; 0x80200b <py+0x1>
    7b08:	60 91 0c 20 	lds	r22, 0x200C	; 0x80200c <px>
    7b0c:	70 91 0d 20 	lds	r23, 0x200D	; 0x80200d <px+0x1>
    7b10:	88 e9       	ldi	r24, 0x98	; 152
    7b12:	91 e2       	ldi	r25, 0x21	; 33
    7b14:	0e 94 d6 47 	call	0x8fac	; 0x8fac <ucg_SetPrintPos>
	ucg_Print(&ucg,	"%.2d : %.2d", h, m);
    7b18:	80 91 a1 20 	lds	r24, 0x20A1	; 0x8020a1 <m+0x1>
    7b1c:	8f 93       	push	r24
    7b1e:	80 91 a0 20 	lds	r24, 0x20A0	; 0x8020a0 <m>
    7b22:	8f 93       	push	r24
    7b24:	80 91 9f 20 	lds	r24, 0x209F	; 0x80209f <h+0x1>
    7b28:	8f 93       	push	r24
    7b2a:	80 91 9e 20 	lds	r24, 0x209E	; 0x80209e <h>
    7b2e:	8f 93       	push	r24
    7b30:	85 e4       	ldi	r24, 0x45	; 69
    7b32:	90 e2       	ldi	r25, 0x20	; 32
    7b34:	9f 93       	push	r25
    7b36:	8f 93       	push	r24
    7b38:	88 e9       	ldi	r24, 0x98	; 152
    7b3a:	91 e2       	ldi	r25, 0x21	; 33
    7b3c:	9f 93       	push	r25
    7b3e:	8f 93       	push	r24
    7b40:	0e 94 e5 47 	call	0x8fca	; 0x8fca <ucg_Print>
	
	f = 27303;
	geluid(f);
    7b44:	87 ea       	ldi	r24, 0xA7	; 167
    7b46:	9a e6       	ldi	r25, 0x6A	; 106
    7b48:	0e 94 e7 3a 	call	0x75ce	; 0x75ce <geluid>
	#else
		//round up by default
		__ticks_dc = (uint32_t)(ceil(fabs(__tmp)));
	#endif

	__builtin_avr_delay_cycles(__ticks_dc);
    7b4c:	2f ef       	ldi	r18, 0xFF	; 255
    7b4e:	85 ed       	ldi	r24, 0xD5	; 213
    7b50:	96 e0       	ldi	r25, 0x06	; 6
    7b52:	21 50       	subi	r18, 0x01	; 1
    7b54:	80 40       	sbci	r24, 0x00	; 0
    7b56:	90 40       	sbci	r25, 0x00	; 0
    7b58:	e1 f7       	brne	.-8      	; 0x7b52 <deuntje+0x56>
    7b5a:	00 c0       	rjmp	.+0      	; 0x7b5c <deuntje+0x60>
    7b5c:	00 00       	nop
	_delay_ms(70);
	TCD0.INTCTRLA  = TC_OVFINTLVL_OFF_gc;
    7b5e:	c0 e0       	ldi	r28, 0x00	; 0
    7b60:	d9 e0       	ldi	r29, 0x09	; 9
    7b62:	1e 82       	std	Y+6, r1	; 0x06
    7b64:	2f ef       	ldi	r18, 0xFF	; 255
    7b66:	85 ed       	ldi	r24, 0xD5	; 213
    7b68:	96 e0       	ldi	r25, 0x06	; 6
    7b6a:	21 50       	subi	r18, 0x01	; 1
    7b6c:	80 40       	sbci	r24, 0x00	; 0
    7b6e:	90 40       	sbci	r25, 0x00	; 0
    7b70:	e1 f7       	brne	.-8      	; 0x7b6a <deuntje+0x6e>
    7b72:	00 c0       	rjmp	.+0      	; 0x7b74 <deuntje+0x78>
    7b74:	00 00       	nop
	_delay_ms(70);
	
	f = 27303;
	geluid(f);
    7b76:	87 ea       	ldi	r24, 0xA7	; 167
    7b78:	9a e6       	ldi	r25, 0x6A	; 106
    7b7a:	0e 94 e7 3a 	call	0x75ce	; 0x75ce <geluid>
    7b7e:	2f ef       	ldi	r18, 0xFF	; 255
    7b80:	84 ef       	ldi	r24, 0xF4	; 244
    7b82:	95 e0       	ldi	r25, 0x05	; 5
    7b84:	21 50       	subi	r18, 0x01	; 1
    7b86:	80 40       	sbci	r24, 0x00	; 0
    7b88:	90 40       	sbci	r25, 0x00	; 0
    7b8a:	e1 f7       	brne	.-8      	; 0x7b84 <deuntje+0x88>
    7b8c:	00 c0       	rjmp	.+0      	; 0x7b8e <deuntje+0x92>
    7b8e:	00 00       	nop
	_delay_ms(61);
	TCD0.INTCTRLA  = TC_OVFINTLVL_OFF_gc;
    7b90:	1e 82       	std	Y+6, r1	; 0x06
    7b92:	2f ef       	ldi	r18, 0xFF	; 255
    7b94:	84 ef       	ldi	r24, 0xF4	; 244
    7b96:	95 e0       	ldi	r25, 0x05	; 5
    7b98:	21 50       	subi	r18, 0x01	; 1
    7b9a:	80 40       	sbci	r24, 0x00	; 0
    7b9c:	90 40       	sbci	r25, 0x00	; 0
    7b9e:	e1 f7       	brne	.-8      	; 0x7b98 <deuntje+0x9c>
    7ba0:	00 c0       	rjmp	.+0      	; 0x7ba2 <deuntje+0xa6>
    7ba2:	00 00       	nop
	_delay_ms(61);	 
	
	f = 13628;
	geluid(f);
    7ba4:	8c e3       	ldi	r24, 0x3C	; 60
    7ba6:	95 e3       	ldi	r25, 0x35	; 53
    7ba8:	0e 94 e7 3a 	call	0x75ce	; 0x75ce <geluid>
    7bac:	2f ef       	ldi	r18, 0xFF	; 255
    7bae:	8b e1       	ldi	r24, 0x1B	; 27
    7bb0:	9c e0       	ldi	r25, 0x0C	; 12
    7bb2:	21 50       	subi	r18, 0x01	; 1
    7bb4:	80 40       	sbci	r24, 0x00	; 0
    7bb6:	90 40       	sbci	r25, 0x00	; 0
    7bb8:	e1 f7       	brne	.-8      	; 0x7bb2 <deuntje+0xb6>
    7bba:	00 c0       	rjmp	.+0      	; 0x7bbc <deuntje+0xc0>
    7bbc:	00 00       	nop
	_delay_ms(124);
	TCD0.INTCTRLA  = TC_OVFINTLVL_OFF_gc;
    7bbe:	1e 82       	std	Y+6, r1	; 0x06
    7bc0:	2f ef       	ldi	r18, 0xFF	; 255
    7bc2:	8b e1       	ldi	r24, 0x1B	; 27
    7bc4:	9c e0       	ldi	r25, 0x0C	; 12
    7bc6:	21 50       	subi	r18, 0x01	; 1
    7bc8:	80 40       	sbci	r24, 0x00	; 0
    7bca:	90 40       	sbci	r25, 0x00	; 0
    7bcc:	e1 f7       	brne	.-8      	; 0x7bc6 <deuntje+0xca>
    7bce:	00 c0       	rjmp	.+0      	; 0x7bd0 <deuntje+0xd4>
    7bd0:	00 00       	nop
	_delay_ms(124);	
	
	f = 18181;
	geluid(f);
    7bd2:	85 e0       	ldi	r24, 0x05	; 5
    7bd4:	97 e4       	ldi	r25, 0x47	; 71
    7bd6:	0e 94 e7 3a 	call	0x75ce	; 0x75ce <geluid>
    7bda:	2f ef       	ldi	r18, 0xFF	; 255
    7bdc:	87 ef       	ldi	r24, 0xF7	; 247
    7bde:	91 e1       	ldi	r25, 0x11	; 17
    7be0:	21 50       	subi	r18, 0x01	; 1
    7be2:	80 40       	sbci	r24, 0x00	; 0
    7be4:	90 40       	sbci	r25, 0x00	; 0
    7be6:	e1 f7       	brne	.-8      	; 0x7be0 <deuntje+0xe4>
    7be8:	00 c0       	rjmp	.+0      	; 0x7bea <deuntje+0xee>
    7bea:	00 00       	nop
	_delay_ms(184);
	TCD0.INTCTRLA  = TC_OVFINTLVL_OFF_gc;
    7bec:	1e 82       	std	Y+6, r1	; 0x06
    7bee:	2f ef       	ldi	r18, 0xFF	; 255
    7bf0:	87 ef       	ldi	r24, 0xF7	; 247
    7bf2:	91 e1       	ldi	r25, 0x11	; 17
    7bf4:	21 50       	subi	r18, 0x01	; 1
    7bf6:	80 40       	sbci	r24, 0x00	; 0
    7bf8:	90 40       	sbci	r25, 0x00	; 0
    7bfa:	e1 f7       	brne	.-8      	; 0x7bf4 <deuntje+0xf8>
    7bfc:	00 c0       	rjmp	.+0      	; 0x7bfe <deuntje+0x102>
    7bfe:	00 00       	nop
	_delay_ms(184);
	
	f = 19276;
	geluid(f);
    7c00:	8c e4       	ldi	r24, 0x4C	; 76
    7c02:	9b e4       	ldi	r25, 0x4B	; 75
    7c04:	0e 94 e7 3a 	call	0x75ce	; 0x75ce <geluid>
    7c08:	2f ef       	ldi	r18, 0xFF	; 255
    7c0a:	8f e7       	ldi	r24, 0x7F	; 127
    7c0c:	9c e0       	ldi	r25, 0x0C	; 12
    7c0e:	21 50       	subi	r18, 0x01	; 1
    7c10:	80 40       	sbci	r24, 0x00	; 0
    7c12:	90 40       	sbci	r25, 0x00	; 0
    7c14:	e1 f7       	brne	.-8      	; 0x7c0e <deuntje+0x112>
    7c16:	00 c0       	rjmp	.+0      	; 0x7c18 <deuntje+0x11c>
    7c18:	00 00       	nop
	_delay_ms(128);
	TCD0.INTCTRLA  = TC_OVFINTLVL_OFF_gc;
    7c1a:	1e 82       	std	Y+6, r1	; 0x06
    7c1c:	2f ef       	ldi	r18, 0xFF	; 255
    7c1e:	8f e7       	ldi	r24, 0x7F	; 127
    7c20:	9c e0       	ldi	r25, 0x0C	; 12
    7c22:	21 50       	subi	r18, 0x01	; 1
    7c24:	80 40       	sbci	r24, 0x00	; 0
    7c26:	90 40       	sbci	r25, 0x00	; 0
    7c28:	e1 f7       	brne	.-8      	; 0x7c22 <deuntje+0x126>
    7c2a:	00 c0       	rjmp	.+0      	; 0x7c2c <deuntje+0x130>
    7c2c:	00 00       	nop
	_delay_ms(128);
	
	f = 20407;
	geluid(f);
    7c2e:	87 eb       	ldi	r24, 0xB7	; 183
    7c30:	9f e4       	ldi	r25, 0x4F	; 79
    7c32:	0e 94 e7 3a 	call	0x75ce	; 0x75ce <geluid>
    7c36:	2f ef       	ldi	r18, 0xFF	; 255
    7c38:	80 ed       	ldi	r24, 0xD0	; 208
    7c3a:	9b e0       	ldi	r25, 0x0B	; 11
    7c3c:	21 50       	subi	r18, 0x01	; 1
    7c3e:	80 40       	sbci	r24, 0x00	; 0
    7c40:	90 40       	sbci	r25, 0x00	; 0
    7c42:	e1 f7       	brne	.-8      	; 0x7c3c <deuntje+0x140>
    7c44:	00 c0       	rjmp	.+0      	; 0x7c46 <deuntje+0x14a>
    7c46:	00 00       	nop
	_delay_ms(121);
	TCD0.INTCTRLA  = TC_OVFINTLVL_OFF_gc;
    7c48:	1e 82       	std	Y+6, r1	; 0x06
    7c4a:	2f ef       	ldi	r18, 0xFF	; 255
    7c4c:	80 ed       	ldi	r24, 0xD0	; 208
    7c4e:	9b e0       	ldi	r25, 0x0B	; 11
    7c50:	21 50       	subi	r18, 0x01	; 1
    7c52:	80 40       	sbci	r24, 0x00	; 0
    7c54:	90 40       	sbci	r25, 0x00	; 0
    7c56:	e1 f7       	brne	.-8      	; 0x7c50 <deuntje+0x154>
    7c58:	00 c0       	rjmp	.+0      	; 0x7c5a <deuntje+0x15e>
    7c5a:	00 00       	nop
	_delay_ms(121);
	
	f = 22921;
	geluid(f);
    7c5c:	89 e8       	ldi	r24, 0x89	; 137
    7c5e:	99 e5       	ldi	r25, 0x59	; 89
    7c60:	0e 94 e7 3a 	call	0x75ce	; 0x75ce <geluid>
    7c64:	2f ef       	ldi	r18, 0xFF	; 255
    7c66:	84 e3       	ldi	r24, 0x34	; 52
    7c68:	9c e0       	ldi	r25, 0x0C	; 12
    7c6a:	21 50       	subi	r18, 0x01	; 1
    7c6c:	80 40       	sbci	r24, 0x00	; 0
    7c6e:	90 40       	sbci	r25, 0x00	; 0
    7c70:	e1 f7       	brne	.-8      	; 0x7c6a <deuntje+0x16e>
    7c72:	00 c0       	rjmp	.+0      	; 0x7c74 <deuntje+0x178>
    7c74:	00 00       	nop
	_delay_ms(125);
	TCD0.INTCTRLA  = TC_OVFINTLVL_OFF_gc;
    7c76:	1e 82       	std	Y+6, r1	; 0x06
    7c78:	2f ef       	ldi	r18, 0xFF	; 255
    7c7a:	84 e3       	ldi	r24, 0x34	; 52
    7c7c:	9c e0       	ldi	r25, 0x0C	; 12
    7c7e:	21 50       	subi	r18, 0x01	; 1
    7c80:	80 40       	sbci	r24, 0x00	; 0
    7c82:	90 40       	sbci	r25, 0x00	; 0
    7c84:	e1 f7       	brne	.-8      	; 0x7c7e <deuntje+0x182>
    7c86:	00 c0       	rjmp	.+0      	; 0x7c88 <deuntje+0x18c>
    7c88:	00 00       	nop
	_delay_ms(125);
	
	f = 27303;
	geluid(f);
    7c8a:	87 ea       	ldi	r24, 0xA7	; 167
    7c8c:	9a e6       	ldi	r25, 0x6A	; 106
    7c8e:	0e 94 e7 3a 	call	0x75ce	; 0x75ce <geluid>
    7c92:	2f ef       	ldi	r18, 0xFF	; 255
    7c94:	84 ef       	ldi	r24, 0xF4	; 244
    7c96:	95 e0       	ldi	r25, 0x05	; 5
    7c98:	21 50       	subi	r18, 0x01	; 1
    7c9a:	80 40       	sbci	r24, 0x00	; 0
    7c9c:	90 40       	sbci	r25, 0x00	; 0
    7c9e:	e1 f7       	brne	.-8      	; 0x7c98 <deuntje+0x19c>
    7ca0:	00 c0       	rjmp	.+0      	; 0x7ca2 <deuntje+0x1a6>
    7ca2:	00 00       	nop
	_delay_ms(61);
	TCD0.INTCTRLA  = TC_OVFINTLVL_OFF_gc;
    7ca4:	1e 82       	std	Y+6, r1	; 0x06
    7ca6:	2f ef       	ldi	r18, 0xFF	; 255
    7ca8:	84 ef       	ldi	r24, 0xF4	; 244
    7caa:	95 e0       	ldi	r25, 0x05	; 5
    7cac:	21 50       	subi	r18, 0x01	; 1
    7cae:	80 40       	sbci	r24, 0x00	; 0
    7cb0:	90 40       	sbci	r25, 0x00	; 0
    7cb2:	e1 f7       	brne	.-8      	; 0x7cac <deuntje+0x1b0>
    7cb4:	00 c0       	rjmp	.+0      	; 0x7cb6 <deuntje+0x1ba>
    7cb6:	00 00       	nop
	_delay_ms(61);
	
	f = 22921;
	geluid(f);
    7cb8:	89 e8       	ldi	r24, 0x89	; 137
    7cba:	99 e5       	ldi	r25, 0x59	; 89
    7cbc:	0e 94 e7 3a 	call	0x75ce	; 0x75ce <geluid>
    7cc0:	2f ef       	ldi	r18, 0xFF	; 255
    7cc2:	84 ef       	ldi	r24, 0xF4	; 244
    7cc4:	95 e0       	ldi	r25, 0x05	; 5
    7cc6:	21 50       	subi	r18, 0x01	; 1
    7cc8:	80 40       	sbci	r24, 0x00	; 0
    7cca:	90 40       	sbci	r25, 0x00	; 0
    7ccc:	e1 f7       	brne	.-8      	; 0x7cc6 <deuntje+0x1ca>
    7cce:	00 c0       	rjmp	.+0      	; 0x7cd0 <deuntje+0x1d4>
    7cd0:	00 00       	nop
	_delay_ms(61);
	TCD0.INTCTRLA  = TC_OVFINTLVL_OFF_gc;
    7cd2:	1e 82       	std	Y+6, r1	; 0x06
    7cd4:	2f ef       	ldi	r18, 0xFF	; 255
    7cd6:	84 ef       	ldi	r24, 0xF4	; 244
    7cd8:	95 e0       	ldi	r25, 0x05	; 5
    7cda:	21 50       	subi	r18, 0x01	; 1
    7cdc:	80 40       	sbci	r24, 0x00	; 0
    7cde:	90 40       	sbci	r25, 0x00	; 0
    7ce0:	e1 f7       	brne	.-8      	; 0x7cda <deuntje+0x1de>
    7ce2:	00 c0       	rjmp	.+0      	; 0x7ce4 <deuntje+0x1e8>
    7ce4:	00 00       	nop
	_delay_ms(61);
	
	f = 20407;
	geluid(f);
    7ce6:	87 eb       	ldi	r24, 0xB7	; 183
    7ce8:	9f e4       	ldi	r25, 0x4F	; 79
    7cea:	0e 94 e7 3a 	call	0x75ce	; 0x75ce <geluid>
    7cee:	2f ef       	ldi	r18, 0xFF	; 255
    7cf0:	8f e3       	ldi	r24, 0x3F	; 63
    7cf2:	96 e0       	ldi	r25, 0x06	; 6
    7cf4:	21 50       	subi	r18, 0x01	; 1
    7cf6:	80 40       	sbci	r24, 0x00	; 0
    7cf8:	90 40       	sbci	r25, 0x00	; 0
    7cfa:	e1 f7       	brne	.-8      	; 0x7cf4 <deuntje+0x1f8>
    7cfc:	00 c0       	rjmp	.+0      	; 0x7cfe <deuntje+0x202>
    7cfe:	00 00       	nop
	_delay_ms(64);
	TCD0.INTCTRLA  = TC_OVFINTLVL_OFF_gc;
    7d00:	1e 82       	std	Y+6, r1	; 0x06
    7d02:	2f ef       	ldi	r18, 0xFF	; 255
    7d04:	8f e3       	ldi	r24, 0x3F	; 63
    7d06:	96 e0       	ldi	r25, 0x06	; 6
    7d08:	21 50       	subi	r18, 0x01	; 1
    7d0a:	80 40       	sbci	r24, 0x00	; 0
    7d0c:	90 40       	sbci	r25, 0x00	; 0
    7d0e:	e1 f7       	brne	.-8      	; 0x7d08 <deuntje+0x20c>
    7d10:	00 c0       	rjmp	.+0      	; 0x7d12 <deuntje+0x216>
    7d12:	00 00       	nop
	_delay_ms(64);

	f = 30650;
	geluid(f);
    7d14:	8a eb       	ldi	r24, 0xBA	; 186
    7d16:	97 e7       	ldi	r25, 0x77	; 119
    7d18:	0e 94 e7 3a 	call	0x75ce	; 0x75ce <geluid>
    7d1c:	2f ef       	ldi	r18, 0xFF	; 255
    7d1e:	85 ed       	ldi	r24, 0xD5	; 213
    7d20:	96 e0       	ldi	r25, 0x06	; 6
    7d22:	21 50       	subi	r18, 0x01	; 1
    7d24:	80 40       	sbci	r24, 0x00	; 0
    7d26:	90 40       	sbci	r25, 0x00	; 0
    7d28:	e1 f7       	brne	.-8      	; 0x7d22 <deuntje+0x226>
    7d2a:	00 c0       	rjmp	.+0      	; 0x7d2c <deuntje+0x230>
    7d2c:	00 00       	nop
	_delay_ms(70);
	TCD0.INTCTRLA  = TC_OVFINTLVL_OFF_gc;
    7d2e:	1e 82       	std	Y+6, r1	; 0x06
    7d30:	2f ef       	ldi	r18, 0xFF	; 255
    7d32:	85 ed       	ldi	r24, 0xD5	; 213
    7d34:	96 e0       	ldi	r25, 0x06	; 6
    7d36:	21 50       	subi	r18, 0x01	; 1
    7d38:	80 40       	sbci	r24, 0x00	; 0
    7d3a:	90 40       	sbci	r25, 0x00	; 0
    7d3c:	e1 f7       	brne	.-8      	; 0x7d36 <deuntje+0x23a>
    7d3e:	00 c0       	rjmp	.+0      	; 0x7d40 <deuntje+0x244>
    7d40:	00 00       	nop
	_delay_ms(70);
	
	f = 30650;
	geluid(f);
    7d42:	8a eb       	ldi	r24, 0xBA	; 186
    7d44:	97 e7       	ldi	r25, 0x77	; 119
    7d46:	0e 94 e7 3a 	call	0x75ce	; 0x75ce <geluid>
    7d4a:	2f ef       	ldi	r18, 0xFF	; 255
    7d4c:	84 ef       	ldi	r24, 0xF4	; 244
    7d4e:	95 e0       	ldi	r25, 0x05	; 5
    7d50:	21 50       	subi	r18, 0x01	; 1
    7d52:	80 40       	sbci	r24, 0x00	; 0
    7d54:	90 40       	sbci	r25, 0x00	; 0
    7d56:	e1 f7       	brne	.-8      	; 0x7d50 <deuntje+0x254>
    7d58:	00 c0       	rjmp	.+0      	; 0x7d5a <deuntje+0x25e>
    7d5a:	00 00       	nop
	_delay_ms(61);
	TCD0.INTCTRLA  = TC_OVFINTLVL_OFF_gc;
    7d5c:	1e 82       	std	Y+6, r1	; 0x06
    7d5e:	2f ef       	ldi	r18, 0xFF	; 255
    7d60:	84 ef       	ldi	r24, 0xF4	; 244
    7d62:	95 e0       	ldi	r25, 0x05	; 5
    7d64:	21 50       	subi	r18, 0x01	; 1
    7d66:	80 40       	sbci	r24, 0x00	; 0
    7d68:	90 40       	sbci	r25, 0x00	; 0
    7d6a:	e1 f7       	brne	.-8      	; 0x7d64 <deuntje+0x268>
    7d6c:	00 c0       	rjmp	.+0      	; 0x7d6e <deuntje+0x272>
    7d6e:	00 00       	nop
	_delay_ms(61);
	
	f = 13628;
	geluid(f);
    7d70:	8c e3       	ldi	r24, 0x3C	; 60
    7d72:	95 e3       	ldi	r25, 0x35	; 53
    7d74:	0e 94 e7 3a 	call	0x75ce	; 0x75ce <geluid>
    7d78:	2f ef       	ldi	r18, 0xFF	; 255
    7d7a:	8b e1       	ldi	r24, 0x1B	; 27
    7d7c:	9c e0       	ldi	r25, 0x0C	; 12
    7d7e:	21 50       	subi	r18, 0x01	; 1
    7d80:	80 40       	sbci	r24, 0x00	; 0
    7d82:	90 40       	sbci	r25, 0x00	; 0
    7d84:	e1 f7       	brne	.-8      	; 0x7d7e <deuntje+0x282>
    7d86:	00 c0       	rjmp	.+0      	; 0x7d88 <deuntje+0x28c>
    7d88:	00 00       	nop
	_delay_ms(124);
	TCD0.INTCTRLA  = TC_OVFINTLVL_OFF_gc;
    7d8a:	1e 82       	std	Y+6, r1	; 0x06
    7d8c:	2f ef       	ldi	r18, 0xFF	; 255
    7d8e:	8b e1       	ldi	r24, 0x1B	; 27
    7d90:	9c e0       	ldi	r25, 0x0C	; 12
    7d92:	21 50       	subi	r18, 0x01	; 1
    7d94:	80 40       	sbci	r24, 0x00	; 0
    7d96:	90 40       	sbci	r25, 0x00	; 0
    7d98:	e1 f7       	brne	.-8      	; 0x7d92 <deuntje+0x296>
    7d9a:	00 c0       	rjmp	.+0      	; 0x7d9c <deuntje+0x2a0>
    7d9c:	00 00       	nop
	_delay_ms(124);
	
	f = 18181;
	geluid(f);
    7d9e:	85 e0       	ldi	r24, 0x05	; 5
    7da0:	97 e4       	ldi	r25, 0x47	; 71
    7da2:	0e 94 e7 3a 	call	0x75ce	; 0x75ce <geluid>
    7da6:	2f ef       	ldi	r18, 0xFF	; 255
    7da8:	87 ef       	ldi	r24, 0xF7	; 247
    7daa:	91 e1       	ldi	r25, 0x11	; 17
    7dac:	21 50       	subi	r18, 0x01	; 1
    7dae:	80 40       	sbci	r24, 0x00	; 0
    7db0:	90 40       	sbci	r25, 0x00	; 0
    7db2:	e1 f7       	brne	.-8      	; 0x7dac <deuntje+0x2b0>
    7db4:	00 c0       	rjmp	.+0      	; 0x7db6 <deuntje+0x2ba>
    7db6:	00 00       	nop
	_delay_ms(184);
	TCD0.INTCTRLA  = TC_OVFINTLVL_OFF_gc;
    7db8:	1e 82       	std	Y+6, r1	; 0x06
    7dba:	2f ef       	ldi	r18, 0xFF	; 255
    7dbc:	87 ef       	ldi	r24, 0xF7	; 247
    7dbe:	91 e1       	ldi	r25, 0x11	; 17
    7dc0:	21 50       	subi	r18, 0x01	; 1
    7dc2:	80 40       	sbci	r24, 0x00	; 0
    7dc4:	90 40       	sbci	r25, 0x00	; 0
    7dc6:	e1 f7       	brne	.-8      	; 0x7dc0 <deuntje+0x2c4>
    7dc8:	00 c0       	rjmp	.+0      	; 0x7dca <deuntje+0x2ce>
    7dca:	00 00       	nop
	_delay_ms(184);
	
	f = 19276;
	geluid(f);
    7dcc:	8c e4       	ldi	r24, 0x4C	; 76
    7dce:	9b e4       	ldi	r25, 0x4B	; 75
    7dd0:	0e 94 e7 3a 	call	0x75ce	; 0x75ce <geluid>
    7dd4:	2f ef       	ldi	r18, 0xFF	; 255
    7dd6:	8f e7       	ldi	r24, 0x7F	; 127
    7dd8:	9c e0       	ldi	r25, 0x0C	; 12
    7dda:	21 50       	subi	r18, 0x01	; 1
    7ddc:	80 40       	sbci	r24, 0x00	; 0
    7dde:	90 40       	sbci	r25, 0x00	; 0
    7de0:	e1 f7       	brne	.-8      	; 0x7dda <deuntje+0x2de>
    7de2:	00 c0       	rjmp	.+0      	; 0x7de4 <deuntje+0x2e8>
    7de4:	00 00       	nop
	_delay_ms(128);
	TCD0.INTCTRLA  = TC_OVFINTLVL_OFF_gc;
    7de6:	1e 82       	std	Y+6, r1	; 0x06
    7de8:	2f ef       	ldi	r18, 0xFF	; 255
    7dea:	8f e7       	ldi	r24, 0x7F	; 127
    7dec:	9c e0       	ldi	r25, 0x0C	; 12
    7dee:	21 50       	subi	r18, 0x01	; 1
    7df0:	80 40       	sbci	r24, 0x00	; 0
    7df2:	90 40       	sbci	r25, 0x00	; 0
    7df4:	e1 f7       	brne	.-8      	; 0x7dee <deuntje+0x2f2>
    7df6:	00 c0       	rjmp	.+0      	; 0x7df8 <deuntje+0x2fc>
    7df8:	00 00       	nop
	_delay_ms(128);
	
	f = 20407;
	geluid(f);
    7dfa:	87 eb       	ldi	r24, 0xB7	; 183
    7dfc:	9f e4       	ldi	r25, 0x4F	; 79
    7dfe:	0e 94 e7 3a 	call	0x75ce	; 0x75ce <geluid>
    7e02:	2f ef       	ldi	r18, 0xFF	; 255
    7e04:	80 ed       	ldi	r24, 0xD0	; 208
    7e06:	9b e0       	ldi	r25, 0x0B	; 11
    7e08:	21 50       	subi	r18, 0x01	; 1
    7e0a:	80 40       	sbci	r24, 0x00	; 0
    7e0c:	90 40       	sbci	r25, 0x00	; 0
    7e0e:	e1 f7       	brne	.-8      	; 0x7e08 <deuntje+0x30c>
    7e10:	00 c0       	rjmp	.+0      	; 0x7e12 <deuntje+0x316>
    7e12:	00 00       	nop
	_delay_ms(121);
	TCD0.INTCTRLA  = TC_OVFINTLVL_OFF_gc;
    7e14:	1e 82       	std	Y+6, r1	; 0x06
    7e16:	2f ef       	ldi	r18, 0xFF	; 255
    7e18:	80 ed       	ldi	r24, 0xD0	; 208
    7e1a:	9b e0       	ldi	r25, 0x0B	; 11
    7e1c:	21 50       	subi	r18, 0x01	; 1
    7e1e:	80 40       	sbci	r24, 0x00	; 0
    7e20:	90 40       	sbci	r25, 0x00	; 0
    7e22:	e1 f7       	brne	.-8      	; 0x7e1c <deuntje+0x320>
    7e24:	00 c0       	rjmp	.+0      	; 0x7e26 <deuntje+0x32a>
    7e26:	00 00       	nop
	_delay_ms(121);
	
	f = 22921;
	geluid(f);
    7e28:	89 e8       	ldi	r24, 0x89	; 137
    7e2a:	99 e5       	ldi	r25, 0x59	; 89
    7e2c:	0e 94 e7 3a 	call	0x75ce	; 0x75ce <geluid>
    7e30:	2f ef       	ldi	r18, 0xFF	; 255
    7e32:	84 e3       	ldi	r24, 0x34	; 52
    7e34:	9c e0       	ldi	r25, 0x0C	; 12
    7e36:	21 50       	subi	r18, 0x01	; 1
    7e38:	80 40       	sbci	r24, 0x00	; 0
    7e3a:	90 40       	sbci	r25, 0x00	; 0
    7e3c:	e1 f7       	brne	.-8      	; 0x7e36 <deuntje+0x33a>
    7e3e:	00 c0       	rjmp	.+0      	; 0x7e40 <deuntje+0x344>
    7e40:	00 00       	nop
	_delay_ms(125);
	TCD0.INTCTRLA  = TC_OVFINTLVL_OFF_gc;
    7e42:	1e 82       	std	Y+6, r1	; 0x06
    7e44:	2f ef       	ldi	r18, 0xFF	; 255
    7e46:	84 e3       	ldi	r24, 0x34	; 52
    7e48:	9c e0       	ldi	r25, 0x0C	; 12
    7e4a:	21 50       	subi	r18, 0x01	; 1
    7e4c:	80 40       	sbci	r24, 0x00	; 0
    7e4e:	90 40       	sbci	r25, 0x00	; 0
    7e50:	e1 f7       	brne	.-8      	; 0x7e4a <deuntje+0x34e>
    7e52:	00 c0       	rjmp	.+0      	; 0x7e54 <deuntje+0x358>
    7e54:	00 00       	nop
	_delay_ms(125);
	
	f = 27303;
	geluid(f);
    7e56:	87 ea       	ldi	r24, 0xA7	; 167
    7e58:	9a e6       	ldi	r25, 0x6A	; 106
    7e5a:	0e 94 e7 3a 	call	0x75ce	; 0x75ce <geluid>
    7e5e:	2f ef       	ldi	r18, 0xFF	; 255
    7e60:	84 ef       	ldi	r24, 0xF4	; 244
    7e62:	95 e0       	ldi	r25, 0x05	; 5
    7e64:	21 50       	subi	r18, 0x01	; 1
    7e66:	80 40       	sbci	r24, 0x00	; 0
    7e68:	90 40       	sbci	r25, 0x00	; 0
    7e6a:	e1 f7       	brne	.-8      	; 0x7e64 <deuntje+0x368>
    7e6c:	00 c0       	rjmp	.+0      	; 0x7e6e <deuntje+0x372>
    7e6e:	00 00       	nop
	_delay_ms(61);
	TCD0.INTCTRLA  = TC_OVFINTLVL_OFF_gc;
    7e70:	1e 82       	std	Y+6, r1	; 0x06
    7e72:	2f ef       	ldi	r18, 0xFF	; 255
    7e74:	84 ef       	ldi	r24, 0xF4	; 244
    7e76:	95 e0       	ldi	r25, 0x05	; 5
    7e78:	21 50       	subi	r18, 0x01	; 1
    7e7a:	80 40       	sbci	r24, 0x00	; 0
    7e7c:	90 40       	sbci	r25, 0x00	; 0
    7e7e:	e1 f7       	brne	.-8      	; 0x7e78 <deuntje+0x37c>
    7e80:	00 c0       	rjmp	.+0      	; 0x7e82 <deuntje+0x386>
    7e82:	00 00       	nop
	_delay_ms(61);
	
	f = 22921;
	geluid(f);
    7e84:	89 e8       	ldi	r24, 0x89	; 137
    7e86:	99 e5       	ldi	r25, 0x59	; 89
    7e88:	0e 94 e7 3a 	call	0x75ce	; 0x75ce <geluid>
    7e8c:	2f ef       	ldi	r18, 0xFF	; 255
    7e8e:	84 ef       	ldi	r24, 0xF4	; 244
    7e90:	95 e0       	ldi	r25, 0x05	; 5
    7e92:	21 50       	subi	r18, 0x01	; 1
    7e94:	80 40       	sbci	r24, 0x00	; 0
    7e96:	90 40       	sbci	r25, 0x00	; 0
    7e98:	e1 f7       	brne	.-8      	; 0x7e92 <deuntje+0x396>
    7e9a:	00 c0       	rjmp	.+0      	; 0x7e9c <deuntje+0x3a0>
    7e9c:	00 00       	nop
	_delay_ms(61);
	TCD0.INTCTRLA  = TC_OVFINTLVL_OFF_gc;
    7e9e:	1e 82       	std	Y+6, r1	; 0x06
    7ea0:	2f ef       	ldi	r18, 0xFF	; 255
    7ea2:	84 ef       	ldi	r24, 0xF4	; 244
    7ea4:	95 e0       	ldi	r25, 0x05	; 5
    7ea6:	21 50       	subi	r18, 0x01	; 1
    7ea8:	80 40       	sbci	r24, 0x00	; 0
    7eaa:	90 40       	sbci	r25, 0x00	; 0
    7eac:	e1 f7       	brne	.-8      	; 0x7ea6 <deuntje+0x3aa>
    7eae:	00 c0       	rjmp	.+0      	; 0x7eb0 <deuntje+0x3b4>
    7eb0:	00 00       	nop
	_delay_ms(61);
	
	f = 20407;
	geluid(f);
    7eb2:	87 eb       	ldi	r24, 0xB7	; 183
    7eb4:	9f e4       	ldi	r25, 0x4F	; 79
    7eb6:	0e 94 e7 3a 	call	0x75ce	; 0x75ce <geluid>
    7eba:	2f ef       	ldi	r18, 0xFF	; 255
    7ebc:	8f e3       	ldi	r24, 0x3F	; 63
    7ebe:	96 e0       	ldi	r25, 0x06	; 6
    7ec0:	21 50       	subi	r18, 0x01	; 1
    7ec2:	80 40       	sbci	r24, 0x00	; 0
    7ec4:	90 40       	sbci	r25, 0x00	; 0
    7ec6:	e1 f7       	brne	.-8      	; 0x7ec0 <deuntje+0x3c4>
    7ec8:	00 c0       	rjmp	.+0      	; 0x7eca <deuntje+0x3ce>
    7eca:	00 00       	nop
	_delay_ms(64);
	TCD0.INTCTRLA  = TC_OVFINTLVL_OFF_gc;
    7ecc:	1e 82       	std	Y+6, r1	; 0x06
    7ece:	2f ef       	ldi	r18, 0xFF	; 255
    7ed0:	8f e3       	ldi	r24, 0x3F	; 63
    7ed2:	96 e0       	ldi	r25, 0x06	; 6
    7ed4:	21 50       	subi	r18, 0x01	; 1
    7ed6:	80 40       	sbci	r24, 0x00	; 0
    7ed8:	90 40       	sbci	r25, 0x00	; 0
    7eda:	e1 f7       	brne	.-8      	; 0x7ed4 <deuntje+0x3d8>
    7edc:	00 c0       	rjmp	.+0      	; 0x7ede <deuntje+0x3e2>
    7ede:	00 00       	nop
	_delay_ms(64);

	f = 32519;
	geluid(f);
    7ee0:	87 e0       	ldi	r24, 0x07	; 7
    7ee2:	9f e7       	ldi	r25, 0x7F	; 127
    7ee4:	0e 94 e7 3a 	call	0x75ce	; 0x75ce <geluid>
    7ee8:	2f ef       	ldi	r18, 0xFF	; 255
    7eea:	85 ed       	ldi	r24, 0xD5	; 213
    7eec:	96 e0       	ldi	r25, 0x06	; 6
    7eee:	21 50       	subi	r18, 0x01	; 1
    7ef0:	80 40       	sbci	r24, 0x00	; 0
    7ef2:	90 40       	sbci	r25, 0x00	; 0
    7ef4:	e1 f7       	brne	.-8      	; 0x7eee <deuntje+0x3f2>
    7ef6:	00 c0       	rjmp	.+0      	; 0x7ef8 <deuntje+0x3fc>
    7ef8:	00 00       	nop
	_delay_ms(70);
	TCD0.INTCTRLA  = TC_OVFINTLVL_OFF_gc;
    7efa:	1e 82       	std	Y+6, r1	; 0x06
    7efc:	2f ef       	ldi	r18, 0xFF	; 255
    7efe:	85 ed       	ldi	r24, 0xD5	; 213
    7f00:	96 e0       	ldi	r25, 0x06	; 6
    7f02:	21 50       	subi	r18, 0x01	; 1
    7f04:	80 40       	sbci	r24, 0x00	; 0
    7f06:	90 40       	sbci	r25, 0x00	; 0
    7f08:	e1 f7       	brne	.-8      	; 0x7f02 <deuntje+0x406>
    7f0a:	00 c0       	rjmp	.+0      	; 0x7f0c <deuntje+0x410>
    7f0c:	00 00       	nop
	_delay_ms(70);
	
	f = 32519;
	geluid(f);
    7f0e:	87 e0       	ldi	r24, 0x07	; 7
    7f10:	9f e7       	ldi	r25, 0x7F	; 127
    7f12:	0e 94 e7 3a 	call	0x75ce	; 0x75ce <geluid>
    7f16:	2f ef       	ldi	r18, 0xFF	; 255
    7f18:	84 ef       	ldi	r24, 0xF4	; 244
    7f1a:	95 e0       	ldi	r25, 0x05	; 5
    7f1c:	21 50       	subi	r18, 0x01	; 1
    7f1e:	80 40       	sbci	r24, 0x00	; 0
    7f20:	90 40       	sbci	r25, 0x00	; 0
    7f22:	e1 f7       	brne	.-8      	; 0x7f1c <deuntje+0x420>
    7f24:	00 c0       	rjmp	.+0      	; 0x7f26 <deuntje+0x42a>
    7f26:	00 00       	nop
	_delay_ms(61);
	TCD0.INTCTRLA  = TC_OVFINTLVL_OFF_gc;
    7f28:	1e 82       	std	Y+6, r1	; 0x06
    7f2a:	2f ef       	ldi	r18, 0xFF	; 255
    7f2c:	84 ef       	ldi	r24, 0xF4	; 244
    7f2e:	95 e0       	ldi	r25, 0x05	; 5
    7f30:	21 50       	subi	r18, 0x01	; 1
    7f32:	80 40       	sbci	r24, 0x00	; 0
    7f34:	90 40       	sbci	r25, 0x00	; 0
    7f36:	e1 f7       	brne	.-8      	; 0x7f30 <deuntje+0x434>
    7f38:	00 c0       	rjmp	.+0      	; 0x7f3a <deuntje+0x43e>
    7f3a:	00 00       	nop
	_delay_ms(61);
	
	f = 13628;
	geluid(f);
    7f3c:	8c e3       	ldi	r24, 0x3C	; 60
    7f3e:	95 e3       	ldi	r25, 0x35	; 53
    7f40:	0e 94 e7 3a 	call	0x75ce	; 0x75ce <geluid>
    7f44:	2f ef       	ldi	r18, 0xFF	; 255
    7f46:	8b e1       	ldi	r24, 0x1B	; 27
    7f48:	9c e0       	ldi	r25, 0x0C	; 12
    7f4a:	21 50       	subi	r18, 0x01	; 1
    7f4c:	80 40       	sbci	r24, 0x00	; 0
    7f4e:	90 40       	sbci	r25, 0x00	; 0
    7f50:	e1 f7       	brne	.-8      	; 0x7f4a <deuntje+0x44e>
    7f52:	00 c0       	rjmp	.+0      	; 0x7f54 <deuntje+0x458>
    7f54:	00 00       	nop
	_delay_ms(124);
	TCD0.INTCTRLA  = TC_OVFINTLVL_OFF_gc;
    7f56:	1e 82       	std	Y+6, r1	; 0x06
    7f58:	2f ef       	ldi	r18, 0xFF	; 255
    7f5a:	8b e1       	ldi	r24, 0x1B	; 27
    7f5c:	9c e0       	ldi	r25, 0x0C	; 12
    7f5e:	21 50       	subi	r18, 0x01	; 1
    7f60:	80 40       	sbci	r24, 0x00	; 0
    7f62:	90 40       	sbci	r25, 0x00	; 0
    7f64:	e1 f7       	brne	.-8      	; 0x7f5e <deuntje+0x462>
    7f66:	00 c0       	rjmp	.+0      	; 0x7f68 <deuntje+0x46c>
    7f68:	00 00       	nop
	_delay_ms(124);
	
	f = 18181;
	geluid(f);
    7f6a:	85 e0       	ldi	r24, 0x05	; 5
    7f6c:	97 e4       	ldi	r25, 0x47	; 71
    7f6e:	0e 94 e7 3a 	call	0x75ce	; 0x75ce <geluid>
    7f72:	2f ef       	ldi	r18, 0xFF	; 255
    7f74:	87 ef       	ldi	r24, 0xF7	; 247
    7f76:	91 e1       	ldi	r25, 0x11	; 17
    7f78:	21 50       	subi	r18, 0x01	; 1
    7f7a:	80 40       	sbci	r24, 0x00	; 0
    7f7c:	90 40       	sbci	r25, 0x00	; 0
    7f7e:	e1 f7       	brne	.-8      	; 0x7f78 <deuntje+0x47c>
    7f80:	00 c0       	rjmp	.+0      	; 0x7f82 <deuntje+0x486>
    7f82:	00 00       	nop
	_delay_ms(184);
	TCD0.INTCTRLA  = TC_OVFINTLVL_OFF_gc;
    7f84:	1e 82       	std	Y+6, r1	; 0x06
    7f86:	2f ef       	ldi	r18, 0xFF	; 255
    7f88:	87 ef       	ldi	r24, 0xF7	; 247
    7f8a:	91 e1       	ldi	r25, 0x11	; 17
    7f8c:	21 50       	subi	r18, 0x01	; 1
    7f8e:	80 40       	sbci	r24, 0x00	; 0
    7f90:	90 40       	sbci	r25, 0x00	; 0
    7f92:	e1 f7       	brne	.-8      	; 0x7f8c <deuntje+0x490>
    7f94:	00 c0       	rjmp	.+0      	; 0x7f96 <deuntje+0x49a>
    7f96:	00 00       	nop
	_delay_ms(184);
	
	f = 19276;
	geluid(f);
    7f98:	8c e4       	ldi	r24, 0x4C	; 76
    7f9a:	9b e4       	ldi	r25, 0x4B	; 75
    7f9c:	0e 94 e7 3a 	call	0x75ce	; 0x75ce <geluid>
    7fa0:	2f ef       	ldi	r18, 0xFF	; 255
    7fa2:	8f e7       	ldi	r24, 0x7F	; 127
    7fa4:	9c e0       	ldi	r25, 0x0C	; 12
    7fa6:	21 50       	subi	r18, 0x01	; 1
    7fa8:	80 40       	sbci	r24, 0x00	; 0
    7faa:	90 40       	sbci	r25, 0x00	; 0
    7fac:	e1 f7       	brne	.-8      	; 0x7fa6 <deuntje+0x4aa>
    7fae:	00 c0       	rjmp	.+0      	; 0x7fb0 <deuntje+0x4b4>
    7fb0:	00 00       	nop
	_delay_ms(128);
	TCD0.INTCTRLA  = TC_OVFINTLVL_OFF_gc;
    7fb2:	1e 82       	std	Y+6, r1	; 0x06
    7fb4:	2f ef       	ldi	r18, 0xFF	; 255
    7fb6:	8f e7       	ldi	r24, 0x7F	; 127
    7fb8:	9c e0       	ldi	r25, 0x0C	; 12
    7fba:	21 50       	subi	r18, 0x01	; 1
    7fbc:	80 40       	sbci	r24, 0x00	; 0
    7fbe:	90 40       	sbci	r25, 0x00	; 0
    7fc0:	e1 f7       	brne	.-8      	; 0x7fba <deuntje+0x4be>
    7fc2:	00 c0       	rjmp	.+0      	; 0x7fc4 <deuntje+0x4c8>
    7fc4:	00 00       	nop
	_delay_ms(128);
	
	f = 20407;
	geluid(f);
    7fc6:	87 eb       	ldi	r24, 0xB7	; 183
    7fc8:	9f e4       	ldi	r25, 0x4F	; 79
    7fca:	0e 94 e7 3a 	call	0x75ce	; 0x75ce <geluid>
    7fce:	2f ef       	ldi	r18, 0xFF	; 255
    7fd0:	80 ed       	ldi	r24, 0xD0	; 208
    7fd2:	9b e0       	ldi	r25, 0x0B	; 11
    7fd4:	21 50       	subi	r18, 0x01	; 1
    7fd6:	80 40       	sbci	r24, 0x00	; 0
    7fd8:	90 40       	sbci	r25, 0x00	; 0
    7fda:	e1 f7       	brne	.-8      	; 0x7fd4 <deuntje+0x4d8>
    7fdc:	00 c0       	rjmp	.+0      	; 0x7fde <deuntje+0x4e2>
    7fde:	00 00       	nop
	_delay_ms(121);
	TCD0.INTCTRLA  = TC_OVFINTLVL_OFF_gc;
    7fe0:	1e 82       	std	Y+6, r1	; 0x06
    7fe2:	2f ef       	ldi	r18, 0xFF	; 255
    7fe4:	80 ed       	ldi	r24, 0xD0	; 208
    7fe6:	9b e0       	ldi	r25, 0x0B	; 11
    7fe8:	21 50       	subi	r18, 0x01	; 1
    7fea:	80 40       	sbci	r24, 0x00	; 0
    7fec:	90 40       	sbci	r25, 0x00	; 0
    7fee:	e1 f7       	brne	.-8      	; 0x7fe8 <deuntje+0x4ec>
    7ff0:	00 c0       	rjmp	.+0      	; 0x7ff2 <deuntje+0x4f6>
    7ff2:	00 00       	nop
	_delay_ms(121);
	
	f = 22921;
	geluid(f);
    7ff4:	89 e8       	ldi	r24, 0x89	; 137
    7ff6:	99 e5       	ldi	r25, 0x59	; 89
    7ff8:	0e 94 e7 3a 	call	0x75ce	; 0x75ce <geluid>
    7ffc:	2f ef       	ldi	r18, 0xFF	; 255
    7ffe:	84 e3       	ldi	r24, 0x34	; 52
    8000:	9c e0       	ldi	r25, 0x0C	; 12
    8002:	21 50       	subi	r18, 0x01	; 1
    8004:	80 40       	sbci	r24, 0x00	; 0
    8006:	90 40       	sbci	r25, 0x00	; 0
    8008:	e1 f7       	brne	.-8      	; 0x8002 <deuntje+0x506>
    800a:	00 c0       	rjmp	.+0      	; 0x800c <deuntje+0x510>
    800c:	00 00       	nop
	_delay_ms(125);
	TCD0.INTCTRLA  = TC_OVFINTLVL_OFF_gc;
    800e:	1e 82       	std	Y+6, r1	; 0x06
    8010:	2f ef       	ldi	r18, 0xFF	; 255
    8012:	84 e3       	ldi	r24, 0x34	; 52
    8014:	9c e0       	ldi	r25, 0x0C	; 12
    8016:	21 50       	subi	r18, 0x01	; 1
    8018:	80 40       	sbci	r24, 0x00	; 0
    801a:	90 40       	sbci	r25, 0x00	; 0
    801c:	e1 f7       	brne	.-8      	; 0x8016 <deuntje+0x51a>
    801e:	00 c0       	rjmp	.+0      	; 0x8020 <deuntje+0x524>
    8020:	00 00       	nop
	_delay_ms(125);
	
	f = 27303;
	geluid(f);
    8022:	87 ea       	ldi	r24, 0xA7	; 167
    8024:	9a e6       	ldi	r25, 0x6A	; 106
    8026:	0e 94 e7 3a 	call	0x75ce	; 0x75ce <geluid>
    802a:	2f ef       	ldi	r18, 0xFF	; 255
    802c:	84 ef       	ldi	r24, 0xF4	; 244
    802e:	95 e0       	ldi	r25, 0x05	; 5
    8030:	21 50       	subi	r18, 0x01	; 1
    8032:	80 40       	sbci	r24, 0x00	; 0
    8034:	90 40       	sbci	r25, 0x00	; 0
    8036:	e1 f7       	brne	.-8      	; 0x8030 <deuntje+0x534>
    8038:	00 c0       	rjmp	.+0      	; 0x803a <deuntje+0x53e>
    803a:	00 00       	nop
	_delay_ms(61);
	TCD0.INTCTRLA  = TC_OVFINTLVL_OFF_gc;
    803c:	1e 82       	std	Y+6, r1	; 0x06
    803e:	2f ef       	ldi	r18, 0xFF	; 255
    8040:	84 ef       	ldi	r24, 0xF4	; 244
    8042:	95 e0       	ldi	r25, 0x05	; 5
    8044:	21 50       	subi	r18, 0x01	; 1
    8046:	80 40       	sbci	r24, 0x00	; 0
    8048:	90 40       	sbci	r25, 0x00	; 0
    804a:	e1 f7       	brne	.-8      	; 0x8044 <deuntje+0x548>
    804c:	00 c0       	rjmp	.+0      	; 0x804e <deuntje+0x552>
    804e:	00 00       	nop
	_delay_ms(61);
	
	f = 22921;
	geluid(f);
    8050:	89 e8       	ldi	r24, 0x89	; 137
    8052:	99 e5       	ldi	r25, 0x59	; 89
    8054:	0e 94 e7 3a 	call	0x75ce	; 0x75ce <geluid>
    8058:	2f ef       	ldi	r18, 0xFF	; 255
    805a:	84 ef       	ldi	r24, 0xF4	; 244
    805c:	95 e0       	ldi	r25, 0x05	; 5
    805e:	21 50       	subi	r18, 0x01	; 1
    8060:	80 40       	sbci	r24, 0x00	; 0
    8062:	90 40       	sbci	r25, 0x00	; 0
    8064:	e1 f7       	brne	.-8      	; 0x805e <deuntje+0x562>
    8066:	00 c0       	rjmp	.+0      	; 0x8068 <deuntje+0x56c>
    8068:	00 00       	nop
	_delay_ms(61);
	TCD0.INTCTRLA  = TC_OVFINTLVL_OFF_gc;
    806a:	1e 82       	std	Y+6, r1	; 0x06
    806c:	2f ef       	ldi	r18, 0xFF	; 255
    806e:	84 ef       	ldi	r24, 0xF4	; 244
    8070:	95 e0       	ldi	r25, 0x05	; 5
    8072:	21 50       	subi	r18, 0x01	; 1
    8074:	80 40       	sbci	r24, 0x00	; 0
    8076:	90 40       	sbci	r25, 0x00	; 0
    8078:	e1 f7       	brne	.-8      	; 0x8072 <deuntje+0x576>
    807a:	00 c0       	rjmp	.+0      	; 0x807c <deuntje+0x580>
    807c:	00 00       	nop
	_delay_ms(61);	
	
	f = 20407;
	geluid(f);
    807e:	87 eb       	ldi	r24, 0xB7	; 183
    8080:	9f e4       	ldi	r25, 0x4F	; 79
    8082:	0e 94 e7 3a 	call	0x75ce	; 0x75ce <geluid>
    8086:	2f ef       	ldi	r18, 0xFF	; 255
    8088:	8f e3       	ldi	r24, 0x3F	; 63
    808a:	96 e0       	ldi	r25, 0x06	; 6
    808c:	21 50       	subi	r18, 0x01	; 1
    808e:	80 40       	sbci	r24, 0x00	; 0
    8090:	90 40       	sbci	r25, 0x00	; 0
    8092:	e1 f7       	brne	.-8      	; 0x808c <deuntje+0x590>
    8094:	00 c0       	rjmp	.+0      	; 0x8096 <deuntje+0x59a>
    8096:	00 00       	nop
	_delay_ms(64);
	TCD0.INTCTRLA  = TC_OVFINTLVL_OFF_gc;
    8098:	1e 82       	std	Y+6, r1	; 0x06
    809a:	2f ef       	ldi	r18, 0xFF	; 255
    809c:	8f e3       	ldi	r24, 0x3F	; 63
    809e:	96 e0       	ldi	r25, 0x06	; 6
    80a0:	21 50       	subi	r18, 0x01	; 1
    80a2:	80 40       	sbci	r24, 0x00	; 0
    80a4:	90 40       	sbci	r25, 0x00	; 0
    80a6:	e1 f7       	brne	.-8      	; 0x80a0 <deuntje+0x5a4>
    80a8:	00 c0       	rjmp	.+0      	; 0x80aa <deuntje+0x5ae>
    80aa:	00 00       	nop
	_delay_ms(64);
	
	f = 34333;
	geluid(f);
    80ac:	8d e1       	ldi	r24, 0x1D	; 29
    80ae:	96 e8       	ldi	r25, 0x86	; 134
    80b0:	0e 94 e7 3a 	call	0x75ce	; 0x75ce <geluid>
    80b4:	2f ef       	ldi	r18, 0xFF	; 255
    80b6:	85 ed       	ldi	r24, 0xD5	; 213
    80b8:	96 e0       	ldi	r25, 0x06	; 6
    80ba:	21 50       	subi	r18, 0x01	; 1
    80bc:	80 40       	sbci	r24, 0x00	; 0
    80be:	90 40       	sbci	r25, 0x00	; 0
    80c0:	e1 f7       	brne	.-8      	; 0x80ba <deuntje+0x5be>
    80c2:	00 c0       	rjmp	.+0      	; 0x80c4 <deuntje+0x5c8>
    80c4:	00 00       	nop
	_delay_ms(70);
	TCD0.INTCTRLA  = TC_OVFINTLVL_OFF_gc;
    80c6:	1e 82       	std	Y+6, r1	; 0x06
    80c8:	2f ef       	ldi	r18, 0xFF	; 255
    80ca:	85 ed       	ldi	r24, 0xD5	; 213
    80cc:	96 e0       	ldi	r25, 0x06	; 6
    80ce:	21 50       	subi	r18, 0x01	; 1
    80d0:	80 40       	sbci	r24, 0x00	; 0
    80d2:	90 40       	sbci	r25, 0x00	; 0
    80d4:	e1 f7       	brne	.-8      	; 0x80ce <deuntje+0x5d2>
    80d6:	00 c0       	rjmp	.+0      	; 0x80d8 <deuntje+0x5dc>
    80d8:	00 00       	nop
	_delay_ms(70);
	
	f = 34333;
	geluid(f);
    80da:	8d e1       	ldi	r24, 0x1D	; 29
    80dc:	96 e8       	ldi	r25, 0x86	; 134
    80de:	0e 94 e7 3a 	call	0x75ce	; 0x75ce <geluid>
    80e2:	2f ef       	ldi	r18, 0xFF	; 255
    80e4:	84 ef       	ldi	r24, 0xF4	; 244
    80e6:	95 e0       	ldi	r25, 0x05	; 5
    80e8:	21 50       	subi	r18, 0x01	; 1
    80ea:	80 40       	sbci	r24, 0x00	; 0
    80ec:	90 40       	sbci	r25, 0x00	; 0
    80ee:	e1 f7       	brne	.-8      	; 0x80e8 <deuntje+0x5ec>
    80f0:	00 c0       	rjmp	.+0      	; 0x80f2 <deuntje+0x5f6>
    80f2:	00 00       	nop
	_delay_ms(61);
	TCD0.INTCTRLA  = TC_OVFINTLVL_OFF_gc;
    80f4:	1e 82       	std	Y+6, r1	; 0x06
    80f6:	2f ef       	ldi	r18, 0xFF	; 255
    80f8:	84 ef       	ldi	r24, 0xF4	; 244
    80fa:	95 e0       	ldi	r25, 0x05	; 5
    80fc:	21 50       	subi	r18, 0x01	; 1
    80fe:	80 40       	sbci	r24, 0x00	; 0
    8100:	90 40       	sbci	r25, 0x00	; 0
    8102:	e1 f7       	brne	.-8      	; 0x80fc <deuntje+0x600>
    8104:	00 c0       	rjmp	.+0      	; 0x8106 <deuntje+0x60a>
    8106:	00 00       	nop
	_delay_ms(61);
	
	f = 13628;
	geluid(f);
    8108:	8c e3       	ldi	r24, 0x3C	; 60
    810a:	95 e3       	ldi	r25, 0x35	; 53
    810c:	0e 94 e7 3a 	call	0x75ce	; 0x75ce <geluid>
    8110:	2f ef       	ldi	r18, 0xFF	; 255
    8112:	8b e1       	ldi	r24, 0x1B	; 27
    8114:	9c e0       	ldi	r25, 0x0C	; 12
    8116:	21 50       	subi	r18, 0x01	; 1
    8118:	80 40       	sbci	r24, 0x00	; 0
    811a:	90 40       	sbci	r25, 0x00	; 0
    811c:	e1 f7       	brne	.-8      	; 0x8116 <deuntje+0x61a>
    811e:	00 c0       	rjmp	.+0      	; 0x8120 <deuntje+0x624>
    8120:	00 00       	nop
	_delay_ms(124);
	TCD0.INTCTRLA  = TC_OVFINTLVL_OFF_gc;
    8122:	1e 82       	std	Y+6, r1	; 0x06
    8124:	2f ef       	ldi	r18, 0xFF	; 255
    8126:	8b e1       	ldi	r24, 0x1B	; 27
    8128:	9c e0       	ldi	r25, 0x0C	; 12
    812a:	21 50       	subi	r18, 0x01	; 1
    812c:	80 40       	sbci	r24, 0x00	; 0
    812e:	90 40       	sbci	r25, 0x00	; 0
    8130:	e1 f7       	brne	.-8      	; 0x812a <deuntje+0x62e>
    8132:	00 c0       	rjmp	.+0      	; 0x8134 <deuntje+0x638>
    8134:	00 00       	nop
	_delay_ms(124);
	
	f = 18181;
	geluid(f);
    8136:	85 e0       	ldi	r24, 0x05	; 5
    8138:	97 e4       	ldi	r25, 0x47	; 71
    813a:	0e 94 e7 3a 	call	0x75ce	; 0x75ce <geluid>
    813e:	2f ef       	ldi	r18, 0xFF	; 255
    8140:	87 ef       	ldi	r24, 0xF7	; 247
    8142:	91 e1       	ldi	r25, 0x11	; 17
    8144:	21 50       	subi	r18, 0x01	; 1
    8146:	80 40       	sbci	r24, 0x00	; 0
    8148:	90 40       	sbci	r25, 0x00	; 0
    814a:	e1 f7       	brne	.-8      	; 0x8144 <deuntje+0x648>
    814c:	00 c0       	rjmp	.+0      	; 0x814e <deuntje+0x652>
    814e:	00 00       	nop
	_delay_ms(184);
	TCD0.INTCTRLA  = TC_OVFINTLVL_OFF_gc;
    8150:	1e 82       	std	Y+6, r1	; 0x06
    8152:	2f ef       	ldi	r18, 0xFF	; 255
    8154:	87 ef       	ldi	r24, 0xF7	; 247
    8156:	91 e1       	ldi	r25, 0x11	; 17
    8158:	21 50       	subi	r18, 0x01	; 1
    815a:	80 40       	sbci	r24, 0x00	; 0
    815c:	90 40       	sbci	r25, 0x00	; 0
    815e:	e1 f7       	brne	.-8      	; 0x8158 <deuntje+0x65c>
    8160:	00 c0       	rjmp	.+0      	; 0x8162 <deuntje+0x666>
    8162:	00 00       	nop
	_delay_ms(184);
	
	f = 19276;
	geluid(f);
    8164:	8c e4       	ldi	r24, 0x4C	; 76
    8166:	9b e4       	ldi	r25, 0x4B	; 75
    8168:	0e 94 e7 3a 	call	0x75ce	; 0x75ce <geluid>
    816c:	2f ef       	ldi	r18, 0xFF	; 255
    816e:	8f e7       	ldi	r24, 0x7F	; 127
    8170:	9c e0       	ldi	r25, 0x0C	; 12
    8172:	21 50       	subi	r18, 0x01	; 1
    8174:	80 40       	sbci	r24, 0x00	; 0
    8176:	90 40       	sbci	r25, 0x00	; 0
    8178:	e1 f7       	brne	.-8      	; 0x8172 <deuntje+0x676>
    817a:	00 c0       	rjmp	.+0      	; 0x817c <deuntje+0x680>
    817c:	00 00       	nop
	_delay_ms(128);
	TCD0.INTCTRLA  = TC_OVFINTLVL_OFF_gc;
    817e:	1e 82       	std	Y+6, r1	; 0x06
    8180:	2f ef       	ldi	r18, 0xFF	; 255
    8182:	8f e7       	ldi	r24, 0x7F	; 127
    8184:	9c e0       	ldi	r25, 0x0C	; 12
    8186:	21 50       	subi	r18, 0x01	; 1
    8188:	80 40       	sbci	r24, 0x00	; 0
    818a:	90 40       	sbci	r25, 0x00	; 0
    818c:	e1 f7       	brne	.-8      	; 0x8186 <deuntje+0x68a>
    818e:	00 c0       	rjmp	.+0      	; 0x8190 <deuntje+0x694>
    8190:	00 00       	nop
	_delay_ms(128);
	
	f = 20407;
	geluid(f);
    8192:	87 eb       	ldi	r24, 0xB7	; 183
    8194:	9f e4       	ldi	r25, 0x4F	; 79
    8196:	0e 94 e7 3a 	call	0x75ce	; 0x75ce <geluid>
    819a:	2f ef       	ldi	r18, 0xFF	; 255
    819c:	80 ed       	ldi	r24, 0xD0	; 208
    819e:	9b e0       	ldi	r25, 0x0B	; 11
    81a0:	21 50       	subi	r18, 0x01	; 1
    81a2:	80 40       	sbci	r24, 0x00	; 0
    81a4:	90 40       	sbci	r25, 0x00	; 0
    81a6:	e1 f7       	brne	.-8      	; 0x81a0 <deuntje+0x6a4>
    81a8:	00 c0       	rjmp	.+0      	; 0x81aa <deuntje+0x6ae>
    81aa:	00 00       	nop
	_delay_ms(121);
	TCD0.INTCTRLA  = TC_OVFINTLVL_OFF_gc;
    81ac:	1e 82       	std	Y+6, r1	; 0x06
    81ae:	2f ef       	ldi	r18, 0xFF	; 255
    81b0:	80 ed       	ldi	r24, 0xD0	; 208
    81b2:	9b e0       	ldi	r25, 0x0B	; 11
    81b4:	21 50       	subi	r18, 0x01	; 1
    81b6:	80 40       	sbci	r24, 0x00	; 0
    81b8:	90 40       	sbci	r25, 0x00	; 0
    81ba:	e1 f7       	brne	.-8      	; 0x81b4 <deuntje+0x6b8>
    81bc:	00 c0       	rjmp	.+0      	; 0x81be <deuntje+0x6c2>
    81be:	00 00       	nop
	_delay_ms(121);
	
	f = 22921;
	geluid(f);
    81c0:	89 e8       	ldi	r24, 0x89	; 137
    81c2:	99 e5       	ldi	r25, 0x59	; 89
    81c4:	0e 94 e7 3a 	call	0x75ce	; 0x75ce <geluid>
    81c8:	2f ef       	ldi	r18, 0xFF	; 255
    81ca:	84 e3       	ldi	r24, 0x34	; 52
    81cc:	9c e0       	ldi	r25, 0x0C	; 12
    81ce:	21 50       	subi	r18, 0x01	; 1
    81d0:	80 40       	sbci	r24, 0x00	; 0
    81d2:	90 40       	sbci	r25, 0x00	; 0
    81d4:	e1 f7       	brne	.-8      	; 0x81ce <deuntje+0x6d2>
    81d6:	00 c0       	rjmp	.+0      	; 0x81d8 <deuntje+0x6dc>
    81d8:	00 00       	nop
	_delay_ms(125);
	TCD0.INTCTRLA  = TC_OVFINTLVL_OFF_gc;
    81da:	1e 82       	std	Y+6, r1	; 0x06
    81dc:	2f ef       	ldi	r18, 0xFF	; 255
    81de:	84 e3       	ldi	r24, 0x34	; 52
    81e0:	9c e0       	ldi	r25, 0x0C	; 12
    81e2:	21 50       	subi	r18, 0x01	; 1
    81e4:	80 40       	sbci	r24, 0x00	; 0
    81e6:	90 40       	sbci	r25, 0x00	; 0
    81e8:	e1 f7       	brne	.-8      	; 0x81e2 <deuntje+0x6e6>
    81ea:	00 c0       	rjmp	.+0      	; 0x81ec <deuntje+0x6f0>
    81ec:	00 00       	nop
	_delay_ms(125);
	
	f = 27303;
	geluid(f);
    81ee:	87 ea       	ldi	r24, 0xA7	; 167
    81f0:	9a e6       	ldi	r25, 0x6A	; 106
    81f2:	0e 94 e7 3a 	call	0x75ce	; 0x75ce <geluid>
    81f6:	2f ef       	ldi	r18, 0xFF	; 255
    81f8:	84 ef       	ldi	r24, 0xF4	; 244
    81fa:	95 e0       	ldi	r25, 0x05	; 5
    81fc:	21 50       	subi	r18, 0x01	; 1
    81fe:	80 40       	sbci	r24, 0x00	; 0
    8200:	90 40       	sbci	r25, 0x00	; 0
    8202:	e1 f7       	brne	.-8      	; 0x81fc <deuntje+0x700>
    8204:	00 c0       	rjmp	.+0      	; 0x8206 <deuntje+0x70a>
    8206:	00 00       	nop
	_delay_ms(61);
	TCD0.INTCTRLA  = TC_OVFINTLVL_OFF_gc;
    8208:	1e 82       	std	Y+6, r1	; 0x06
    820a:	2f ef       	ldi	r18, 0xFF	; 255
    820c:	84 ef       	ldi	r24, 0xF4	; 244
    820e:	95 e0       	ldi	r25, 0x05	; 5
    8210:	21 50       	subi	r18, 0x01	; 1
    8212:	80 40       	sbci	r24, 0x00	; 0
    8214:	90 40       	sbci	r25, 0x00	; 0
    8216:	e1 f7       	brne	.-8      	; 0x8210 <deuntje+0x714>
    8218:	00 c0       	rjmp	.+0      	; 0x821a <deuntje+0x71e>
    821a:	00 00       	nop
	_delay_ms(61);
	
	f = 22921;
	geluid(f);
    821c:	89 e8       	ldi	r24, 0x89	; 137
    821e:	99 e5       	ldi	r25, 0x59	; 89
    8220:	0e 94 e7 3a 	call	0x75ce	; 0x75ce <geluid>
    8224:	2f ef       	ldi	r18, 0xFF	; 255
    8226:	84 ef       	ldi	r24, 0xF4	; 244
    8228:	95 e0       	ldi	r25, 0x05	; 5
    822a:	21 50       	subi	r18, 0x01	; 1
    822c:	80 40       	sbci	r24, 0x00	; 0
    822e:	90 40       	sbci	r25, 0x00	; 0
    8230:	e1 f7       	brne	.-8      	; 0x822a <deuntje+0x72e>
    8232:	00 c0       	rjmp	.+0      	; 0x8234 <deuntje+0x738>
    8234:	00 00       	nop
	_delay_ms(61);
	TCD0.INTCTRLA  = TC_OVFINTLVL_OFF_gc;
    8236:	1e 82       	std	Y+6, r1	; 0x06
    8238:	2f ef       	ldi	r18, 0xFF	; 255
    823a:	84 ef       	ldi	r24, 0xF4	; 244
    823c:	95 e0       	ldi	r25, 0x05	; 5
    823e:	21 50       	subi	r18, 0x01	; 1
    8240:	80 40       	sbci	r24, 0x00	; 0
    8242:	90 40       	sbci	r25, 0x00	; 0
    8244:	e1 f7       	brne	.-8      	; 0x823e <deuntje+0x742>
    8246:	00 c0       	rjmp	.+0      	; 0x8248 <deuntje+0x74c>
    8248:	00 00       	nop
	_delay_ms(61);
	
	f = 20407;
	geluid(f);
    824a:	87 eb       	ldi	r24, 0xB7	; 183
    824c:	9f e4       	ldi	r25, 0x4F	; 79
    824e:	0e 94 e7 3a 	call	0x75ce	; 0x75ce <geluid>
    8252:	2f ef       	ldi	r18, 0xFF	; 255
    8254:	8f e3       	ldi	r24, 0x3F	; 63
    8256:	96 e0       	ldi	r25, 0x06	; 6
    8258:	21 50       	subi	r18, 0x01	; 1
    825a:	80 40       	sbci	r24, 0x00	; 0
    825c:	90 40       	sbci	r25, 0x00	; 0
    825e:	e1 f7       	brne	.-8      	; 0x8258 <deuntje+0x75c>
    8260:	00 c0       	rjmp	.+0      	; 0x8262 <deuntje+0x766>
    8262:	00 00       	nop
	_delay_ms(64);
	TCD0.INTCTRLA  = TC_OVFINTLVL_OFF_gc;
    8264:	1e 82       	std	Y+6, r1	; 0x06
    8266:	2f ef       	ldi	r18, 0xFF	; 255
    8268:	8f e3       	ldi	r24, 0x3F	; 63
    826a:	96 e0       	ldi	r25, 0x06	; 6
    826c:	21 50       	subi	r18, 0x01	; 1
    826e:	80 40       	sbci	r24, 0x00	; 0
    8270:	90 40       	sbci	r25, 0x00	; 0
    8272:	e1 f7       	brne	.-8      	; 0x826c <deuntje+0x770>
    8274:	00 c0       	rjmp	.+0      	; 0x8276 <deuntje+0x77a>
    8276:	00 00       	nop
	_delay_ms(64);
    8278:	8d b7       	in	r24, 0x3d	; 61
    827a:	9e b7       	in	r25, 0x3e	; 62
    827c:	08 96       	adiw	r24, 0x08	; 8
    827e:	8d bf       	out	0x3d, r24	; 61
    8280:	9e bf       	out	0x3e, r25	; 62
    8282:	df 91       	pop	r29
    8284:	cf 91       	pop	r28
    8286:	08 95       	ret

00008288 <main>:
	PORTE.OUTTGL = PIN7_bm;	
}

int main(void)
{
	PORTB.DIRSET	= PIN7_bm;
    8288:	e0 e2       	ldi	r30, 0x20	; 32
    828a:	f6 e0       	ldi	r31, 0x06	; 6
    828c:	80 e8       	ldi	r24, 0x80	; 128
    828e:	81 83       	std	Z+1, r24	; 0x01
	PORTB.DIRCLR	= PIN2_bm;
    8290:	94 e0       	ldi	r25, 0x04	; 4
    8292:	92 83       	std	Z+2, r25	; 0x02
	PORTC.DIRSET	= PIN0_bm;
    8294:	91 e0       	ldi	r25, 0x01	; 1
    8296:	90 93 41 06 	sts	0x0641, r25	; 0x800641 <__TEXT_REGION_LENGTH__+0x700641>
	PORTE.DIRSET	= PIN7_bm;
    829a:	80 93 81 06 	sts	0x0681, r24	; 0x800681 <__TEXT_REGION_LENGTH__+0x700681>
	PORTA.PIN1CTRL = PORT_OPC_PULLDOWN_gc;
    829e:	a0 e0       	ldi	r26, 0x00	; 0
    82a0:	b6 e0       	ldi	r27, 0x06	; 6
    82a2:	80 e1       	ldi	r24, 0x10	; 16
    82a4:	51 96       	adiw	r26, 0x11	; 17
    82a6:	8c 93       	st	X, r24
    82a8:	51 97       	sbiw	r26, 0x11	; 17
	PORTA.PIN2CTRL = PORT_OPC_PULLDOWN_gc;
    82aa:	52 96       	adiw	r26, 0x12	; 18
    82ac:	8c 93       	st	X, r24
    82ae:	52 97       	sbiw	r26, 0x12	; 18
	PORTA.PIN7CTRL = PORT_OPC_PULLDOWN_gc;
    82b0:	57 96       	adiw	r26, 0x17	; 23
    82b2:	8c 93       	st	X, r24
	PORTB.PIN0CTRL = PORT_OPC_PULLDOWN_gc;
    82b4:	80 8b       	std	Z+16, r24	; 0x10
	init_nrf();
    82b6:	0e 94 8e 3c 	call	0x791c	; 0x791c <init_nrf>
	init_stream(F_CPU);
    82ba:	60 e0       	ldi	r22, 0x00	; 0
    82bc:	78 e4       	ldi	r23, 0x48	; 72
    82be:	88 ee       	ldi	r24, 0xE8	; 232
    82c0:	91 e0       	ldi	r25, 0x01	; 1
    82c2:	0e 94 37 46 	call	0x8c6e	; 0x8c6e <init_stream>
 *          which has a 16 MHz crystal 
 *
 * \return void
 */
void inline init_clock(void) {
  Config32MHzClock_Ext16M();
    82c6:	0e 94 f2 2e 	call	0x5de4	; 0x5de4 <Config32MHzClock_Ext16M>
	init_clock();
	init_klokje();
    82ca:	0e 94 d5 3a 	call	0x75aa	; 0x75aa <init_klokje>
	
	ucg_Init(&ucg, ucg_dev_st7735_18x128x160, ucg_ext_st7735_18,
    82ce:	2b e2       	ldi	r18, 0x2B	; 43
    82d0:	38 e4       	ldi	r19, 0x48	; 72
    82d2:	48 e4       	ldi	r20, 0x48	; 72
    82d4:	55 e3       	ldi	r21, 0x35	; 53
    82d6:	60 ec       	ldi	r22, 0xC0	; 192
    82d8:	75 e3       	ldi	r23, 0x35	; 53
    82da:	88 e9       	ldi	r24, 0x98	; 152
    82dc:	91 e2       	ldi	r25, 0x21	; 33
    82de:	0e 94 0a 39 	call	0x7214	; 0x7214 <ucg_Init>
		(int (*)(struct _ucg_t *, int,  unsigned int,  unsigned char *)) ucg_comm_xmega);
	prepare_screen();
    82e2:	0e 94 f7 3a 	call	0x75ee	; 0x75ee <prepare_screen>
	while (1)
	{
		if (bit_is_set (PORTA.IN, PIN1_bp ))							// If button is pressed allow alarm to be set
    82e6:	0f 2e       	mov	r0, r31
    82e8:	f8 e0       	ldi	r31, 0x08	; 8
    82ea:	cf 2e       	mov	r12, r31
    82ec:	f6 e0       	ldi	r31, 0x06	; 6
    82ee:	df 2e       	mov	r13, r31
    82f0:	f0 2d       	mov	r31, r0
		}
		else															// If no button is pressed, show time
		{
			ucg_SetColor(&ucg, 0, 255, 50, 50);
			ucg_SetPrintPos(&ucg, px, py);
			ucg_Print(&ucg,	"%.2d : %.2d", h, m);
    82f2:	0f 2e       	mov	r0, r31
    82f4:	f5 e4       	ldi	r31, 0x45	; 69
    82f6:	ef 2e       	mov	r14, r31
    82f8:	f0 e2       	ldi	r31, 0x20	; 32
    82fa:	ff 2e       	mov	r15, r31
    82fc:	f0 2d       	mov	r31, r0
 			{
				getData();
				print_info();											// Print info from other devices
			}
		}
		if (bit_is_set(PORTB.IN, PIN2_bp))								// If switch is on, alarm is activated
    82fe:	c8 e2       	ldi	r28, 0x28	; 40
    8300:	d6 e0       	ldi	r29, 0x06	; 6
		{
			PORTB.OUTSET	= PIN7_bm;
    8302:	0f 2e       	mov	r0, r31
    8304:	f0 e2       	ldi	r31, 0x20	; 32
    8306:	af 2e       	mov	r10, r31
    8308:	f6 e0       	ldi	r31, 0x06	; 6
    830a:	bf 2e       	mov	r11, r31
    830c:	f0 2d       	mov	r31, r0
    830e:	10 e8       	ldi	r17, 0x80	; 128
			}
		}
		if (bit_is_clear(PORTB.IN, PIN2_bp))							// If switch off, alarm off
		{
			PORTB.OUTCLR	= PIN7_bm;
			TCD0.INTCTRLA  = TC_OVFINTLVL_OFF_gc;
    8310:	0f 2e       	mov	r0, r31
    8312:	81 2c       	mov	r8, r1
    8314:	f9 e0       	ldi	r31, 0x09	; 9
    8316:	9f 2e       	mov	r9, r31
    8318:	f0 2d       	mov	r31, r0
	ucg_Init(&ucg, ucg_dev_st7735_18x128x160, ucg_ext_st7735_18,
		(int (*)(struct _ucg_t *, int,  unsigned int,  unsigned char *)) ucg_comm_xmega);
	prepare_screen();
	while (1)
	{
		if (bit_is_set (PORTA.IN, PIN1_bp ))							// If button is pressed allow alarm to be set
    831a:	f6 01       	movw	r30, r12
    831c:	80 81       	ld	r24, Z
    831e:	81 ff       	sbrs	r24, 1
    8320:	31 c0       	rjmp	.+98     	; 0x8384 <main+0xfc>
		{			 
			ucg_SetColor(&ucg, 0, 50, 50, 255);
    8322:	0f ef       	ldi	r16, 0xFF	; 255
    8324:	22 e3       	ldi	r18, 0x32	; 50
    8326:	42 e3       	ldi	r20, 0x32	; 50
    8328:	60 e0       	ldi	r22, 0x00	; 0
    832a:	88 e9       	ldi	r24, 0x98	; 152
    832c:	91 e2       	ldi	r25, 0x21	; 33
    832e:	0e 94 75 39 	call	0x72ea	; 0x72ea <ucg_SetColor>
			ucg_SetPrintPos(&ucg, px, py);
    8332:	40 91 0a 20 	lds	r20, 0x200A	; 0x80200a <py>
    8336:	50 91 0b 20 	lds	r21, 0x200B	; 0x80200b <py+0x1>
    833a:	60 91 0c 20 	lds	r22, 0x200C	; 0x80200c <px>
    833e:	70 91 0d 20 	lds	r23, 0x200D	; 0x80200d <px+0x1>
    8342:	88 e9       	ldi	r24, 0x98	; 152
    8344:	91 e2       	ldi	r25, 0x21	; 33
    8346:	0e 94 d6 47 	call	0x8fac	; 0x8fac <ucg_SetPrintPos>
			ucg_Print(&ucg,	"%.2d : %.2d", ah, am);
    834a:	80 91 9d 20 	lds	r24, 0x209D	; 0x80209d <am+0x1>
    834e:	8f 93       	push	r24
    8350:	80 91 9c 20 	lds	r24, 0x209C	; 0x80209c <am>
    8354:	8f 93       	push	r24
    8356:	80 91 9b 20 	lds	r24, 0x209B	; 0x80209b <__data_end+0x1>
    835a:	8f 93       	push	r24
    835c:	80 91 9a 20 	lds	r24, 0x209A	; 0x80209a <__data_end>
    8360:	8f 93       	push	r24
    8362:	ff 92       	push	r15
    8364:	ef 92       	push	r14
    8366:	88 e9       	ldi	r24, 0x98	; 152
    8368:	91 e2       	ldi	r25, 0x21	; 33
    836a:	9f 93       	push	r25
    836c:	8f 93       	push	r24
    836e:	0e 94 e5 47 	call	0x8fca	; 0x8fca <ucg_Print>
			set_alarm();
    8372:	0e 94 fe 3b 	call	0x77fc	; 0x77fc <set_alarm>
    8376:	2d b7       	in	r18, 0x3d	; 61
    8378:	3e b7       	in	r19, 0x3e	; 62
    837a:	28 5f       	subi	r18, 0xF8	; 248
    837c:	3f 4f       	sbci	r19, 0xFF	; 255
    837e:	2d bf       	out	0x3d, r18	; 61
    8380:	3e bf       	out	0x3e, r19	; 62
    8382:	6f c0       	rjmp	.+222    	; 0x8462 <main+0x1da>
		}
		else if (bit_is_set (PORTA.IN, PIN2_bp))						// If button is pressed allow time to be set
    8384:	f6 01       	movw	r30, r12
    8386:	80 81       	ld	r24, Z
    8388:	82 ff       	sbrs	r24, 2
    838a:	31 c0       	rjmp	.+98     	; 0x83ee <main+0x166>
		{
			ucg_SetColor(&ucg, 0, 50, 255, 50);
    838c:	02 e3       	ldi	r16, 0x32	; 50
    838e:	2f ef       	ldi	r18, 0xFF	; 255
    8390:	42 e3       	ldi	r20, 0x32	; 50
    8392:	60 e0       	ldi	r22, 0x00	; 0
    8394:	88 e9       	ldi	r24, 0x98	; 152
    8396:	91 e2       	ldi	r25, 0x21	; 33
    8398:	0e 94 75 39 	call	0x72ea	; 0x72ea <ucg_SetColor>
			ucg_SetPrintPos(&ucg, px, py);	
    839c:	40 91 0a 20 	lds	r20, 0x200A	; 0x80200a <py>
    83a0:	50 91 0b 20 	lds	r21, 0x200B	; 0x80200b <py+0x1>
    83a4:	60 91 0c 20 	lds	r22, 0x200C	; 0x80200c <px>
    83a8:	70 91 0d 20 	lds	r23, 0x200D	; 0x80200d <px+0x1>
    83ac:	88 e9       	ldi	r24, 0x98	; 152
    83ae:	91 e2       	ldi	r25, 0x21	; 33
    83b0:	0e 94 d6 47 	call	0x8fac	; 0x8fac <ucg_SetPrintPos>
			ucg_Print(&ucg,	"%.2d : %.2d", h, m);
    83b4:	80 91 a1 20 	lds	r24, 0x20A1	; 0x8020a1 <m+0x1>
    83b8:	8f 93       	push	r24
    83ba:	80 91 a0 20 	lds	r24, 0x20A0	; 0x8020a0 <m>
    83be:	8f 93       	push	r24
    83c0:	80 91 9f 20 	lds	r24, 0x209F	; 0x80209f <h+0x1>
    83c4:	8f 93       	push	r24
    83c6:	80 91 9e 20 	lds	r24, 0x209E	; 0x80209e <h>
    83ca:	8f 93       	push	r24
    83cc:	ff 92       	push	r15
    83ce:	ef 92       	push	r14
    83d0:	88 e9       	ldi	r24, 0x98	; 152
    83d2:	91 e2       	ldi	r25, 0x21	; 33
    83d4:	9f 93       	push	r25
    83d6:	8f 93       	push	r24
    83d8:	0e 94 e5 47 	call	0x8fca	; 0x8fca <ucg_Print>
			set_time();
    83dc:	0e 94 6e 3b 	call	0x76dc	; 0x76dc <set_time>
    83e0:	2d b7       	in	r18, 0x3d	; 61
    83e2:	3e b7       	in	r19, 0x3e	; 62
    83e4:	28 5f       	subi	r18, 0xF8	; 248
    83e6:	3f 4f       	sbci	r19, 0xFF	; 255
    83e8:	2d bf       	out	0x3d, r18	; 61
    83ea:	3e bf       	out	0x3e, r19	; 62
    83ec:	3a c0       	rjmp	.+116    	; 0x8462 <main+0x1da>
		}
		else															// If no button is pressed, show time
		{
			ucg_SetColor(&ucg, 0, 255, 50, 50);
    83ee:	02 e3       	ldi	r16, 0x32	; 50
    83f0:	22 e3       	ldi	r18, 0x32	; 50
    83f2:	4f ef       	ldi	r20, 0xFF	; 255
    83f4:	60 e0       	ldi	r22, 0x00	; 0
    83f6:	88 e9       	ldi	r24, 0x98	; 152
    83f8:	91 e2       	ldi	r25, 0x21	; 33
    83fa:	0e 94 75 39 	call	0x72ea	; 0x72ea <ucg_SetColor>
			ucg_SetPrintPos(&ucg, px, py);
    83fe:	40 91 0a 20 	lds	r20, 0x200A	; 0x80200a <py>
    8402:	50 91 0b 20 	lds	r21, 0x200B	; 0x80200b <py+0x1>
    8406:	60 91 0c 20 	lds	r22, 0x200C	; 0x80200c <px>
    840a:	70 91 0d 20 	lds	r23, 0x200D	; 0x80200d <px+0x1>
    840e:	88 e9       	ldi	r24, 0x98	; 152
    8410:	91 e2       	ldi	r25, 0x21	; 33
    8412:	0e 94 d6 47 	call	0x8fac	; 0x8fac <ucg_SetPrintPos>
			ucg_Print(&ucg,	"%.2d : %.2d", h, m);
    8416:	80 91 a1 20 	lds	r24, 0x20A1	; 0x8020a1 <m+0x1>
    841a:	8f 93       	push	r24
    841c:	80 91 a0 20 	lds	r24, 0x20A0	; 0x8020a0 <m>
    8420:	8f 93       	push	r24
    8422:	80 91 9f 20 	lds	r24, 0x209F	; 0x80209f <h+0x1>
    8426:	8f 93       	push	r24
    8428:	80 91 9e 20 	lds	r24, 0x209E	; 0x80209e <h>
    842c:	8f 93       	push	r24
    842e:	ff 92       	push	r15
    8430:	ef 92       	push	r14
    8432:	88 e9       	ldi	r24, 0x98	; 152
    8434:	91 e2       	ldi	r25, 0x21	; 33
    8436:	9f 93       	push	r25
    8438:	8f 93       	push	r24
    843a:	0e 94 e5 47 	call	0x8fca	; 0x8fca <ucg_Print>
 			if (s == 1 || s == 31)
    843e:	80 91 a2 20 	lds	r24, 0x20A2	; 0x8020a2 <s>
    8442:	90 91 a3 20 	lds	r25, 0x20A3	; 0x8020a3 <s+0x1>
    8446:	ed b7       	in	r30, 0x3d	; 61
    8448:	fe b7       	in	r31, 0x3e	; 62
    844a:	38 96       	adiw	r30, 0x08	; 8
    844c:	ed bf       	out	0x3d, r30	; 61
    844e:	fe bf       	out	0x3e, r31	; 62
    8450:	81 30       	cpi	r24, 0x01	; 1
    8452:	91 05       	cpc	r25, r1
    8454:	11 f0       	breq	.+4      	; 0x845a <main+0x1d2>
    8456:	4f 97       	sbiw	r24, 0x1f	; 31
    8458:	21 f4       	brne	.+8      	; 0x8462 <main+0x1da>
 			{
				getData();
    845a:	0e 94 b1 3a 	call	0x7562	; 0x7562 <getData>
				print_info();											// Print info from other devices
    845e:	0e 94 15 3b 	call	0x762a	; 0x762a <print_info>
			}
		}
		if (bit_is_set(PORTB.IN, PIN2_bp))								// If switch is on, alarm is activated
    8462:	88 81       	ld	r24, Y
    8464:	82 ff       	sbrs	r24, 2
    8466:	31 c0       	rjmp	.+98     	; 0x84ca <main+0x242>
		{
			PORTB.OUTSET	= PIN7_bm;
    8468:	f5 01       	movw	r30, r10
    846a:	15 83       	std	Z+5, r17	; 0x05
			
			if (m == am && h == ah && s == as)
    846c:	20 91 a0 20 	lds	r18, 0x20A0	; 0x8020a0 <m>
    8470:	30 91 a1 20 	lds	r19, 0x20A1	; 0x8020a1 <m+0x1>
    8474:	80 91 9c 20 	lds	r24, 0x209C	; 0x80209c <am>
    8478:	90 91 9d 20 	lds	r25, 0x209D	; 0x80209d <am+0x1>
    847c:	28 17       	cp	r18, r24
    847e:	39 07       	cpc	r19, r25
    8480:	21 f5       	brne	.+72     	; 0x84ca <main+0x242>
    8482:	20 91 9e 20 	lds	r18, 0x209E	; 0x80209e <h>
    8486:	30 91 9f 20 	lds	r19, 0x209F	; 0x80209f <h+0x1>
    848a:	80 91 9a 20 	lds	r24, 0x209A	; 0x80209a <__data_end>
    848e:	90 91 9b 20 	lds	r25, 0x209B	; 0x80209b <__data_end+0x1>
    8492:	28 17       	cp	r18, r24
    8494:	39 07       	cpc	r19, r25
    8496:	c9 f4       	brne	.+50     	; 0x84ca <main+0x242>
    8498:	20 91 a2 20 	lds	r18, 0x20A2	; 0x8020a2 <s>
    849c:	30 91 a3 20 	lds	r19, 0x20A3	; 0x8020a3 <s+0x1>
    84a0:	80 91 0e 20 	lds	r24, 0x200E	; 0x80200e <as>
    84a4:	90 91 0f 20 	lds	r25, 0x200F	; 0x80200f <as+0x1>
    84a8:	28 17       	cp	r18, r24
    84aa:	39 07       	cpc	r19, r25
    84ac:	71 f4       	brne	.+28     	; 0x84ca <main+0x242>
			{
				alarm();
    84ae:	0e 94 78 3a 	call	0x74f0	; 0x74f0 <alarm>
				while (bit_is_set(PORTB.IN, PIN2_bp))					// If alarm and time are the same, make noise
    84b2:	88 81       	ld	r24, Y
    84b4:	82 ff       	sbrs	r24, 2
    84b6:	09 c0       	rjmp	.+18     	; 0x84ca <main+0x242>
				{
					deuntje(f);
    84b8:	80 91 96 21 	lds	r24, 0x2196	; 0x802196 <f>
    84bc:	90 91 97 21 	lds	r25, 0x2197	; 0x802197 <f+0x1>
    84c0:	0e 94 7e 3d 	call	0x7afc	; 0x7afc <deuntje>
			PORTB.OUTSET	= PIN7_bm;
			
			if (m == am && h == ah && s == as)
			{
				alarm();
				while (bit_is_set(PORTB.IN, PIN2_bp))					// If alarm and time are the same, make noise
    84c4:	88 81       	ld	r24, Y
    84c6:	82 fd       	sbrc	r24, 2
    84c8:	f7 cf       	rjmp	.-18     	; 0x84b8 <main+0x230>
				{
					deuntje(f);
				}
			}
		}
		if (bit_is_clear(PORTB.IN, PIN2_bp))							// If switch off, alarm off
    84ca:	88 81       	ld	r24, Y
    84cc:	82 fd       	sbrc	r24, 2
    84ce:	25 cf       	rjmp	.-438    	; 0x831a <main+0x92>
		{
			PORTB.OUTCLR	= PIN7_bm;
    84d0:	f5 01       	movw	r30, r10
    84d2:	16 83       	std	Z+6, r17	; 0x06
			TCD0.INTCTRLA  = TC_OVFINTLVL_OFF_gc;
    84d4:	f4 01       	movw	r30, r8
    84d6:	16 82       	std	Z+6, r1	; 0x06
    84d8:	20 cf       	rjmp	.-448    	; 0x831a <main+0x92>

000084da <nrfReadRegister>:
 * \brief   Disbale CRC
 */
void nrfDisableCRC( void )
{
  uint8_t config = nrfReadRegister(REG_CONFIG) & ~NRF_CONFIG_EN_CRC_bm;
  nrfWriteRegister( REG_CONFIG, config );
    84da:	1f 93       	push	r17
    84dc:	cf 93       	push	r28
    84de:	df 93       	push	r29
    84e0:	c0 ea       	ldi	r28, 0xA0	; 160
    84e2:	d6 e0       	ldi	r29, 0x06	; 6
    84e4:	10 e2       	ldi	r17, 0x20	; 32
    84e6:	1e 83       	std	Y+6, r17	; 0x06
    84e8:	8f 71       	andi	r24, 0x1F	; 31
    84ea:	0e 94 a8 45 	call	0x8b50	; 0x8b50 <nrfspiTransfer>
    84ee:	8f ef       	ldi	r24, 0xFF	; 255
    84f0:	0e 94 a8 45 	call	0x8b50	; 0x8b50 <nrfspiTransfer>
    84f4:	1d 83       	std	Y+5, r17	; 0x05
    84f6:	df 91       	pop	r29
    84f8:	cf 91       	pop	r28
    84fa:	1f 91       	pop	r17
    84fc:	08 95       	ret

000084fe <nrfWriteRegisterMulti>:
    84fe:	df 92       	push	r13
    8500:	ef 92       	push	r14
    8502:	ff 92       	push	r15
    8504:	0f 93       	push	r16
    8506:	1f 93       	push	r17
    8508:	cf 93       	push	r28
    850a:	df 93       	push	r29
    850c:	7b 01       	movw	r14, r22
    850e:	c4 2f       	mov	r28, r20
    8510:	90 e2       	ldi	r25, 0x20	; 32
    8512:	90 93 a6 06 	sts	0x06A6, r25	; 0x8006a6 <__TEXT_REGION_LENGTH__+0x7006a6>
    8516:	8f 71       	andi	r24, 0x1F	; 31
    8518:	80 62       	ori	r24, 0x20	; 32
    851a:	0e 94 a8 45 	call	0x8b50	; 0x8b50 <nrfspiTransfer>
    851e:	d8 2e       	mov	r13, r24
    8520:	8f ef       	ldi	r24, 0xFF	; 255
    8522:	8c 0f       	add	r24, r28
    8524:	cc 23       	and	r28, r28
    8526:	69 f0       	breq	.+26     	; 0x8542 <nrfWriteRegisterMulti+0x44>
    8528:	e7 01       	movw	r28, r14
    852a:	08 2f       	mov	r16, r24
    852c:	10 e0       	ldi	r17, 0x00	; 0
    852e:	0f 5f       	subi	r16, 0xFF	; 255
    8530:	1f 4f       	sbci	r17, 0xFF	; 255
    8532:	0e 0d       	add	r16, r14
    8534:	1f 1d       	adc	r17, r15
    8536:	89 91       	ld	r24, Y+
    8538:	0e 94 a8 45 	call	0x8b50	; 0x8b50 <nrfspiTransfer>
    853c:	c0 17       	cp	r28, r16
    853e:	d1 07       	cpc	r29, r17
    8540:	d1 f7       	brne	.-12     	; 0x8536 <nrfWriteRegisterMulti+0x38>
    8542:	80 e2       	ldi	r24, 0x20	; 32
    8544:	80 93 a5 06 	sts	0x06A5, r24	; 0x8006a5 <__TEXT_REGION_LENGTH__+0x7006a5>
    8548:	8d 2d       	mov	r24, r13
    854a:	df 91       	pop	r29
    854c:	cf 91       	pop	r28
    854e:	1f 91       	pop	r17
    8550:	0f 91       	pop	r16
    8552:	ff 90       	pop	r15
    8554:	ef 90       	pop	r14
    8556:	df 90       	pop	r13
    8558:	08 95       	ret

0000855a <nrfWriteRegister>:
    855a:	ff 92       	push	r15
    855c:	0f 93       	push	r16
    855e:	1f 93       	push	r17
    8560:	cf 93       	push	r28
    8562:	df 93       	push	r29
    8564:	f6 2e       	mov	r15, r22
    8566:	c0 ea       	ldi	r28, 0xA0	; 160
    8568:	d6 e0       	ldi	r29, 0x06	; 6
    856a:	10 e2       	ldi	r17, 0x20	; 32
    856c:	1e 83       	std	Y+6, r17	; 0x06
    856e:	8f 71       	andi	r24, 0x1F	; 31
    8570:	80 62       	ori	r24, 0x20	; 32
    8572:	0e 94 a8 45 	call	0x8b50	; 0x8b50 <nrfspiTransfer>
    8576:	08 2f       	mov	r16, r24
    8578:	8f 2d       	mov	r24, r15
    857a:	0e 94 a8 45 	call	0x8b50	; 0x8b50 <nrfspiTransfer>
    857e:	1d 83       	std	Y+5, r17	; 0x05
    8580:	80 2f       	mov	r24, r16
    8582:	df 91       	pop	r29
    8584:	cf 91       	pop	r28
    8586:	1f 91       	pop	r17
    8588:	0f 91       	pop	r16
    858a:	ff 90       	pop	r15
    858c:	08 95       	ret

0000858e <nrfWritePayload>:
    858e:	bf 92       	push	r11
    8590:	cf 92       	push	r12
    8592:	df 92       	push	r13
    8594:	ef 92       	push	r14
    8596:	ff 92       	push	r15
    8598:	0f 93       	push	r16
    859a:	1f 93       	push	r17
    859c:	cf 93       	push	r28
    859e:	df 93       	push	r29
    85a0:	6c 01       	movw	r12, r24
    85a2:	84 2f       	mov	r24, r20
    85a4:	c0 91 1b 20 	lds	r28, 0x201B	; 0x80201b <fixed_payload_size>
    85a8:	1c 2f       	mov	r17, r28
    85aa:	6c 17       	cp	r22, r28
    85ac:	08 f4       	brcc	.+2      	; 0x85b0 <nrfWritePayload+0x22>
    85ae:	16 2f       	mov	r17, r22
    85b0:	90 91 a9 20 	lds	r25, 0x20A9	; 0x8020a9 <dynamic_payloads_enabled>
    85b4:	91 11       	cpse	r25, r1
    85b6:	25 c0       	rjmp	.+74     	; 0x8602 <nrfWritePayload+0x74>
    85b8:	0c 2f       	mov	r16, r28
    85ba:	01 1b       	sub	r16, r17
    85bc:	90 e2       	ldi	r25, 0x20	; 32
    85be:	90 93 a6 06 	sts	0x06A6, r25	; 0x8006a6 <__TEXT_REGION_LENGTH__+0x7006a6>
    85c2:	0e 94 a8 45 	call	0x8b50	; 0x8b50 <nrfspiTransfer>
    85c6:	b8 2e       	mov	r11, r24
    85c8:	ee 24       	eor	r14, r14
    85ca:	ea 94       	dec	r14
    85cc:	e1 0e       	add	r14, r17
    85ce:	11 11       	cpse	r17, r1
    85d0:	02 c0       	rjmp	.+4      	; 0x85d6 <nrfWritePayload+0x48>
    85d2:	0e c0       	rjmp	.+28     	; 0x85f0 <nrfWritePayload+0x62>
    85d4:	00 e0       	ldi	r16, 0x00	; 0
    85d6:	e6 01       	movw	r28, r12
    85d8:	f1 2c       	mov	r15, r1
    85da:	8f ef       	ldi	r24, 0xFF	; 255
    85dc:	e8 1a       	sub	r14, r24
    85de:	f8 0a       	sbc	r15, r24
    85e0:	ec 0c       	add	r14, r12
    85e2:	fd 1c       	adc	r15, r13
    85e4:	89 91       	ld	r24, Y+
    85e6:	0e 94 a8 45 	call	0x8b50	; 0x8b50 <nrfspiTransfer>
    85ea:	ec 16       	cp	r14, r28
    85ec:	fd 06       	cpc	r15, r29
    85ee:	d1 f7       	brne	.-12     	; 0x85e4 <nrfWritePayload+0x56>
    85f0:	00 23       	and	r16, r16
    85f2:	91 f0       	breq	.+36     	; 0x8618 <nrfWritePayload+0x8a>
    85f4:	c0 2f       	mov	r28, r16
    85f6:	80 e0       	ldi	r24, 0x00	; 0
    85f8:	0e 94 a8 45 	call	0x8b50	; 0x8b50 <nrfspiTransfer>
    85fc:	c1 50       	subi	r28, 0x01	; 1
    85fe:	d9 f7       	brne	.-10     	; 0x85f6 <nrfWritePayload+0x68>
    8600:	0b c0       	rjmp	.+22     	; 0x8618 <nrfWritePayload+0x8a>
    8602:	90 e2       	ldi	r25, 0x20	; 32
    8604:	90 93 a6 06 	sts	0x06A6, r25	; 0x8006a6 <__TEXT_REGION_LENGTH__+0x7006a6>
    8608:	0e 94 a8 45 	call	0x8b50	; 0x8b50 <nrfspiTransfer>
    860c:	b8 2e       	mov	r11, r24
    860e:	ee 24       	eor	r14, r14
    8610:	ea 94       	dec	r14
    8612:	e1 0e       	add	r14, r17
    8614:	11 11       	cpse	r17, r1
    8616:	de cf       	rjmp	.-68     	; 0x85d4 <nrfWritePayload+0x46>
    8618:	80 e2       	ldi	r24, 0x20	; 32
    861a:	80 93 a5 06 	sts	0x06A5, r24	; 0x8006a5 <__TEXT_REGION_LENGTH__+0x7006a5>
    861e:	8b 2d       	mov	r24, r11
    8620:	df 91       	pop	r29
    8622:	cf 91       	pop	r28
    8624:	1f 91       	pop	r17
    8626:	0f 91       	pop	r16
    8628:	ff 90       	pop	r15
    862a:	ef 90       	pop	r14
    862c:	df 90       	pop	r13
    862e:	cf 90       	pop	r12
    8630:	bf 90       	pop	r11
    8632:	08 95       	ret

00008634 <nrfReadPayload>:
    8634:	bf 92       	push	r11
    8636:	cf 92       	push	r12
    8638:	df 92       	push	r13
    863a:	ef 92       	push	r14
    863c:	ff 92       	push	r15
    863e:	0f 93       	push	r16
    8640:	1f 93       	push	r17
    8642:	cf 93       	push	r28
    8644:	df 93       	push	r29
    8646:	6c 01       	movw	r12, r24
    8648:	c0 91 1b 20 	lds	r28, 0x201B	; 0x80201b <fixed_payload_size>
    864c:	1c 2f       	mov	r17, r28
    864e:	6c 17       	cp	r22, r28
    8650:	08 f4       	brcc	.+2      	; 0x8654 <nrfReadPayload+0x20>
    8652:	16 2f       	mov	r17, r22
    8654:	80 91 a9 20 	lds	r24, 0x20A9	; 0x8020a9 <dynamic_payloads_enabled>
    8658:	81 11       	cpse	r24, r1
    865a:	27 c0       	rjmp	.+78     	; 0x86aa <nrfReadPayload+0x76>
    865c:	0c 2f       	mov	r16, r28
    865e:	01 1b       	sub	r16, r17
    8660:	80 e2       	ldi	r24, 0x20	; 32
    8662:	80 93 a6 06 	sts	0x06A6, r24	; 0x8006a6 <__TEXT_REGION_LENGTH__+0x7006a6>
    8666:	81 e6       	ldi	r24, 0x61	; 97
    8668:	0e 94 a8 45 	call	0x8b50	; 0x8b50 <nrfspiTransfer>
    866c:	b8 2e       	mov	r11, r24
    866e:	ee 24       	eor	r14, r14
    8670:	ea 94       	dec	r14
    8672:	e1 0e       	add	r14, r17
    8674:	11 11       	cpse	r17, r1
    8676:	02 c0       	rjmp	.+4      	; 0x867c <nrfReadPayload+0x48>
    8678:	0f c0       	rjmp	.+30     	; 0x8698 <nrfReadPayload+0x64>
    867a:	00 e0       	ldi	r16, 0x00	; 0
    867c:	e6 01       	movw	r28, r12
    867e:	f1 2c       	mov	r15, r1
    8680:	8f ef       	ldi	r24, 0xFF	; 255
    8682:	e8 1a       	sub	r14, r24
    8684:	f8 0a       	sbc	r15, r24
    8686:	ec 0c       	add	r14, r12
    8688:	fd 1c       	adc	r15, r13
    868a:	8f ef       	ldi	r24, 0xFF	; 255
    868c:	0e 94 a8 45 	call	0x8b50	; 0x8b50 <nrfspiTransfer>
    8690:	89 93       	st	Y+, r24
    8692:	ec 16       	cp	r14, r28
    8694:	fd 06       	cpc	r15, r29
    8696:	c9 f7       	brne	.-14     	; 0x868a <nrfReadPayload+0x56>
    8698:	00 23       	and	r16, r16
    869a:	99 f0       	breq	.+38     	; 0x86c2 <nrfReadPayload+0x8e>
    869c:	c0 2f       	mov	r28, r16
    869e:	8f ef       	ldi	r24, 0xFF	; 255
    86a0:	0e 94 a8 45 	call	0x8b50	; 0x8b50 <nrfspiTransfer>
    86a4:	c1 50       	subi	r28, 0x01	; 1
    86a6:	d9 f7       	brne	.-10     	; 0x869e <nrfReadPayload+0x6a>
    86a8:	0c c0       	rjmp	.+24     	; 0x86c2 <nrfReadPayload+0x8e>
    86aa:	80 e2       	ldi	r24, 0x20	; 32
    86ac:	80 93 a6 06 	sts	0x06A6, r24	; 0x8006a6 <__TEXT_REGION_LENGTH__+0x7006a6>
    86b0:	81 e6       	ldi	r24, 0x61	; 97
    86b2:	0e 94 a8 45 	call	0x8b50	; 0x8b50 <nrfspiTransfer>
    86b6:	b8 2e       	mov	r11, r24
    86b8:	ee 24       	eor	r14, r14
    86ba:	ea 94       	dec	r14
    86bc:	e1 0e       	add	r14, r17
    86be:	11 11       	cpse	r17, r1
    86c0:	dc cf       	rjmp	.-72     	; 0x867a <nrfReadPayload+0x46>
    86c2:	80 e2       	ldi	r24, 0x20	; 32
    86c4:	80 93 a5 06 	sts	0x06A5, r24	; 0x8006a5 <__TEXT_REGION_LENGTH__+0x7006a5>
    86c8:	8b 2d       	mov	r24, r11
    86ca:	df 91       	pop	r29
    86cc:	cf 91       	pop	r28
    86ce:	1f 91       	pop	r17
    86d0:	0f 91       	pop	r16
    86d2:	ff 90       	pop	r15
    86d4:	ef 90       	pop	r14
    86d6:	df 90       	pop	r13
    86d8:	cf 90       	pop	r12
    86da:	bf 90       	pop	r11
    86dc:	08 95       	ret

000086de <nrfRead>:
    86de:	0e 94 1a 43 	call	0x8634	; 0x8634 <nrfReadPayload>
    86e2:	87 e1       	ldi	r24, 0x17	; 23
    86e4:	0e 94 6d 42 	call	0x84da	; 0x84da <nrfReadRegister>
    86e8:	81 70       	andi	r24, 0x01	; 1
    86ea:	08 95       	ret

000086ec <nrfFlushRx>:
    86ec:	1f 93       	push	r17
    86ee:	cf 93       	push	r28
    86f0:	df 93       	push	r29
    86f2:	c0 ea       	ldi	r28, 0xA0	; 160
    86f4:	d6 e0       	ldi	r29, 0x06	; 6
    86f6:	10 e2       	ldi	r17, 0x20	; 32
    86f8:	1e 83       	std	Y+6, r17	; 0x06
    86fa:	82 ee       	ldi	r24, 0xE2	; 226
    86fc:	0e 94 a8 45 	call	0x8b50	; 0x8b50 <nrfspiTransfer>
    8700:	1d 83       	std	Y+5, r17	; 0x05
    8702:	df 91       	pop	r29
    8704:	cf 91       	pop	r28
    8706:	1f 91       	pop	r17
    8708:	08 95       	ret

0000870a <nrfFlushTx>:
    870a:	1f 93       	push	r17
    870c:	cf 93       	push	r28
    870e:	df 93       	push	r29
    8710:	c0 ea       	ldi	r28, 0xA0	; 160
    8712:	d6 e0       	ldi	r29, 0x06	; 6
    8714:	10 e2       	ldi	r17, 0x20	; 32
    8716:	1e 83       	std	Y+6, r17	; 0x06
    8718:	81 ee       	ldi	r24, 0xE1	; 225
    871a:	0e 94 a8 45 	call	0x8b50	; 0x8b50 <nrfspiTransfer>
    871e:	1d 83       	std	Y+5, r17	; 0x05
    8720:	df 91       	pop	r29
    8722:	cf 91       	pop	r28
    8724:	1f 91       	pop	r17
    8726:	08 95       	ret

00008728 <nrfStartListening>:
    8728:	80 e0       	ldi	r24, 0x00	; 0
    872a:	0e 94 6d 42 	call	0x84da	; 0x84da <nrfReadRegister>
    872e:	81 fd       	sbrc	r24, 1
    8730:	0c c0       	rjmp	.+24     	; 0x874a <nrfStartListening+0x22>
    8732:	68 2f       	mov	r22, r24
    8734:	63 60       	ori	r22, 0x03	; 3
    8736:	80 e0       	ldi	r24, 0x00	; 0
    8738:	0e 94 ad 42 	call	0x855a	; 0x855a <nrfWriteRegister>
    873c:	8f e7       	ldi	r24, 0x7F	; 127
    873e:	9e e3       	ldi	r25, 0x3E	; 62
    8740:	01 97       	sbiw	r24, 0x01	; 1
    8742:	f1 f7       	brne	.-4      	; 0x8740 <nrfStartListening+0x18>
    8744:	00 c0       	rjmp	.+0      	; 0x8746 <nrfStartListening+0x1e>
    8746:	00 00       	nop
    8748:	05 c0       	rjmp	.+10     	; 0x8754 <nrfStartListening+0x2c>
    874a:	68 2f       	mov	r22, r24
    874c:	61 60       	ori	r22, 0x01	; 1
    874e:	80 e0       	ldi	r24, 0x00	; 0
    8750:	0e 94 ad 42 	call	0x855a	; 0x855a <nrfWriteRegister>
    8754:	8f e0       	ldi	r24, 0x0F	; 15
    8756:	94 e0       	ldi	r25, 0x04	; 4
    8758:	01 97       	sbiw	r24, 0x01	; 1
    875a:	f1 f7       	brne	.-4      	; 0x8758 <nrfStartListening+0x30>
    875c:	00 c0       	rjmp	.+0      	; 0x875e <nrfStartListening+0x36>
    875e:	00 00       	nop
    8760:	60 e7       	ldi	r22, 0x70	; 112
    8762:	87 e0       	ldi	r24, 0x07	; 7
    8764:	0e 94 ad 42 	call	0x855a	; 0x855a <nrfWriteRegister>
    8768:	40 91 1a 20 	lds	r20, 0x201A	; 0x80201a <addr_width>
    876c:	64 ea       	ldi	r22, 0xA4	; 164
    876e:	70 e2       	ldi	r23, 0x20	; 32
    8770:	8a e0       	ldi	r24, 0x0A	; 10
    8772:	0e 94 7f 42 	call	0x84fe	; 0x84fe <nrfWriteRegisterMulti>
    8776:	0e 94 76 43 	call	0x86ec	; 0x86ec <nrfFlushRx>
    877a:	0e 94 85 43 	call	0x870a	; 0x870a <nrfFlushTx>
    877e:	80 e8       	ldi	r24, 0x80	; 128
    8780:	80 93 a5 06 	sts	0x06A5, r24	; 0x8006a5 <__TEXT_REGION_LENGTH__+0x7006a5>
    8784:	8f e0       	ldi	r24, 0x0F	; 15
    8786:	94 e0       	ldi	r25, 0x04	; 4
    8788:	01 97       	sbiw	r24, 0x01	; 1
    878a:	f1 f7       	brne	.-4      	; 0x8788 <nrfStartListening+0x60>
    878c:	00 c0       	rjmp	.+0      	; 0x878e <nrfStartListening+0x66>
    878e:	00 00       	nop
    8790:	08 95       	ret

00008792 <nrfStopListening>:
    8792:	80 e8       	ldi	r24, 0x80	; 128
    8794:	80 93 a6 06 	sts	0x06A6, r24	; 0x8006a6 <__TEXT_REGION_LENGTH__+0x7006a6>
    8798:	0e 94 76 43 	call	0x86ec	; 0x86ec <nrfFlushRx>
    879c:	0e 94 85 43 	call	0x870a	; 0x870a <nrfFlushTx>
    87a0:	08 95       	ret

000087a2 <nrfStartWrite>:
    87a2:	0f 93       	push	r16
    87a4:	1f 93       	push	r17
    87a6:	cf 93       	push	r28
    87a8:	df 93       	push	r29
    87aa:	ec 01       	movw	r28, r24
    87ac:	16 2f       	mov	r17, r22
    87ae:	04 2f       	mov	r16, r20
    87b0:	80 e0       	ldi	r24, 0x00	; 0
    87b2:	0e 94 6d 42 	call	0x84da	; 0x84da <nrfReadRegister>
    87b6:	81 fd       	sbrc	r24, 1
    87b8:	0d c0       	rjmp	.+26     	; 0x87d4 <nrfStartWrite+0x32>
    87ba:	68 2f       	mov	r22, r24
    87bc:	6e 7f       	andi	r22, 0xFE	; 254
    87be:	62 60       	ori	r22, 0x02	; 2
    87c0:	80 e0       	ldi	r24, 0x00	; 0
    87c2:	0e 94 ad 42 	call	0x855a	; 0x855a <nrfWriteRegister>
    87c6:	8f e7       	ldi	r24, 0x7F	; 127
    87c8:	9e e3       	ldi	r25, 0x3E	; 62
    87ca:	01 97       	sbiw	r24, 0x01	; 1
    87cc:	f1 f7       	brne	.-4      	; 0x87ca <nrfStartWrite+0x28>
    87ce:	00 c0       	rjmp	.+0      	; 0x87d0 <nrfStartWrite+0x2e>
    87d0:	00 00       	nop
    87d2:	05 c0       	rjmp	.+10     	; 0x87de <nrfStartWrite+0x3c>
    87d4:	68 2f       	mov	r22, r24
    87d6:	6e 7f       	andi	r22, 0xFE	; 254
    87d8:	80 e0       	ldi	r24, 0x00	; 0
    87da:	0e 94 ad 42 	call	0x855a	; 0x855a <nrfWriteRegister>
    87de:	8f e0       	ldi	r24, 0x0F	; 15
    87e0:	94 e0       	ldi	r25, 0x04	; 4
    87e2:	01 97       	sbiw	r24, 0x01	; 1
    87e4:	f1 f7       	brne	.-4      	; 0x87e2 <nrfStartWrite+0x40>
    87e6:	00 c0       	rjmp	.+0      	; 0x87e8 <nrfStartWrite+0x46>
    87e8:	00 00       	nop
    87ea:	40 2f       	mov	r20, r16
    87ec:	61 2f       	mov	r22, r17
    87ee:	ce 01       	movw	r24, r28
    87f0:	0e 94 c7 42 	call	0x858e	; 0x858e <nrfWritePayload>
    87f4:	e0 ea       	ldi	r30, 0xA0	; 160
    87f6:	f6 e0       	ldi	r31, 0x06	; 6
    87f8:	80 e8       	ldi	r24, 0x80	; 128
    87fa:	85 83       	std	Z+5, r24	; 0x05
    87fc:	9a e6       	ldi	r25, 0x6A	; 106
    87fe:	9a 95       	dec	r25
    8800:	f1 f7       	brne	.-4      	; 0x87fe <nrfStartWrite+0x5c>
    8802:	00 c0       	rjmp	.+0      	; 0x8804 <nrfStartWrite+0x62>
    8804:	86 83       	std	Z+6, r24	; 0x06
    8806:	df 91       	pop	r29
    8808:	cf 91       	pop	r28
    880a:	1f 91       	pop	r17
    880c:	0f 91       	pop	r16
    880e:	08 95       	ret

00008810 <nrfWhatHappened>:
    8810:	ef 92       	push	r14
    8812:	ff 92       	push	r15
    8814:	0f 93       	push	r16
    8816:	1f 93       	push	r17
    8818:	cf 93       	push	r28
    881a:	df 93       	push	r29
    881c:	7c 01       	movw	r14, r24
    881e:	8b 01       	movw	r16, r22
    8820:	ea 01       	movw	r28, r20
    8822:	60 e7       	ldi	r22, 0x70	; 112
    8824:	87 e0       	ldi	r24, 0x07	; 7
    8826:	0e 94 ad 42 	call	0x855a	; 0x855a <nrfWriteRegister>
    882a:	98 2f       	mov	r25, r24
    882c:	90 72       	andi	r25, 0x20	; 32
    882e:	f7 01       	movw	r30, r14
    8830:	90 83       	st	Z, r25
    8832:	98 2f       	mov	r25, r24
    8834:	90 71       	andi	r25, 0x10	; 16
    8836:	f8 01       	movw	r30, r16
    8838:	90 83       	st	Z, r25
    883a:	80 74       	andi	r24, 0x40	; 64
    883c:	88 83       	st	Y, r24
    883e:	df 91       	pop	r29
    8840:	cf 91       	pop	r28
    8842:	1f 91       	pop	r17
    8844:	0f 91       	pop	r16
    8846:	ff 90       	pop	r15
    8848:	ef 90       	pop	r14
    884a:	08 95       	ret

0000884c <nrfOpenWritingPipe>:
    884c:	cf 93       	push	r28
    884e:	df 93       	push	r29
    8850:	ec 01       	movw	r28, r24
    8852:	40 91 1a 20 	lds	r20, 0x201A	; 0x80201a <addr_width>
    8856:	bc 01       	movw	r22, r24
    8858:	8a e0       	ldi	r24, 0x0A	; 10
    885a:	0e 94 7f 42 	call	0x84fe	; 0x84fe <nrfWriteRegisterMulti>
    885e:	40 91 1a 20 	lds	r20, 0x201A	; 0x80201a <addr_width>
    8862:	be 01       	movw	r22, r28
    8864:	80 e1       	ldi	r24, 0x10	; 16
    8866:	0e 94 7f 42 	call	0x84fe	; 0x84fe <nrfWriteRegisterMulti>
    886a:	60 91 1b 20 	lds	r22, 0x201B	; 0x80201b <fixed_payload_size>
    886e:	60 32       	cpi	r22, 0x20	; 32
    8870:	20 f4       	brcc	.+8      	; 0x887a <nrfOpenWritingPipe+0x2e>
    8872:	81 e1       	ldi	r24, 0x11	; 17
    8874:	0e 94 ad 42 	call	0x855a	; 0x855a <nrfWriteRegister>
    8878:	04 c0       	rjmp	.+8      	; 0x8882 <nrfOpenWritingPipe+0x36>
    887a:	60 e2       	ldi	r22, 0x20	; 32
    887c:	81 e1       	ldi	r24, 0x11	; 17
    887e:	0e 94 ad 42 	call	0x855a	; 0x855a <nrfWriteRegister>
    8882:	df 91       	pop	r29
    8884:	cf 91       	pop	r28
    8886:	08 95       	ret

00008888 <nrfOpenReadingPipe>:
    8888:	0f 93       	push	r16
    888a:	1f 93       	push	r17
    888c:	cf 93       	push	r28
    888e:	df 93       	push	r29
    8890:	c8 2f       	mov	r28, r24
    8892:	8b 01       	movw	r16, r22
    8894:	81 11       	cpse	r24, r1
    8896:	08 c0       	rjmp	.+16     	; 0x88a8 <nrfOpenReadingPipe+0x20>
    8898:	40 91 1a 20 	lds	r20, 0x201A	; 0x80201a <addr_width>
    889c:	50 e0       	ldi	r21, 0x00	; 0
    889e:	84 ea       	ldi	r24, 0xA4	; 164
    88a0:	90 e2       	ldi	r25, 0x20	; 32
    88a2:	0e 94 a7 4c 	call	0x994e	; 0x994e <memcpy>
    88a6:	04 c0       	rjmp	.+8      	; 0x88b0 <nrfOpenReadingPipe+0x28>
    88a8:	87 30       	cpi	r24, 0x07	; 7
    88aa:	78 f5       	brcc	.+94     	; 0x890a <nrfOpenReadingPipe+0x82>
    88ac:	82 30       	cpi	r24, 0x02	; 2
    88ae:	58 f4       	brcc	.+22     	; 0x88c6 <nrfOpenReadingPipe+0x3e>
    88b0:	ec 2f       	mov	r30, r28
    88b2:	f0 e0       	ldi	r31, 0x00	; 0
    88b4:	ed 56       	subi	r30, 0x6D	; 109
    88b6:	ff 4d       	sbci	r31, 0xDF	; 223
    88b8:	40 91 1a 20 	lds	r20, 0x201A	; 0x80201a <addr_width>
    88bc:	b8 01       	movw	r22, r16
    88be:	80 81       	ld	r24, Z
    88c0:	0e 94 7f 42 	call	0x84fe	; 0x84fe <nrfWriteRegisterMulti>
    88c4:	08 c0       	rjmp	.+16     	; 0x88d6 <nrfOpenReadingPipe+0x4e>
    88c6:	e8 2f       	mov	r30, r24
    88c8:	f0 e0       	ldi	r31, 0x00	; 0
    88ca:	ed 56       	subi	r30, 0x6D	; 109
    88cc:	ff 4d       	sbci	r31, 0xDF	; 223
    88ce:	41 e0       	ldi	r20, 0x01	; 1
    88d0:	80 81       	ld	r24, Z
    88d2:	0e 94 7f 42 	call	0x84fe	; 0x84fe <nrfWriteRegisterMulti>
    88d6:	d0 e0       	ldi	r29, 0x00	; 0
    88d8:	fe 01       	movw	r30, r28
    88da:	e3 57       	subi	r30, 0x73	; 115
    88dc:	ff 4d       	sbci	r31, 0xDF	; 223
    88de:	60 91 1b 20 	lds	r22, 0x201B	; 0x80201b <fixed_payload_size>
    88e2:	80 81       	ld	r24, Z
    88e4:	0e 94 ad 42 	call	0x855a	; 0x855a <nrfWriteRegister>
    88e8:	82 e0       	ldi	r24, 0x02	; 2
    88ea:	0e 94 6d 42 	call	0x84da	; 0x84da <nrfReadRegister>
    88ee:	c9 57       	subi	r28, 0x79	; 121
    88f0:	df 4d       	sbci	r29, 0xDF	; 223
    88f2:	61 e0       	ldi	r22, 0x01	; 1
    88f4:	70 e0       	ldi	r23, 0x00	; 0
    88f6:	08 80       	ld	r0, Y
    88f8:	02 c0       	rjmp	.+4      	; 0x88fe <nrfOpenReadingPipe+0x76>
    88fa:	66 0f       	add	r22, r22
    88fc:	77 1f       	adc	r23, r23
    88fe:	0a 94       	dec	r0
    8900:	e2 f7       	brpl	.-8      	; 0x88fa <nrfOpenReadingPipe+0x72>
    8902:	68 2b       	or	r22, r24
    8904:	82 e0       	ldi	r24, 0x02	; 2
    8906:	0e 94 ad 42 	call	0x855a	; 0x855a <nrfWriteRegister>
    890a:	df 91       	pop	r29
    890c:	cf 91       	pop	r28
    890e:	1f 91       	pop	r17
    8910:	0f 91       	pop	r16
    8912:	08 95       	ret

00008914 <nrfToggleFeatures>:
    8914:	1f 93       	push	r17
    8916:	cf 93       	push	r28
    8918:	df 93       	push	r29
    891a:	c0 ea       	ldi	r28, 0xA0	; 160
    891c:	d6 e0       	ldi	r29, 0x06	; 6
    891e:	10 e2       	ldi	r17, 0x20	; 32
    8920:	1e 83       	std	Y+6, r17	; 0x06
    8922:	80 e5       	ldi	r24, 0x50	; 80
    8924:	0e 94 a8 45 	call	0x8b50	; 0x8b50 <nrfspiTransfer>
    8928:	83 e7       	ldi	r24, 0x73	; 115
    892a:	0e 94 a8 45 	call	0x8b50	; 0x8b50 <nrfspiTransfer>
    892e:	1d 83       	std	Y+5, r17	; 0x05
    8930:	df 91       	pop	r29
    8932:	cf 91       	pop	r28
    8934:	1f 91       	pop	r17
    8936:	08 95       	ret

00008938 <nrfEnableDynamicPayloads>:
    8938:	8d e1       	ldi	r24, 0x1D	; 29
    893a:	0e 94 6d 42 	call	0x84da	; 0x84da <nrfReadRegister>
    893e:	68 2f       	mov	r22, r24
    8940:	64 60       	ori	r22, 0x04	; 4
    8942:	8d e1       	ldi	r24, 0x1D	; 29
    8944:	0e 94 ad 42 	call	0x855a	; 0x855a <nrfWriteRegister>
    8948:	8d e1       	ldi	r24, 0x1D	; 29
    894a:	0e 94 6d 42 	call	0x84da	; 0x84da <nrfReadRegister>
    894e:	81 11       	cpse	r24, r1
    8950:	0a c0       	rjmp	.+20     	; 0x8966 <nrfEnableDynamicPayloads+0x2e>
    8952:	0e 94 8a 44 	call	0x8914	; 0x8914 <nrfToggleFeatures>
    8956:	8d e1       	ldi	r24, 0x1D	; 29
    8958:	0e 94 6d 42 	call	0x84da	; 0x84da <nrfReadRegister>
    895c:	68 2f       	mov	r22, r24
    895e:	64 60       	ori	r22, 0x04	; 4
    8960:	8d e1       	ldi	r24, 0x1D	; 29
    8962:	0e 94 ad 42 	call	0x855a	; 0x855a <nrfWriteRegister>
    8966:	8c e1       	ldi	r24, 0x1C	; 28
    8968:	0e 94 6d 42 	call	0x84da	; 0x84da <nrfReadRegister>
    896c:	68 2f       	mov	r22, r24
    896e:	6f 63       	ori	r22, 0x3F	; 63
    8970:	8c e1       	ldi	r24, 0x1C	; 28
    8972:	0e 94 ad 42 	call	0x855a	; 0x855a <nrfWriteRegister>
    8976:	81 e0       	ldi	r24, 0x01	; 1
    8978:	80 93 a9 20 	sts	0x20A9, r24	; 0x8020a9 <dynamic_payloads_enabled>
    897c:	08 95       	ret

0000897e <nrfSetChannel>:
    897e:	88 23       	and	r24, r24
    8980:	2c f0       	brlt	.+10     	; 0x898c <nrfSetChannel+0xe>
    8982:	68 2f       	mov	r22, r24
    8984:	85 e0       	ldi	r24, 0x05	; 5
    8986:	0e 94 ad 42 	call	0x855a	; 0x855a <nrfWriteRegister>
    898a:	08 95       	ret
    898c:	6f e7       	ldi	r22, 0x7F	; 127
    898e:	85 e0       	ldi	r24, 0x05	; 5
    8990:	0e 94 ad 42 	call	0x855a	; 0x855a <nrfWriteRegister>
    8994:	08 95       	ret

00008996 <nrfSetAutoAck>:
    8996:	88 23       	and	r24, r24
    8998:	29 f0       	breq	.+10     	; 0x89a4 <nrfSetAutoAck+0xe>
    899a:	6f e3       	ldi	r22, 0x3F	; 63
    899c:	81 e0       	ldi	r24, 0x01	; 1
    899e:	0e 94 ad 42 	call	0x855a	; 0x855a <nrfWriteRegister>
    89a2:	08 95       	ret
    89a4:	60 e0       	ldi	r22, 0x00	; 0
    89a6:	81 e0       	ldi	r24, 0x01	; 1
    89a8:	0e 94 ad 42 	call	0x855a	; 0x855a <nrfWriteRegister>
    89ac:	08 95       	ret

000089ae <nrfSetPALevel>:
    89ae:	cf 93       	push	r28
    89b0:	c8 2f       	mov	r28, r24
    89b2:	86 e0       	ldi	r24, 0x06	; 6
    89b4:	0e 94 6d 42 	call	0x84da	; 0x84da <nrfReadRegister>
    89b8:	89 7f       	andi	r24, 0xF9	; 249
    89ba:	c6 70       	andi	r28, 0x06	; 6
    89bc:	68 2f       	mov	r22, r24
    89be:	6c 2b       	or	r22, r28
    89c0:	86 e0       	ldi	r24, 0x06	; 6
    89c2:	0e 94 ad 42 	call	0x855a	; 0x855a <nrfWriteRegister>
    89c6:	cf 91       	pop	r28
    89c8:	08 95       	ret

000089ca <nrfSetDataRate>:
    89ca:	cf 93       	push	r28
    89cc:	c8 2f       	mov	r28, r24
    89ce:	86 e0       	ldi	r24, 0x06	; 6
    89d0:	0e 94 6d 42 	call	0x84da	; 0x84da <nrfReadRegister>
    89d4:	87 7d       	andi	r24, 0xD7	; 215
    89d6:	9c 2f       	mov	r25, r28
    89d8:	98 72       	andi	r25, 0x28	; 40
    89da:	68 2f       	mov	r22, r24
    89dc:	69 2b       	or	r22, r25
    89de:	86 e0       	ldi	r24, 0x06	; 6
    89e0:	0e 94 ad 42 	call	0x855a	; 0x855a <nrfWriteRegister>
    89e4:	86 e0       	ldi	r24, 0x06	; 6
    89e6:	0e 94 6d 42 	call	0x84da	; 0x84da <nrfReadRegister>
    89ea:	91 e0       	ldi	r25, 0x01	; 1
    89ec:	c8 13       	cpse	r28, r24
    89ee:	90 e0       	ldi	r25, 0x00	; 0
    89f0:	89 2f       	mov	r24, r25
    89f2:	cf 91       	pop	r28
    89f4:	08 95       	ret

000089f6 <nrfSetCRCLength>:
    89f6:	cf 93       	push	r28
    89f8:	c8 2f       	mov	r28, r24
    89fa:	80 e0       	ldi	r24, 0x00	; 0
    89fc:	0e 94 6d 42 	call	0x84da	; 0x84da <nrfReadRegister>
    8a00:	83 7f       	andi	r24, 0xF3	; 243
    8a02:	cc 70       	andi	r28, 0x0C	; 12
    8a04:	68 2f       	mov	r22, r24
    8a06:	6c 2b       	or	r22, r28
    8a08:	80 e0       	ldi	r24, 0x00	; 0
    8a0a:	0e 94 ad 42 	call	0x855a	; 0x855a <nrfWriteRegister>
    8a0e:	cf 91       	pop	r28
    8a10:	08 95       	ret

00008a12 <nrfSetRetries>:
 * \param   delay   (groupsconfiguration NRF_SETUP_ARD_#US_gc for delay #)
 * \param   retries (groupsconfiguration NRF_SETUP_ARC_#RETRANSMIT_gc for retries #)
 */
void nrfSetRetries(uint8_t delay, uint8_t retries)
{
  nrfWriteRegister(REG_SETUP_RETR, (delay|retries));
    8a12:	68 2b       	or	r22, r24
    8a14:	84 e0       	ldi	r24, 0x04	; 4
    8a16:	0e 94 ad 42 	call	0x855a	; 0x855a <nrfWriteRegister>
    8a1a:	08 95       	ret

00008a1c <nrfGetMaxTimeout>:
 *
 * @return  maximum timeout in us
 */

uint16_t nrfGetMaxTimeout(void){
  uint8_t retries = nrfReadRegister(REG_SETUP_RETR);
    8a1c:	84 e0       	ldi	r24, 0x04	; 4
    8a1e:	0e 94 6d 42 	call	0x84da	; 0x84da <nrfReadRegister>
  uint8_t delay   = (retries & NRF_SETUP_ARD_gm) >> NRF_SETUP_ARD_gp;
  uint8_t count   = (retries & NRF_SETUP_ARC_gm) >> NRF_SETUP_ARC_gp;

  uint16_t to = 250 * (delay + 1) * (count + 1);

  return to ;
    8a22:	28 2f       	mov	r18, r24
    8a24:	22 95       	swap	r18
    8a26:	2f 70       	andi	r18, 0x0F	; 15
    8a28:	30 e0       	ldi	r19, 0x00	; 0
    8a2a:	2f 5f       	subi	r18, 0xFF	; 255
    8a2c:	3f 4f       	sbci	r19, 0xFF	; 255
    8a2e:	9a ef       	ldi	r25, 0xFA	; 250
    8a30:	92 9f       	mul	r25, r18
    8a32:	a0 01       	movw	r20, r0
    8a34:	93 9f       	mul	r25, r19
    8a36:	50 0d       	add	r21, r0
    8a38:	11 24       	eor	r1, r1
    8a3a:	8f 70       	andi	r24, 0x0F	; 15
    8a3c:	90 e0       	ldi	r25, 0x00	; 0
    8a3e:	01 96       	adiw	r24, 0x01	; 1
}
    8a40:	9c 01       	movw	r18, r24
    8a42:	42 9f       	mul	r20, r18
    8a44:	c0 01       	movw	r24, r0
    8a46:	43 9f       	mul	r20, r19
    8a48:	90 0d       	add	r25, r0
    8a4a:	52 9f       	mul	r21, r18
    8a4c:	90 0d       	add	r25, r0
    8a4e:	11 24       	eor	r1, r1
    8a50:	08 95       	ret

00008a52 <nrfWaitForAck>:
// from Wouter + nrfGetMaxTimeout()
// TODO?  iAckTimer zou ook een globale waarde kunnen zijn,
//        die bij init bepaald of bij setRetries gezet wordt
//        is nrfFlushRx nodig ??
uint8_t nrfWaitForAck(void)
{
    8a52:	cf 93       	push	r28
    8a54:	df 93       	push	r29
  uint16_t iAckTimer;  // Time-out
  uint8_t  iIRQ = 0;
  uint8_t  iSucces = 0;

  iAckTimer = nrfGetMaxTimeout() / 100;
    8a56:	0e 94 0e 45 	call	0x8a1c	; 0x8a1c <nrfGetMaxTimeout>
    8a5a:	9c 01       	movw	r18, r24
    8a5c:	36 95       	lsr	r19
    8a5e:	27 95       	ror	r18
    8a60:	36 95       	lsr	r19
    8a62:	27 95       	ror	r18
    8a64:	ab e7       	ldi	r26, 0x7B	; 123
    8a66:	b4 e1       	ldi	r27, 0x14	; 20
    8a68:	0e 94 63 4b 	call	0x96c6	; 0x96c6 <__umulhisi3>
    8a6c:	ec 01       	movw	r28, r24
    8a6e:	d6 95       	lsr	r29
    8a70:	c7 95       	ror	r28
  while (!iIRQ && iAckTimer) {   // Interrupt on TX complete, Maximum retransmits reached, or timer expired
    8a72:	20 97       	sbiw	r28, 0x00	; 0
    8a74:	71 f0       	breq	.+28     	; 0x8a92 <nrfWaitForAck+0x40>
    iIRQ = nrfReadRegister(REG_STATUS) & (NRF_STATUS_TX_DS_bm|NRF_STATUS_MAX_RT_bm);
    8a76:	87 e0       	ldi	r24, 0x07	; 7
    8a78:	0e 94 6d 42 	call	0x84da	; 0x84da <nrfReadRegister>
    iAckTimer--;
    8a7c:	21 97       	sbiw	r28, 0x01	; 1
	#else
		//round up by default
		__ticks_dc = (uint32_t)(ceil(fabs(__tmp)));
	#endif

	__builtin_avr_delay_cycles(__ticks_dc);
    8a7e:	ef e1       	ldi	r30, 0x1F	; 31
    8a80:	f3 e0       	ldi	r31, 0x03	; 3
    8a82:	31 97       	sbiw	r30, 0x01	; 1
    8a84:	f1 f7       	brne	.-4      	; 0x8a82 <nrfWaitForAck+0x30>
    8a86:	00 c0       	rjmp	.+0      	; 0x8a88 <nrfWaitForAck+0x36>
    8a88:	00 00       	nop
  uint16_t iAckTimer;  // Time-out
  uint8_t  iIRQ = 0;
  uint8_t  iSucces = 0;

  iAckTimer = nrfGetMaxTimeout() / 100;
  while (!iIRQ && iAckTimer) {   // Interrupt on TX complete, Maximum retransmits reached, or timer expired
    8a8a:	80 73       	andi	r24, 0x30	; 48
    8a8c:	11 f4       	brne	.+4      	; 0x8a92 <nrfWaitForAck+0x40>
    8a8e:	20 97       	sbiw	r28, 0x00	; 0
    8a90:	91 f7       	brne	.-28     	; 0x8a76 <nrfWaitForAck+0x24>
    iIRQ = nrfReadRegister(REG_STATUS) & (NRF_STATUS_TX_DS_bm|NRF_STATUS_MAX_RT_bm);
    iAckTimer--;
    _delay_us(100);
  }
  iSucces = nrfReadRegister(REG_STATUS) & NRF_STATUS_TX_DS_bm;
    8a92:	87 e0       	ldi	r24, 0x07	; 7
    8a94:	0e 94 6d 42 	call	0x84da	; 0x84da <nrfReadRegister>
    8a98:	c8 2f       	mov	r28, r24

  nrfFlushRx();       // ??
    8a9a:	0e 94 76 43 	call	0x86ec	; 0x86ec <nrfFlushRx>
  nrfFlushTx();       // Flush TX FIFO because of MAX_RT
    8a9e:	0e 94 85 43 	call	0x870a	; 0x870a <nrfFlushTx>
  nrfWriteRegister(REG_STATUS, NRF_STATUS_RX_DR_bm|NRF_STATUS_TX_DS_bm|NRF_STATUS_MAX_RT_bm);
    8aa2:	60 e7       	ldi	r22, 0x70	; 112
    8aa4:	87 e0       	ldi	r24, 0x07	; 7
    8aa6:	0e 94 ad 42 	call	0x855a	; 0x855a <nrfWriteRegister>

  return(iSucces);    // Returns 32 on ACK received, 0 on time out
}
    8aaa:	8c 2f       	mov	r24, r28
    8aac:	80 72       	andi	r24, 0x20	; 32
    8aae:	df 91       	pop	r29
    8ab0:	cf 91       	pop	r28
    8ab2:	08 95       	ret

00008ab4 <nrfWrite>:
uint8_t nrfWrite( uint8_t* buf, uint8_t len)
{
  uint8_t iReturn;

  //nrfStartWrite(buf, len, NRF_W_TX_PAYLOAD_NO_ACK);
  nrfStartWrite(buf, len, NRF_W_TX_PAYLOAD);
    8ab4:	40 ea       	ldi	r20, 0xA0	; 160
    8ab6:	0e 94 d1 43 	call	0x87a2	; 0x87a2 <nrfStartWrite>

  iReturn = nrfWaitForAck();  // Wait until packet ACK is received or timed out
    8aba:	0e 94 29 45 	call	0x8a52	; 0x8a52 <nrfWaitForAck>

  return(iReturn);            // Returns 32 on ACK received, 0 on time out
}
    8abe:	08 95       	ret

00008ac0 <nrfClearInterruptBits>:
 * \brief   Clear Interrupt Bits
 *
 */
void nrfClearInterruptBits(void)
{
  nrfWriteRegister(REG_STATUS, NRF_STATUS_RX_DR_bm | NRF_STATUS_TX_DS_bm | NRF_STATUS_MAX_RT_bm );
    8ac0:	60 e7       	ldi	r22, 0x70	; 112
    8ac2:	87 e0       	ldi	r24, 0x07	; 7
    8ac4:	0e 94 ad 42 	call	0x855a	; 0x855a <nrfWriteRegister>
    8ac8:	08 95       	ret

00008aca <nrfBegin>:
	#else
		//round up by default
		__ticks_dc = (uint32_t)(ceil(fabs(__tmp)));
	#endif

	__builtin_avr_delay_cycles(__ticks_dc);
    8aca:	8f e3       	ldi	r24, 0x3F	; 63
    8acc:	9c e9       	ldi	r25, 0x9C	; 156
    8ace:	01 97       	sbiw	r24, 0x01	; 1
    8ad0:	f1 f7       	brne	.-4      	; 0x8ace <nrfBegin+0x4>
    8ad2:	00 c0       	rjmp	.+0      	; 0x8ad4 <nrfBegin+0xa>
    8ad4:	00 00       	nop
 * \param   delay   (groupsconfiguration NRF_SETUP_ARD_#US_gc for delay #)
 * \param   retries (groupsconfiguration NRF_SETUP_ARC_#RETRANSMIT_gc for retries #)
 */
void nrfSetRetries(uint8_t delay, uint8_t retries)
{
  nrfWriteRegister(REG_SETUP_RETR, (delay|retries));
    8ad6:	6f e5       	ldi	r22, 0x5F	; 95
    8ad8:	84 e0       	ldi	r24, 0x04	; 4
    8ada:	0e 94 ad 42 	call	0x855a	; 0x855a <nrfWriteRegister>
  // sizes must never be used. See documentation for a more complete explanation.
  //  nrfWriteRegister(REG_SETUP_RETR, NRF_SETUP_ARD_1500US_gc | NRF_SETUP_ARC_15RETRANSMIT_gc );
  nrfSetRetries(NRF_SETUP_ARD_1500US_gc, NRF_SETUP_ARC_15RETRANSMIT_gc);

  // Restore our default PA level
  nrfSetPALevel( NRF_RF_SETUP_PWR_0DBM_gc ) ;
    8ade:	86 e0       	ldi	r24, 0x06	; 6
    8ae0:	0e 94 d7 44 	call	0x89ae	; 0x89ae <nrfSetPALevel>

  // Determine if this is a p or non-p RF24 module and then
  // reset our data rate back to default value. This works
  // because a non-P variant won't allow the data rate to
  // be set to 250Kbps.
  if( nrfSetDataRate( NRF_RF_SETUP_RF_DR_250K_gc ) )
    8ae4:	80 e2       	ldi	r24, 0x20	; 32
    8ae6:	0e 94 e5 44 	call	0x89ca	; 0x89ca <nrfSetDataRate>
    8aea:	88 23       	and	r24, r24
    8aec:	19 f0       	breq	.+6      	; 0x8af4 <nrfBegin+0x2a>
  {
    p_variant = 1 ;
    8aee:	81 e0       	ldi	r24, 0x01	; 1
    8af0:	80 93 1c 20 	sts	0x201C, r24	; 0x80201c <p_variant>
  }

  // Then set the data rate to the slowest (and most reliable) speed supported by all
  // hardware.
  nrfSetDataRate( NRF_RF_SETUP_RF_DR_1M_gc );
    8af4:	80 e0       	ldi	r24, 0x00	; 0
    8af6:	0e 94 e5 44 	call	0x89ca	; 0x89ca <nrfSetDataRate>

  // Initialize CRC and request 2-byte (16bit) CRC
  nrfSetCRCLength( NRF_CONFIG_CRC_16_gc ) ;
    8afa:	8c e0       	ldi	r24, 0x0C	; 12
    8afc:	0e 94 fb 44 	call	0x89f6	; 0x89f6 <nrfSetCRCLength>

  // Disable dynamic payloads, to match dynamic_payloads_enabled setting
  nrfWriteRegister(REG_DYNPD, 0);
    8b00:	60 e0       	ldi	r22, 0x00	; 0
    8b02:	8c e1       	ldi	r24, 0x1C	; 28
    8b04:	0e 94 ad 42 	call	0x855a	; 0x855a <nrfWriteRegister>

  // Set up default configuration.  Callers can always change it later.
  // This channel should be universally safe and not bleed over into adjacent
  // spectrum.
  nrfSetChannel(76);
    8b08:	8c e4       	ldi	r24, 0x4C	; 76
    8b0a:	0e 94 bf 44 	call	0x897e	; 0x897e <nrfSetChannel>

  // Reset current status
  // Notice reset and flush is the last thing we do
  nrfClearInterruptBits();
    8b0e:	0e 94 60 45 	call	0x8ac0	; 0x8ac0 <nrfClearInterruptBits>
  nrfFlushRx();
    8b12:	0e 94 76 43 	call	0x86ec	; 0x86ec <nrfFlushRx>
  nrfFlushTx();
    8b16:	0e 94 85 43 	call	0x870a	; 0x870a <nrfFlushTx>
    8b1a:	08 95       	ret

00008b1c <nrfspiInit>:
 *  \return void
 */

void nrfspiInit(void)
{
  PORTC.DIRSET = PIN3_bm;  // MOSI
    8b1c:	e0 e4       	ldi	r30, 0x40	; 64
    8b1e:	f6 e0       	ldi	r31, 0x06	; 6
    8b20:	88 e0       	ldi	r24, 0x08	; 8
    8b22:	81 83       	std	Z+1, r24	; 0x01
  PORTC.DIRCLR = PIN2_bm;  // MISO
    8b24:	84 e0       	ldi	r24, 0x04	; 4
    8b26:	82 83       	std	Z+2, r24	; 0x02
  PORTC.DIRSET = PIN1_bm;  // SCK
    8b28:	82 e0       	ldi	r24, 0x02	; 2
    8b2a:	81 83       	std	Z+1, r24	; 0x01
  PORTF.DIRSET = PIN5_bm;  // CSN
    8b2c:	e0 ea       	ldi	r30, 0xA0	; 160
    8b2e:	f6 e0       	ldi	r31, 0x06	; 6
    8b30:	80 e2       	ldi	r24, 0x20	; 32
    8b32:	81 83       	std	Z+1, r24	; 0x01
  PORTF.DIRCLR = PIN6_bm;  // IRQ
    8b34:	80 e4       	ldi	r24, 0x40	; 64
    8b36:	82 83       	std	Z+2, r24	; 0x02
  PORTF.DIRSET = PIN7_bm;  // CE
    8b38:	80 e8       	ldi	r24, 0x80	; 128
    8b3a:	81 83       	std	Z+1, r24	; 0x01

  USARTC0.CTRLB = USART_TXEN_bm | USART_RXEN_bm;
    8b3c:	e0 ea       	ldi	r30, 0xA0	; 160
    8b3e:	f8 e0       	ldi	r31, 0x08	; 8
    8b40:	88 e1       	ldi	r24, 0x18	; 24
    8b42:	84 83       	std	Z+4, r24	; 0x04
  USARTC0.CTRLC = USART_CMODE_MSPI_gc;
    8b44:	80 ec       	ldi	r24, 0xC0	; 192
    8b46:	85 83       	std	Z+5, r24	; 0x05

  USARTC0.BAUDCTRLB = 0;
    8b48:	17 82       	std	Z+7, r1	; 0x07
  USARTC0.BAUDCTRLA = 1;   // F_CPU/(2*(BSEL+1))  is 8MHz on 32MHz CPU
    8b4a:	81 e0       	ldi	r24, 0x01	; 1
    8b4c:	86 83       	std	Z+6, r24	; 0x06
    8b4e:	08 95       	ret

00008b50 <nrfspiTransfer>:
 *
 *  \return  Data received from slave (status of the nrf24L01p)
 */
uint8_t nrfspiTransfer(uint8_t iData)
{
  USARTC0.DATA = iData;
    8b50:	80 93 a0 08 	sts	0x08A0, r24	; 0x8008a0 <__TEXT_REGION_LENGTH__+0x7008a0>
  while( !(USARTC0.STATUS & USART_TXCIF_bm) );
    8b54:	e0 ea       	ldi	r30, 0xA0	; 160
    8b56:	f8 e0       	ldi	r31, 0x08	; 8
    8b58:	81 81       	ldd	r24, Z+1	; 0x01
    8b5a:	86 ff       	sbrs	r24, 6
    8b5c:	fd cf       	rjmp	.-6      	; 0x8b58 <nrfspiTransfer+0x8>
  USARTC0.STATUS |= USART_TXCIF_bm;
    8b5e:	e0 ea       	ldi	r30, 0xA0	; 160
    8b60:	f8 e0       	ldi	r31, 0x08	; 8
    8b62:	81 81       	ldd	r24, Z+1	; 0x01
    8b64:	80 64       	ori	r24, 0x40	; 64
    8b66:	81 83       	std	Z+1, r24	; 0x01

  return USARTC0.DATA;
    8b68:	80 81       	ld	r24, Z
}
    8b6a:	08 95       	ret

00008b6c <CanRead_F0>:
    }
  }
  *p = '\0';

  return buf;
}
    8b6c:	80 91 0f 21 	lds	r24, 0x210F	; 0x80210f <rx_f0_wridx>
    8b70:	90 91 0e 21 	lds	r25, 0x210E	; 0x80210e <rx_f0_rdidx>
    8b74:	89 17       	cp	r24, r25
    8b76:	10 f0       	brcs	.+4      	; 0x8b7c <CanRead_F0+0x10>
    8b78:	89 1b       	sub	r24, r25
    8b7a:	08 95       	ret
    8b7c:	8c 59       	subi	r24, 0x9C	; 156
    8b7e:	89 1b       	sub	r24, r25
    8b80:	08 95       	ret

00008b82 <ReadByte_F0>:
    8b82:	cf 93       	push	r28
    8b84:	c0 91 0e 21 	lds	r28, 0x210E	; 0x80210e <rx_f0_rdidx>
    8b88:	0e 94 b6 45 	call	0x8b6c	; 0x8b6c <CanRead_F0>
    8b8c:	88 23       	and	r24, r24
    8b8e:	e1 f3       	breq	.-8      	; 0x8b88 <ReadByte_F0+0x6>
    8b90:	ec 2f       	mov	r30, r28
    8b92:	f0 e0       	ldi	r31, 0x00	; 0
    8b94:	e6 55       	subi	r30, 0x56	; 86
    8b96:	ff 4d       	sbci	r31, 0xDF	; 223
    8b98:	80 81       	ld	r24, Z
    8b9a:	91 e0       	ldi	r25, 0x01	; 1
    8b9c:	9c 0f       	add	r25, r28
    8b9e:	94 36       	cpi	r25, 0x64	; 100
    8ba0:	08 f0       	brcs	.+2      	; 0x8ba4 <ReadByte_F0+0x22>
    8ba2:	90 e0       	ldi	r25, 0x00	; 0
    8ba4:	90 93 0e 21 	sts	0x210E, r25	; 0x80210e <rx_f0_rdidx>
    8ba8:	cf 91       	pop	r28
    8baa:	08 95       	ret

00008bac <uartF0_fgetc>:
    8bac:	0e 94 c1 45 	call	0x8b82	; 0x8b82 <ReadByte_F0>
    8bb0:	90 e0       	ldi	r25, 0x00	; 0
    8bb2:	08 95       	ret

00008bb4 <CanWrite_F0>:
    8bb4:	20 91 75 21 	lds	r18, 0x2175	; 0x802175 <tx_f0_wridx>
    8bb8:	91 e0       	ldi	r25, 0x01	; 1
    8bba:	92 0f       	add	r25, r18
    8bbc:	80 91 74 21 	lds	r24, 0x2174	; 0x802174 <tx_f0_rdidx>
    8bc0:	94 36       	cpi	r25, 0x64	; 100
    8bc2:	10 f0       	brcs	.+4      	; 0x8bc8 <CanWrite_F0+0x14>
    8bc4:	9d e9       	ldi	r25, 0x9D	; 157
    8bc6:	92 0f       	add	r25, r18
    8bc8:	89 17       	cp	r24, r25
    8bca:	10 f0       	brcs	.+4      	; 0x8bd0 <CanWrite_F0+0x1c>
    8bcc:	89 1b       	sub	r24, r25
    8bce:	08 95       	ret
    8bd0:	8c 59       	subi	r24, 0x9C	; 156
    8bd2:	89 1b       	sub	r24, r25
    8bd4:	08 95       	ret

00008bd6 <WriteByte_F0>:
    8bd6:	0f 93       	push	r16
    8bd8:	1f 93       	push	r17
    8bda:	cf 93       	push	r28
    8bdc:	df 93       	push	r29
    8bde:	d8 2f       	mov	r29, r24
    8be0:	00 ea       	ldi	r16, 0xA0	; 160
    8be2:	1b e0       	ldi	r17, 0x0B	; 11
    8be4:	c1 e2       	ldi	r28, 0x21	; 33
    8be6:	02 c0       	rjmp	.+4      	; 0x8bec <WriteByte_F0+0x16>
    8be8:	f8 01       	movw	r30, r16
    8bea:	c3 83       	std	Z+3, r28	; 0x03
    8bec:	0e 94 da 45 	call	0x8bb4	; 0x8bb4 <CanWrite_F0>
    8bf0:	88 23       	and	r24, r24
    8bf2:	d1 f3       	breq	.-12     	; 0x8be8 <WriteByte_F0+0x12>
    8bf4:	80 91 75 21 	lds	r24, 0x2175	; 0x802175 <tx_f0_wridx>
    8bf8:	e8 2f       	mov	r30, r24
    8bfa:	f0 e0       	ldi	r31, 0x00	; 0
    8bfc:	e0 5f       	subi	r30, 0xF0	; 240
    8bfe:	fe 4d       	sbci	r31, 0xDE	; 222
    8c00:	d0 83       	st	Z, r29
    8c02:	8f 5f       	subi	r24, 0xFF	; 255
    8c04:	84 36       	cpi	r24, 0x64	; 100
    8c06:	08 f0       	brcs	.+2      	; 0x8c0a <WriteByte_F0+0x34>
    8c08:	80 e0       	ldi	r24, 0x00	; 0
    8c0a:	e0 ea       	ldi	r30, 0xA0	; 160
    8c0c:	f0 e0       	ldi	r31, 0x00	; 0
    8c0e:	92 81       	ldd	r25, Z+2	; 0x02
    8c10:	29 2f       	mov	r18, r25
    8c12:	2e 7f       	andi	r18, 0xFE	; 254
    8c14:	22 83       	std	Z+2, r18	; 0x02
    8c16:	80 93 75 21 	sts	0x2175, r24	; 0x802175 <tx_f0_wridx>
    8c1a:	81 e2       	ldi	r24, 0x21	; 33
    8c1c:	80 93 a3 0b 	sts	0x0BA3, r24	; 0x800ba3 <__TEXT_REGION_LENGTH__+0x700ba3>
    8c20:	92 83       	std	Z+2, r25	; 0x02
    8c22:	df 91       	pop	r29
    8c24:	cf 91       	pop	r28
    8c26:	1f 91       	pop	r17
    8c28:	0f 91       	pop	r16
    8c2a:	08 95       	ret

00008c2c <uartF0_fputc>:
    8c2c:	cf 93       	push	r28
    8c2e:	df 93       	push	r29
    8c30:	d8 2f       	mov	r29, r24
    8c32:	cf ef       	ldi	r28, 0xFF	; 255
    8c34:	03 c0       	rjmp	.+6      	; 0x8c3c <uartF0_fputc+0x10>
    8c36:	cc 23       	and	r28, r28
    8c38:	91 f0       	breq	.+36     	; 0x8c5e <uartF0_fputc+0x32>
    8c3a:	c1 50       	subi	r28, 0x01	; 1
    8c3c:	0e 94 da 45 	call	0x8bb4	; 0x8bb4 <CanWrite_F0>
    8c40:	88 23       	and	r24, r24
    8c42:	c9 f3       	breq	.-14     	; 0x8c36 <uartF0_fputc+0xa>
    8c44:	cc 23       	and	r28, r28
    8c46:	71 f0       	breq	.+28     	; 0x8c64 <uartF0_fputc+0x38>
    8c48:	da 30       	cpi	r29, 0x0A	; 10
    8c4a:	19 f4       	brne	.+6      	; 0x8c52 <uartF0_fputc+0x26>
    8c4c:	8d e0       	ldi	r24, 0x0D	; 13
    8c4e:	0e 94 eb 45 	call	0x8bd6	; 0x8bd6 <WriteByte_F0>
    8c52:	8d 2f       	mov	r24, r29
    8c54:	0e 94 eb 45 	call	0x8bd6	; 0x8bd6 <WriteByte_F0>
    8c58:	80 e0       	ldi	r24, 0x00	; 0
    8c5a:	90 e0       	ldi	r25, 0x00	; 0
    8c5c:	05 c0       	rjmp	.+10     	; 0x8c68 <uartF0_fputc+0x3c>
    8c5e:	81 e0       	ldi	r24, 0x01	; 1
    8c60:	90 e0       	ldi	r25, 0x00	; 0
    8c62:	02 c0       	rjmp	.+4      	; 0x8c68 <uartF0_fputc+0x3c>
    8c64:	81 e0       	ldi	r24, 0x01	; 1
    8c66:	90 e0       	ldi	r25, 0x00	; 0
    8c68:	df 91       	pop	r29
    8c6a:	cf 91       	pop	r28
    8c6c:	08 95       	ret

00008c6e <init_stream>:
 *           If you want to use another baud rate you can change it in this function.
 *
 *  \return  void
 */
void init_stream(uint32_t f_cpu)
{
    8c6e:	4f 92       	push	r4
    8c70:	5f 92       	push	r5
    8c72:	6f 92       	push	r6
    8c74:	7f 92       	push	r7
    8c76:	8f 92       	push	r8
    8c78:	9f 92       	push	r9
    8c7a:	af 92       	push	r10
    8c7c:	bf 92       	push	r11
    8c7e:	ef 92       	push	r14
    8c80:	ff 92       	push	r15
    8c82:	0f 93       	push	r16
    8c84:	1f 93       	push	r17
    8c86:	cf 93       	push	r28
    8c88:	4b 01       	movw	r8, r22
    8c8a:	5c 01       	movw	r10, r24
    8c8c:	07 e0       	ldi	r16, 0x07	; 7
    8c8e:	10 e0       	ldi	r17, 0x00	; 0
static int8_t calc_bscale(uint32_t f_cpu, uint32_t baud, uint8_t clk2x)
{
  int8_t   bscale;
  uint16_t bsel;

  for (bscale = -7; bscale<8; bscale++) {
    8c90:	c9 ef       	ldi	r28, 0xF9	; 249

  factor = factor >> (clk2x & 0x01);
  if ( scale < 0 ) {
    return round(  (((double)(f_cpu)/(factor*(double)(baud))) - 1) * (1<<-(scale))  );
  } else {
    return round(  ((double)(f_cpu)/(factor*(double)(baud))/(1<<(scale))) - 1);
    8c92:	ee 24       	eor	r14, r14
    8c94:	e3 94       	inc	r14
    8c96:	f1 2c       	mov	r15, r1
static uint16_t calc_bsel(uint32_t f_cpu, uint32_t baud, int8_t scale, uint8_t clk2x)
{
  uint8_t factor = 16;

  factor = factor >> (clk2x & 0x01);
  if ( scale < 0 ) {
    8c98:	cc 23       	and	r28, r28
    8c9a:	54 f5       	brge	.+84     	; 0x8cf0 <init_stream+0x82>
    return round(  (((double)(f_cpu)/(factor*(double)(baud))) - 1) * (1<<-(scale))  );
    8c9c:	c5 01       	movw	r24, r10
    8c9e:	b4 01       	movw	r22, r8
    8ca0:	0e 94 dd 49 	call	0x93ba	; 0x93ba <__floatunsisf>
    8ca4:	20 e0       	ldi	r18, 0x00	; 0
    8ca6:	30 e0       	ldi	r19, 0x00	; 0
    8ca8:	41 ee       	ldi	r20, 0xE1	; 225
    8caa:	59 e4       	ldi	r21, 0x49	; 73
    8cac:	0e 94 3c 49 	call	0x9278	; 0x9278 <__divsf3>
    8cb0:	20 e0       	ldi	r18, 0x00	; 0
    8cb2:	30 e0       	ldi	r19, 0x00	; 0
    8cb4:	40 e8       	ldi	r20, 0x80	; 128
    8cb6:	5f e3       	ldi	r21, 0x3F	; 63
    8cb8:	0e 94 cf 48 	call	0x919e	; 0x919e <__subsf3>
    8cbc:	2b 01       	movw	r4, r22
    8cbe:	3c 01       	movw	r6, r24
    8cc0:	b7 01       	movw	r22, r14
    8cc2:	00 2e       	mov	r0, r16
    8cc4:	02 c0       	rjmp	.+4      	; 0x8cca <init_stream+0x5c>
    8cc6:	66 0f       	add	r22, r22
    8cc8:	77 1f       	adc	r23, r23
    8cca:	0a 94       	dec	r0
    8ccc:	e2 f7       	brpl	.-8      	; 0x8cc6 <init_stream+0x58>
    8cce:	07 2e       	mov	r0, r23
    8cd0:	00 0c       	add	r0, r0
    8cd2:	88 0b       	sbc	r24, r24
    8cd4:	99 0b       	sbc	r25, r25
    8cd6:	0e 94 df 49 	call	0x93be	; 0x93be <__floatsisf>
    8cda:	9b 01       	movw	r18, r22
    8cdc:	ac 01       	movw	r20, r24
    8cde:	c3 01       	movw	r24, r6
    8ce0:	b2 01       	movw	r22, r4
    8ce2:	0e 94 6b 4a 	call	0x94d6	; 0x94d6 <__mulsf3>
    8ce6:	0e 94 d8 4a 	call	0x95b0	; 0x95b0 <round>
    8cea:	0e 94 ae 49 	call	0x935c	; 0x935c <__fixunssfsi>
    8cee:	2c c0       	rjmp	.+88     	; 0x8d48 <init_stream+0xda>
  } else {
    return round(  ((double)(f_cpu)/(factor*(double)(baud))/(1<<(scale))) - 1);
    8cf0:	c5 01       	movw	r24, r10
    8cf2:	b4 01       	movw	r22, r8
    8cf4:	0e 94 dd 49 	call	0x93ba	; 0x93ba <__floatunsisf>
    8cf8:	20 e0       	ldi	r18, 0x00	; 0
    8cfa:	30 e0       	ldi	r19, 0x00	; 0
    8cfc:	41 ee       	ldi	r20, 0xE1	; 225
    8cfe:	59 e4       	ldi	r21, 0x49	; 73
    8d00:	0e 94 3c 49 	call	0x9278	; 0x9278 <__divsf3>
    8d04:	2b 01       	movw	r4, r22
    8d06:	3c 01       	movw	r6, r24
    8d08:	88 27       	eor	r24, r24
    8d0a:	99 27       	eor	r25, r25
    8d0c:	80 1b       	sub	r24, r16
    8d0e:	91 0b       	sbc	r25, r17
    8d10:	b7 01       	movw	r22, r14
    8d12:	02 c0       	rjmp	.+4      	; 0x8d18 <init_stream+0xaa>
    8d14:	66 0f       	add	r22, r22
    8d16:	77 1f       	adc	r23, r23
    8d18:	8a 95       	dec	r24
    8d1a:	e2 f7       	brpl	.-8      	; 0x8d14 <init_stream+0xa6>
    8d1c:	07 2e       	mov	r0, r23
    8d1e:	00 0c       	add	r0, r0
    8d20:	88 0b       	sbc	r24, r24
    8d22:	99 0b       	sbc	r25, r25
    8d24:	0e 94 df 49 	call	0x93be	; 0x93be <__floatsisf>
    8d28:	9b 01       	movw	r18, r22
    8d2a:	ac 01       	movw	r20, r24
    8d2c:	c3 01       	movw	r24, r6
    8d2e:	b2 01       	movw	r22, r4
    8d30:	0e 94 3c 49 	call	0x9278	; 0x9278 <__divsf3>
    8d34:	20 e0       	ldi	r18, 0x00	; 0
    8d36:	30 e0       	ldi	r19, 0x00	; 0
    8d38:	40 e8       	ldi	r20, 0x80	; 128
    8d3a:	5f e3       	ldi	r21, 0x3F	; 63
    8d3c:	0e 94 cf 48 	call	0x919e	; 0x919e <__subsf3>
    8d40:	0e 94 d8 4a 	call	0x95b0	; 0x95b0 <round>
    8d44:	0e 94 ae 49 	call	0x935c	; 0x935c <__fixunssfsi>
{
  int8_t   bscale;
  uint16_t bsel;

  for (bscale = -7; bscale<8; bscale++) {
    if ( (bsel = calc_bsel(f_cpu, baud, bscale, clk2x)) < 4096 ) return bscale;
    8d48:	61 15       	cp	r22, r1
    8d4a:	70 41       	sbci	r23, 0x10	; 16
    8d4c:	38 f0       	brcs	.+14     	; 0x8d5c <init_stream+0xee>
    8d4e:	cf 5f       	subi	r28, 0xFF	; 255
    8d50:	01 50       	subi	r16, 0x01	; 1
    8d52:	11 09       	sbc	r17, r1
static int8_t calc_bscale(uint32_t f_cpu, uint32_t baud, uint8_t clk2x)
{
  int8_t   bscale;
  uint16_t bsel;

  for (bscale = -7; bscale<8; bscale++) {
    8d54:	c8 30       	cpi	r28, 0x08	; 8
    8d56:	09 f0       	breq	.+2      	; 0x8d5a <init_stream+0xec>
    8d58:	9f cf       	rjmp	.-194    	; 0x8c98 <init_stream+0x2a>
    8d5a:	31 c0       	rjmp	.+98     	; 0x8dbe <init_stream+0x150>
static uint16_t calc_bsel(uint32_t f_cpu, uint32_t baud, int8_t scale, uint8_t clk2x)
{
  uint8_t factor = 16;

  factor = factor >> (clk2x & 0x01);
  if ( scale < 0 ) {
    8d5c:	cc 23       	and	r28, r28
    8d5e:	7c f5       	brge	.+94     	; 0x8dbe <init_stream+0x150>
    return round(  (((double)(f_cpu)/(factor*(double)(baud))) - 1) * (1<<-(scale))  );
    8d60:	c5 01       	movw	r24, r10
    8d62:	b4 01       	movw	r22, r8
    8d64:	0e 94 dd 49 	call	0x93ba	; 0x93ba <__floatunsisf>
    8d68:	20 e0       	ldi	r18, 0x00	; 0
    8d6a:	30 e0       	ldi	r19, 0x00	; 0
    8d6c:	41 ee       	ldi	r20, 0xE1	; 225
    8d6e:	59 e4       	ldi	r21, 0x49	; 73
    8d70:	0e 94 3c 49 	call	0x9278	; 0x9278 <__divsf3>
    8d74:	20 e0       	ldi	r18, 0x00	; 0
    8d76:	30 e0       	ldi	r19, 0x00	; 0
    8d78:	40 e8       	ldi	r20, 0x80	; 128
    8d7a:	5f e3       	ldi	r21, 0x3F	; 63
    8d7c:	0e 94 cf 48 	call	0x919e	; 0x919e <__subsf3>
    8d80:	4b 01       	movw	r8, r22
    8d82:	5c 01       	movw	r10, r24
    8d84:	2c 2f       	mov	r18, r28
    8d86:	33 27       	eor	r19, r19
    8d88:	21 95       	neg	r18
    8d8a:	0c f4       	brge	.+2      	; 0x8d8e <init_stream+0x120>
    8d8c:	30 95       	com	r19
    8d8e:	61 e0       	ldi	r22, 0x01	; 1
    8d90:	70 e0       	ldi	r23, 0x00	; 0
    8d92:	02 c0       	rjmp	.+4      	; 0x8d98 <init_stream+0x12a>
    8d94:	66 0f       	add	r22, r22
    8d96:	77 1f       	adc	r23, r23
    8d98:	2a 95       	dec	r18
    8d9a:	e2 f7       	brpl	.-8      	; 0x8d94 <init_stream+0x126>
    8d9c:	07 2e       	mov	r0, r23
    8d9e:	00 0c       	add	r0, r0
    8da0:	88 0b       	sbc	r24, r24
    8da2:	99 0b       	sbc	r25, r25
    8da4:	0e 94 df 49 	call	0x93be	; 0x93be <__floatsisf>
    8da8:	9b 01       	movw	r18, r22
    8daa:	ac 01       	movw	r20, r24
    8dac:	c5 01       	movw	r24, r10
    8dae:	b4 01       	movw	r22, r8
    8db0:	0e 94 6b 4a 	call	0x94d6	; 0x94d6 <__mulsf3>
    8db4:	0e 94 d8 4a 	call	0x95b0	; 0x95b0 <round>
    8db8:	0e 94 ae 49 	call	0x935c	; 0x935c <__fixunssfsi>
    8dbc:	2a c0       	rjmp	.+84     	; 0x8e12 <init_stream+0x1a4>
  } else {
    return round(  ((double)(f_cpu)/(factor*(double)(baud))/(1<<(scale))) - 1);
    8dbe:	c5 01       	movw	r24, r10
    8dc0:	b4 01       	movw	r22, r8
    8dc2:	0e 94 dd 49 	call	0x93ba	; 0x93ba <__floatunsisf>
    8dc6:	20 e0       	ldi	r18, 0x00	; 0
    8dc8:	30 e0       	ldi	r19, 0x00	; 0
    8dca:	41 ee       	ldi	r20, 0xE1	; 225
    8dcc:	59 e4       	ldi	r21, 0x49	; 73
    8dce:	0e 94 3c 49 	call	0x9278	; 0x9278 <__divsf3>
    8dd2:	4b 01       	movw	r8, r22
    8dd4:	5c 01       	movw	r10, r24
    8dd6:	61 e0       	ldi	r22, 0x01	; 1
    8dd8:	70 e0       	ldi	r23, 0x00	; 0
    8dda:	0c 2e       	mov	r0, r28
    8ddc:	02 c0       	rjmp	.+4      	; 0x8de2 <init_stream+0x174>
    8dde:	66 0f       	add	r22, r22
    8de0:	77 1f       	adc	r23, r23
    8de2:	0a 94       	dec	r0
    8de4:	e2 f7       	brpl	.-8      	; 0x8dde <init_stream+0x170>
    8de6:	07 2e       	mov	r0, r23
    8de8:	00 0c       	add	r0, r0
    8dea:	88 0b       	sbc	r24, r24
    8dec:	99 0b       	sbc	r25, r25
    8dee:	0e 94 df 49 	call	0x93be	; 0x93be <__floatsisf>
    8df2:	9b 01       	movw	r18, r22
    8df4:	ac 01       	movw	r20, r24
    8df6:	c5 01       	movw	r24, r10
    8df8:	b4 01       	movw	r22, r8
    8dfa:	0e 94 3c 49 	call	0x9278	; 0x9278 <__divsf3>
    8dfe:	20 e0       	ldi	r18, 0x00	; 0
    8e00:	30 e0       	ldi	r19, 0x00	; 0
    8e02:	40 e8       	ldi	r20, 0x80	; 128
    8e04:	5f e3       	ldi	r21, 0x3F	; 63
    8e06:	0e 94 cf 48 	call	0x919e	; 0x919e <__subsf3>
    8e0a:	0e 94 d8 4a 	call	0x95b0	; 0x95b0 <round>
    8e0e:	0e 94 ae 49 	call	0x935c	; 0x935c <__fixunssfsi>
  int8_t bscale;

  bscale = calc_bscale(f_cpu, BAUD_115K2, UART_NO_DOUBLE_CLK);
  bsel   = calc_bsel(f_cpu, BAUD_115K2, bscale, UART_NO_DOUBLE_CLK);

	PORTF.PIN2CTRL = PORT_OPC_PULLUP_gc;  // pullup on rx
    8e12:	e0 ea       	ldi	r30, 0xA0	; 160
    8e14:	f6 e0       	ldi	r31, 0x06	; 6
    8e16:	88 e1       	ldi	r24, 0x18	; 24
    8e18:	82 8b       	std	Z+18, r24	; 0x12
	PORTF.OUTSET = PIN3_bm;               // tx high
    8e1a:	98 e0       	ldi	r25, 0x08	; 8
    8e1c:	95 83       	std	Z+5, r25	; 0x05
	PORTF.DIRSET = PIN3_bm;
    8e1e:	91 83       	std	Z+1, r25	; 0x01
	PORTF.DIRCLR = PIN2_bm;
    8e20:	94 e0       	ldi	r25, 0x04	; 4
    8e22:	92 83       	std	Z+2, r25	; 0x02

	USARTF0.BAUDCTRLA = (bsel & USART_BSEL_gm);
    8e24:	e0 ea       	ldi	r30, 0xA0	; 160
    8e26:	fb e0       	ldi	r31, 0x0B	; 11
    8e28:	66 83       	std	Z+6, r22	; 0x06
	USARTF0.BAUDCTRLB = ((bscale << USART_BSCALE_gp) & USART_BSCALE_gm) |
    8e2a:	7f 70       	andi	r23, 0x0F	; 15
    8e2c:	c2 95       	swap	r28
    8e2e:	c0 7f       	andi	r28, 0xF0	; 240
    8e30:	c7 2b       	or	r28, r23
    8e32:	c7 83       	std	Z+7, r28	; 0x07
                      ((bsel >> 8) & ~USART_BSCALE_gm);
	
 	USARTF0.CTRLB = USART_RXEN_bm | USART_TXEN_bm;
    8e34:	84 83       	std	Z+4, r24	; 0x04

	USARTF0.CTRLA = USART_RXCINTLVL_MED_gc | 
    8e36:	80 e2       	ldi	r24, 0x20	; 32
    8e38:	83 83       	std	Z+3, r24	; 0x03
                  USART_TXCINTLVL_OFF_gc | USART_DREINTLVL_OFF_gc;
	
	PMIC.CTRL |= PMIC_MEDLVLEN_bm | PMIC_LOLVLEN_bm;
    8e3a:	e0 ea       	ldi	r30, 0xA0	; 160
    8e3c:	f0 e0       	ldi	r31, 0x00	; 0
    8e3e:	82 81       	ldd	r24, Z+2	; 0x02
    8e40:	83 60       	ori	r24, 0x03	; 3
    8e42:	82 83       	std	Z+2, r24	; 0x02
  stdout = stdin = &uartF0_stdinout;
    8e44:	e5 e3       	ldi	r30, 0x35	; 53
    8e46:	f2 e2       	ldi	r31, 0x22	; 34
    8e48:	8d e1       	ldi	r24, 0x1D	; 29
    8e4a:	90 e2       	ldi	r25, 0x20	; 32
    8e4c:	80 83       	st	Z, r24
    8e4e:	91 83       	std	Z+1, r25	; 0x01
    8e50:	82 83       	std	Z+2, r24	; 0x02
    8e52:	93 83       	std	Z+3, r25	; 0x03
	
} // init_stream
    8e54:	cf 91       	pop	r28
    8e56:	1f 91       	pop	r17
    8e58:	0f 91       	pop	r16
    8e5a:	ff 90       	pop	r15
    8e5c:	ef 90       	pop	r14
    8e5e:	bf 90       	pop	r11
    8e60:	af 90       	pop	r10
    8e62:	9f 90       	pop	r9
    8e64:	8f 90       	pop	r8
    8e66:	7f 90       	pop	r7
    8e68:	6f 90       	pop	r6
    8e6a:	5f 90       	pop	r5
    8e6c:	4f 90       	pop	r4
    8e6e:	08 95       	ret

00008e70 <__vector_119>:
} // WriteByte_F0 

/*  \brief  ISR for receiving bytes from UARTF0.
 *          It puts the received byte in the RX buffer
 */
ISR(USARTF0_RXC_vect) {
    8e70:	1f 92       	push	r1
    8e72:	0f 92       	push	r0
    8e74:	0f b6       	in	r0, 0x3f	; 63
    8e76:	0f 92       	push	r0
    8e78:	11 24       	eor	r1, r1
    8e7a:	0b b6       	in	r0, 0x3b	; 59
    8e7c:	0f 92       	push	r0
    8e7e:	8f 93       	push	r24
    8e80:	9f 93       	push	r25
    8e82:	ef 93       	push	r30
    8e84:	ff 93       	push	r31
	
	uint8_t curSlot, nextSlot;
	
	curSlot = rx_f0_wridx;
    8e86:	80 91 0f 21 	lds	r24, 0x210F	; 0x80210f <rx_f0_wridx>
	rx_f0_buf[curSlot] = USARTF0.DATA;
    8e8a:	e8 2f       	mov	r30, r24
    8e8c:	f0 e0       	ldi	r31, 0x00	; 0
    8e8e:	90 91 a0 0b 	lds	r25, 0x0BA0	; 0x800ba0 <__TEXT_REGION_LENGTH__+0x700ba0>
    8e92:	e6 55       	subi	r30, 0x56	; 86
    8e94:	ff 4d       	sbci	r31, 0xDF	; 223
    8e96:	90 83       	st	Z, r25
	
	nextSlot = curSlot + 1;
    8e98:	8f 5f       	subi	r24, 0xFF	; 255
	if(nextSlot >= RXBUF_DEPTH_F0)
    8e9a:	84 36       	cpi	r24, 0x64	; 100
    8e9c:	08 f0       	brcs	.+2      	; 0x8ea0 <__vector_119+0x30>
	nextSlot = 0;
    8e9e:	80 e0       	ldi	r24, 0x00	; 0
	
	if(nextSlot != rx_f0_rdidx)
    8ea0:	90 91 0e 21 	lds	r25, 0x210E	; 0x80210e <rx_f0_rdidx>
    8ea4:	89 13       	cpse	r24, r25
	rx_f0_wridx = nextSlot;
    8ea6:	80 93 0f 21 	sts	0x210F, r24	; 0x80210f <rx_f0_wridx>
	
} // ISR(USARTF0_RXC_vect)
    8eaa:	ff 91       	pop	r31
    8eac:	ef 91       	pop	r30
    8eae:	9f 91       	pop	r25
    8eb0:	8f 91       	pop	r24
    8eb2:	0f 90       	pop	r0
    8eb4:	0b be       	out	0x3b, r0	; 59
    8eb6:	0f 90       	pop	r0
    8eb8:	0f be       	out	0x3f, r0	; 63
    8eba:	0f 90       	pop	r0
    8ebc:	1f 90       	pop	r1
    8ebe:	18 95       	reti

00008ec0 <__vector_120>:


/*  \brief  ISR for transmitting bytes to UARTF0.
 *          If there is a byte to send in the TX buffer, it will be send
 */
ISR(USARTF0_DRE_vect) {
    8ec0:	1f 92       	push	r1
    8ec2:	0f 92       	push	r0
    8ec4:	0f b6       	in	r0, 0x3f	; 63
    8ec6:	0f 92       	push	r0
    8ec8:	11 24       	eor	r1, r1
    8eca:	0b b6       	in	r0, 0x3b	; 59
    8ecc:	0f 92       	push	r0
    8ece:	2f 93       	push	r18
    8ed0:	8f 93       	push	r24
    8ed2:	9f 93       	push	r25
    8ed4:	ef 93       	push	r30
    8ed6:	ff 93       	push	r31
	
	uint8_t curSlot, nextSlot, lastSlot;
	
	nextSlot = curSlot = tx_f0_rdidx;
    8ed8:	80 91 74 21 	lds	r24, 0x2174	; 0x802174 <tx_f0_rdidx>
	lastSlot = tx_f0_wridx;
    8edc:	90 91 75 21 	lds	r25, 0x2175	; 0x802175 <tx_f0_wridx>
	
	if(curSlot != lastSlot) {
    8ee0:	89 17       	cp	r24, r25
    8ee2:	69 f0       	breq	.+26     	; 0x8efe <__vector_120+0x3e>
		USARTF0.DATA = tx_f0_buf[curSlot];
    8ee4:	e8 2f       	mov	r30, r24
    8ee6:	f0 e0       	ldi	r31, 0x00	; 0
    8ee8:	e0 5f       	subi	r30, 0xF0	; 240
    8eea:	fe 4d       	sbci	r31, 0xDE	; 222
    8eec:	20 81       	ld	r18, Z
    8eee:	20 93 a0 0b 	sts	0x0BA0, r18	; 0x800ba0 <__TEXT_REGION_LENGTH__+0x700ba0>
		nextSlot = curSlot + 1;
    8ef2:	8f 5f       	subi	r24, 0xFF	; 255
		if(nextSlot >= TXBUF_DEPTH_F0)
    8ef4:	84 36       	cpi	r24, 0x64	; 100
    8ef6:	08 f0       	brcs	.+2      	; 0x8efa <__vector_120+0x3a>
		nextSlot = 0;
    8ef8:	80 e0       	ldi	r24, 0x00	; 0
	}
	if(nextSlot == lastSlot)
    8efa:	89 13       	cpse	r24, r25
    8efc:	04 c0       	rjmp	.+8      	; 0x8f06 <__vector_120+0x46>
	USARTF0.CTRLA = USART_RXCINTLVL_MED_gc | USART_TXCINTLVL_OFF_gc | USART_DREINTLVL_OFF_gc;
    8efe:	80 e2       	ldi	r24, 0x20	; 32
    8f00:	80 93 a3 0b 	sts	0x0BA3, r24	; 0x800ba3 <__TEXT_REGION_LENGTH__+0x700ba3>
    8f04:	89 2f       	mov	r24, r25
	
	tx_f0_rdidx = nextSlot;
    8f06:	80 93 74 21 	sts	0x2174, r24	; 0x802174 <tx_f0_rdidx>
	
} // ISR(USARTF0_DRE_vect) 
    8f0a:	ff 91       	pop	r31
    8f0c:	ef 91       	pop	r30
    8f0e:	9f 91       	pop	r25
    8f10:	8f 91       	pop	r24
    8f12:	2f 91       	pop	r18
    8f14:	0f 90       	pop	r0
    8f16:	0b be       	out	0x3b, r0	; 59
    8f18:	0f 90       	pop	r0
    8f1a:	0f be       	out	0x3f, r0	; 63
    8f1c:	0f 90       	pop	r0
    8f1e:	1f 90       	pop	r1
    8f20:	18 95       	reti

00008f22 <xmega_transfer>:
 *
 *  \return void
 */
void ucg_SetPrintDir(ucg_t *ucg, uint8_t dir)
{
  ((ucg_print_t *)ucg->xmega_hook)->tdir = dir;
    8f22:	80 93 c3 09 	sts	0x09C3, r24	; 0x8009c3 <__TEXT_REGION_LENGTH__+0x7009c3>
    8f26:	e0 ec       	ldi	r30, 0xC0	; 192
    8f28:	f9 e0       	ldi	r31, 0x09	; 9
    8f2a:	82 81       	ldd	r24, Z+2	; 0x02
    8f2c:	88 23       	and	r24, r24
    8f2e:	ec f7       	brge	.-6      	; 0x8f2a <xmega_transfer+0x8>
    8f30:	08 95       	ret

00008f32 <ucg_Putc>:
    8f32:	0f 93       	push	r16
    8f34:	cf 93       	push	r28
    8f36:	df 93       	push	r29
    8f38:	08 2f       	mov	r16, r24
    8f3a:	80 91 2f 22 	lds	r24, 0x222F	; 0x80222f <curr_ucg>
    8f3e:	90 91 30 22 	lds	r25, 0x2230	; 0x802230 <curr_ucg+0x1>
    8f42:	fc 01       	movw	r30, r24
    8f44:	eb 56       	subi	r30, 0x6B	; 107
    8f46:	ff 4f       	sbci	r31, 0xFF	; 255
    8f48:	c0 81       	ld	r28, Z
    8f4a:	d1 81       	ldd	r29, Z+1	; 0x01
    8f4c:	4c 81       	ldd	r20, Y+4	; 0x04
    8f4e:	5d 81       	ldd	r21, Y+5	; 0x05
    8f50:	6a 81       	ldd	r22, Y+2	; 0x02
    8f52:	7b 81       	ldd	r23, Y+3	; 0x03
    8f54:	2e 81       	ldd	r18, Y+6	; 0x06
    8f56:	0e 94 43 38 	call	0x7086	; 0x7086 <ucg_DrawGlyph>
    8f5a:	9c 01       	movw	r18, r24
    8f5c:	9e 81       	ldd	r25, Y+6	; 0x06
    8f5e:	91 30       	cpi	r25, 0x01	; 1
    8f60:	59 f0       	breq	.+22     	; 0x8f78 <ucg_Putc+0x46>
    8f62:	18 f0       	brcs	.+6      	; 0x8f6a <ucg_Putc+0x38>
    8f64:	92 30       	cpi	r25, 0x02	; 2
    8f66:	79 f0       	breq	.+30     	; 0x8f86 <ucg_Putc+0x54>
    8f68:	15 c0       	rjmp	.+42     	; 0x8f94 <ucg_Putc+0x62>
    8f6a:	8a 81       	ldd	r24, Y+2	; 0x02
    8f6c:	9b 81       	ldd	r25, Y+3	; 0x03
    8f6e:	28 0f       	add	r18, r24
    8f70:	39 1f       	adc	r19, r25
    8f72:	2a 83       	std	Y+2, r18	; 0x02
    8f74:	3b 83       	std	Y+3, r19	; 0x03
    8f76:	14 c0       	rjmp	.+40     	; 0x8fa0 <ucg_Putc+0x6e>
    8f78:	8c 81       	ldd	r24, Y+4	; 0x04
    8f7a:	9d 81       	ldd	r25, Y+5	; 0x05
    8f7c:	28 0f       	add	r18, r24
    8f7e:	39 1f       	adc	r19, r25
    8f80:	2c 83       	std	Y+4, r18	; 0x04
    8f82:	3d 83       	std	Y+5, r19	; 0x05
    8f84:	0d c0       	rjmp	.+26     	; 0x8fa0 <ucg_Putc+0x6e>
    8f86:	8a 81       	ldd	r24, Y+2	; 0x02
    8f88:	9b 81       	ldd	r25, Y+3	; 0x03
    8f8a:	82 1b       	sub	r24, r18
    8f8c:	93 0b       	sbc	r25, r19
    8f8e:	8a 83       	std	Y+2, r24	; 0x02
    8f90:	9b 83       	std	Y+3, r25	; 0x03
    8f92:	06 c0       	rjmp	.+12     	; 0x8fa0 <ucg_Putc+0x6e>
    8f94:	8c 81       	ldd	r24, Y+4	; 0x04
    8f96:	9d 81       	ldd	r25, Y+5	; 0x05
    8f98:	82 1b       	sub	r24, r18
    8f9a:	93 0b       	sbc	r25, r19
    8f9c:	8c 83       	std	Y+4, r24	; 0x04
    8f9e:	9d 83       	std	Y+5, r25	; 0x05
    8fa0:	81 e0       	ldi	r24, 0x01	; 1
    8fa2:	90 e0       	ldi	r25, 0x00	; 0
    8fa4:	df 91       	pop	r29
    8fa6:	cf 91       	pop	r28
    8fa8:	0f 91       	pop	r16
    8faa:	08 95       	ret

00008fac <ucg_SetPrintPos>:
    8fac:	fc 01       	movw	r30, r24
    8fae:	eb 56       	subi	r30, 0x6B	; 107
    8fb0:	ff 4f       	sbci	r31, 0xFF	; 255
    8fb2:	a0 81       	ld	r26, Z
    8fb4:	b1 81       	ldd	r27, Z+1	; 0x01
    8fb6:	12 96       	adiw	r26, 0x02	; 2
    8fb8:	6d 93       	st	X+, r22
    8fba:	7c 93       	st	X, r23
    8fbc:	13 97       	sbiw	r26, 0x03	; 3
    8fbe:	01 90       	ld	r0, Z+
    8fc0:	f0 81       	ld	r31, Z
    8fc2:	e0 2d       	mov	r30, r0
    8fc4:	44 83       	std	Z+4, r20	; 0x04
    8fc6:	55 83       	std	Z+5, r21	; 0x05
    8fc8:	08 95       	ret

00008fca <ucg_Print>:
 *  \param  ...      variables that are printed
 *
 *  \return void
 */
void ucg_Print(ucg_t *ucg, char *fmt, ...)
{
    8fca:	cf 93       	push	r28
    8fcc:	df 93       	push	r29
    8fce:	cd b7       	in	r28, 0x3d	; 61
    8fd0:	de b7       	in	r29, 0x3e	; 62
    8fd2:	8e 81       	ldd	r24, Y+6	; 0x06
    8fd4:	9f 81       	ldd	r25, Y+7	; 0x07
  va_list vl;

  curr_ucg = ucg;
    8fd6:	80 93 2f 22 	sts	0x222F, r24	; 0x80222f <curr_ucg>
    8fda:	90 93 30 22 	sts	0x2230, r25	; 0x802230 <curr_ucg+0x1>
  va_start(vl, fmt);
  vfprintf( ((ucg_print_t *) (curr_ucg->xmega_hook))->fp, fmt, vl);
    8fde:	fc 01       	movw	r30, r24
    8fe0:	eb 56       	subi	r30, 0x6B	; 107
    8fe2:	ff 4f       	sbci	r31, 0xFF	; 255
    8fe4:	01 90       	ld	r0, Z+
    8fe6:	f0 81       	ld	r31, Z
    8fe8:	e0 2d       	mov	r30, r0
    8fea:	ae 01       	movw	r20, r28
    8fec:	46 5f       	subi	r20, 0xF6	; 246
    8fee:	5f 4f       	sbci	r21, 0xFF	; 255
    8ff0:	68 85       	ldd	r22, Y+8	; 0x08
    8ff2:	79 85       	ldd	r23, Y+9	; 0x09
    8ff4:	80 81       	ld	r24, Z
    8ff6:	91 81       	ldd	r25, Z+1	; 0x01
    8ff8:	0e 94 0f 4d 	call	0x9a1e	; 0x9a1e <vfprintf>
  va_end(vl);
}
    8ffc:	df 91       	pop	r29
    8ffe:	cf 91       	pop	r28
    9000:	08 95       	ret

00009002 <ucg_PrintInit>:
 *  \param  ucg      pointer to struct for the display
 *
 *  \return void
 */
void ucg_PrintInit(ucg_t *ucg)
{
    9002:	0f 93       	push	r16
    9004:	1f 93       	push	r17
    9006:	cf 93       	push	r28
    9008:	df 93       	push	r29
  if  (ucg->xmega_hook != NULL) return;
    900a:	fc 01       	movw	r30, r24
    900c:	eb 56       	subi	r30, 0x6B	; 107
    900e:	ff 4f       	sbci	r31, 0xFF	; 255
    9010:	20 81       	ld	r18, Z
    9012:	31 81       	ldd	r19, Z+1	; 0x01
    9014:	23 2b       	or	r18, r19
    9016:	d1 f4       	brne	.+52     	; 0x904c <ucg_PrintInit+0x4a>
    9018:	ec 01       	movw	r28, r24
  
  ucg_print_t *p = (ucg_print_t *) malloc(sizeof(ucg_print_t));
    901a:	87 e0       	ldi	r24, 0x07	; 7
    901c:	90 e0       	ldi	r25, 0x00	; 0
    901e:	0e 94 86 4b 	call	0x970c	; 0x970c <malloc>
    9022:	8c 01       	movw	r16, r24
  
  if (p == NULL) return;
    9024:	89 2b       	or	r24, r25
    9026:	91 f0       	breq	.+36     	; 0x904c <ucg_PrintInit+0x4a>
  
  p->fp    = fdevopen(ucg_Putc, NULL); 
    9028:	60 e0       	ldi	r22, 0x00	; 0
    902a:	70 e0       	ldi	r23, 0x00	; 0
    902c:	89 e9       	ldi	r24, 0x99	; 153
    902e:	97 e4       	ldi	r25, 0x47	; 71
    9030:	0e 94 b0 4c 	call	0x9960	; 0x9960 <fdevopen>
    9034:	f8 01       	movw	r30, r16
    9036:	80 83       	st	Z, r24
    9038:	91 83       	std	Z+1, r25	; 0x01
  p->tx    = 0;
    903a:	12 82       	std	Z+2, r1	; 0x02
    903c:	13 82       	std	Z+3, r1	; 0x03
  p->ty    = 0;
    903e:	14 82       	std	Z+4, r1	; 0x04
    9040:	15 82       	std	Z+5, r1	; 0x05
  p->tdir  = 0;
    9042:	16 82       	std	Z+6, r1	; 0x06
  
  ucg->xmega_hook = (void *) p;
    9044:	cb 56       	subi	r28, 0x6B	; 107
    9046:	df 4f       	sbci	r29, 0xFF	; 255
    9048:	08 83       	st	Y, r16
    904a:	19 83       	std	Y+1, r17	; 0x01

}
    904c:	df 91       	pop	r29
    904e:	cf 91       	pop	r28
    9050:	1f 91       	pop	r17
    9052:	0f 91       	pop	r16
    9054:	08 95       	ret

00009056 <ucg_comm_xmega>:
 *  \param  data     pointer to 8-bit data-array with bytes that needs to be send
 *
 *  \return 16-bit value, always 1
 */
int16_t ucg_comm_xmega(ucg_t *ucg, int16_t msg, uint16_t arg, uint8_t *data)
{
    9056:	0f 93       	push	r16
    9058:	1f 93       	push	r17
    905a:	cf 93       	push	r28
    905c:	df 93       	push	r29
    905e:	dc 01       	movw	r26, r24
    9060:	ea 01       	movw	r28, r20
    9062:	89 01       	movw	r16, r18
  switch(msg)
    9064:	fb 01       	movw	r30, r22
    9066:	3a 97       	sbiw	r30, 0x0a	; 10
    9068:	eb 30       	cpi	r30, 0x0B	; 11
    906a:	f1 05       	cpc	r31, r1
    906c:	08 f0       	brcs	.+2      	; 0x9070 <ucg_comm_xmega+0x1a>
    906e:	90 c0       	rjmp	.+288    	; 0x9190 <ucg_comm_xmega+0x13a>
    9070:	88 27       	eor	r24, r24
    9072:	e3 5f       	subi	r30, 0xF3	; 243
    9074:	fe 4f       	sbci	r31, 0xFE	; 254
    9076:	8f 4f       	sbci	r24, 0xFF	; 255
    9078:	0c 94 5b 4b 	jmp	0x96b6	; 0x96b6 <__tablejump2__>
        xmega_transfer(data[2]);
        arg--;
      }
      break;
    case UCG_COM_MSG_SEND_STR:
      while( arg > 0 ) {
    907c:	20 97       	sbiw	r28, 0x00	; 0
    907e:	09 f0       	breq	.+2      	; 0x9082 <ucg_comm_xmega+0x2c>
    9080:	80 c0       	rjmp	.+256    	; 0x9182 <ucg_comm_xmega+0x12c>
    9082:	86 c0       	rjmp	.+268    	; 0x9190 <ucg_comm_xmega+0x13a>
        xmega_transfer(data[1]);
        arg--;
      }
      break;
    case UCG_COM_MSG_REPEAT_3_BYTES:
      while( arg > 0 ) {
    9084:	20 97       	sbiw	r28, 0x00	; 0
    9086:	09 f0       	breq	.+2      	; 0x908a <ucg_comm_xmega+0x34>
    9088:	6d c0       	rjmp	.+218    	; 0x9164 <ucg_comm_xmega+0x10e>
    908a:	82 c0       	rjmp	.+260    	; 0x9190 <ucg_comm_xmega+0x13a>
        xmega_transfer(data[0]);
        arg--;
      }
      break;
    case UCG_COM_MSG_REPEAT_2_BYTES:
      while( arg > 0 ) {
    908c:	20 97       	sbiw	r28, 0x00	; 0
    908e:	09 f0       	breq	.+2      	; 0x9092 <ucg_comm_xmega+0x3c>
    9090:	5e c0       	rjmp	.+188    	; 0x914e <ucg_comm_xmega+0xf8>
    9092:	7e c0       	rjmp	.+252    	; 0x9190 <ucg_comm_xmega+0x13a>
      break;
    case UCG_COM_MSG_SEND_BYTE:
      xmega_transfer(arg);
      break;
    case UCG_COM_MSG_REPEAT_1_BYTE:
      while( arg > 0 ) {
    9094:	20 97       	sbiw	r28, 0x00	; 0
    9096:	09 f0       	breq	.+2      	; 0x909a <ucg_comm_xmega+0x44>
    9098:	53 c0       	rjmp	.+166    	; 0x9140 <ucg_comm_xmega+0xea>
    909a:	7a c0       	rjmp	.+244    	; 0x9190 <ucg_comm_xmega+0x13a>
      break;
    case UCG_COM_MSG_POWER_DOWN:
      xmega_disable();
      break;
    case UCG_COM_MSG_DELAY:
      for(uint16_t i=0; i<arg; i++) {
    909c:	20 97       	sbiw	r28, 0x00	; 0
    909e:	19 f5       	brne	.+70     	; 0x90e6 <ucg_comm_xmega+0x90>
    90a0:	77 c0       	rjmp	.+238    	; 0x9190 <ucg_comm_xmega+0x13a>
 *
 *  \return void
 */
static void xmega_init(void)
{
  UCG_XMEGA_RESET_PORT.DIRSET = UCG_XMEGA_RESET_bm;
    90a2:	e0 e6       	ldi	r30, 0x60	; 96
    90a4:	f6 e0       	ldi	r31, 0x06	; 6
    90a6:	88 e0       	ldi	r24, 0x08	; 8
    90a8:	81 83       	std	Z+1, r24	; 0x01
  UCG_XMEGA_CD_PORT.DIRSET    = UCG_XMEGA_CD_bm;
    90aa:	84 e0       	ldi	r24, 0x04	; 4
    90ac:	81 83       	std	Z+1, r24	; 0x01
  #if UCG_XMEGA_BLK==UCG_XMEGA_BLK_DISABLED
    *( (register8_t *) ( &(UCG_XMEGA_BLK_PORT.PIN0CTRL) + UCG_XMEGA_BLK_bp) ) = PORT_ISC_INPUT_DISABLE_gc;
  #elif UCG_XMEGA_BLK==UCG_XMEGA_BLK_CONNECT 
      UCG_XMEGA_BLK_PORT.DIRSET   = UCG_XMEGA_BLK_bm;
    90ae:	82 e0       	ldi	r24, 0x02	; 2
    90b0:	81 83       	std	Z+1, r24	; 0x01
      UCG_XMEGA_BLK_PORT.OUTSET   = UCG_XMEGA_BLK_bm;
    90b2:	85 83       	std	Z+5, r24	; 0x05
  #endif
      
  UCG_XMEGA_SCK_PORT.DIRSET   = UCG_XMEGA_SCK_bm;
    90b4:	80 e8       	ldi	r24, 0x80	; 128
    90b6:	81 83       	std	Z+1, r24	; 0x01
  UCG_XMEGA_SDA_PORT.DIRSET   = UCG_XMEGA_SDA_bm;
    90b8:	80 e2       	ldi	r24, 0x20	; 32
    90ba:	81 83       	std	Z+1, r24	; 0x01
  UCG_XMEGA_CS_PORT.DIRSET    = UCG_XMEGA_CS_bm;
    90bc:	80 e1       	ldi	r24, 0x10	; 16
    90be:	81 83       	std	Z+1, r24	; 0x01
  UCG_XMEGA_CS_PORT.OUTSET    = UCG_XMEGA_CS_bm;
    90c0:	85 83       	std	Z+5, r24	; 0x05

  #if UCG_XMEGA_USE==UCG_XMEGA_USING_SPI
    UCG_XMEGA_MISO_PORT.DIRCLR  = UCG_XMEGA_MISO_bm;
    90c2:	80 e4       	ldi	r24, 0x40	; 64
    90c4:	82 83       	std	Z+2, r24	; 0x02
    UCG_XMEGA_INTERFACE.CTRL    =  SPI_ENABLE_bm |  // enable SPI
    90c6:	80 e5       	ldi	r24, 0x50	; 80
    90c8:	80 93 c0 09 	sts	0x09C0, r24	; 0x8009c0 <__TEXT_REGION_LENGTH__+0x7009c0>
{
  switch(msg)
  {
    case UCG_COM_MSG_POWER_UP:
      xmega_init();
      ucg_PrintInit(ucg);
    90cc:	cd 01       	movw	r24, r26
    90ce:	0e 94 01 48 	call	0x9002	; 0x9002 <ucg_PrintInit>
      break;
    90d2:	5e c0       	rjmp	.+188    	; 0x9190 <ucg_comm_xmega+0x13a>
*  \return void
*/
static void xmega_disable(void)
{
  #if UCG_XMEGA_USE==UCG_XMEGA_USING_SPI
    UCG_XMEGA_INTERFACE.CTRL    = UCG_XMEGA_INTERFACE.CTRL & ~SPI_ENABLE_bm;
    90d4:	e0 ec       	ldi	r30, 0xC0	; 192
    90d6:	f9 e0       	ldi	r31, 0x09	; 9
    90d8:	80 81       	ld	r24, Z
    90da:	8f 7b       	andi	r24, 0xBF	; 191
    90dc:	80 83       	st	Z, r24
  #endif
  #if UCG_XMEGA_BLK==UCG_XMEGA_BLK_CONNECT
    UCG_XMEGA_BLK_PORT.OUTCLR = UCG_XMEGA_BLK_bm;
    90de:	82 e0       	ldi	r24, 0x02	; 2
    90e0:	80 93 66 06 	sts	0x0666, r24	; 0x800666 <__TEXT_REGION_LENGTH__+0x700666>
    90e4:	55 c0       	rjmp	.+170    	; 0x9190 <ucg_comm_xmega+0x13a>
      break;
    case UCG_COM_MSG_POWER_DOWN:
      xmega_disable();
      break;
    case UCG_COM_MSG_DELAY:
      for(uint16_t i=0; i<arg; i++) {
    90e6:	80 e0       	ldi	r24, 0x00	; 0
    90e8:	90 e0       	ldi	r25, 0x00	; 0
	#else
		//round up by default
		__ticks_dc = (uint32_t)(ceil(fabs(__tmp)));
	#endif

	__builtin_avr_delay_cycles(__ticks_dc);
    90ea:	2a e6       	ldi	r18, 0x6A	; 106
    90ec:	2a 95       	dec	r18
    90ee:	f1 f7       	brne	.-4      	; 0x90ec <ucg_comm_xmega+0x96>
    90f0:	00 c0       	rjmp	.+0      	; 0x90f2 <ucg_comm_xmega+0x9c>
    90f2:	01 96       	adiw	r24, 0x01	; 1
    90f4:	c8 17       	cp	r28, r24
    90f6:	d9 07       	cpc	r29, r25
    90f8:	c1 f7       	brne	.-16     	; 0x90ea <ucg_comm_xmega+0x94>
    90fa:	4a c0       	rjmp	.+148    	; 0x9190 <ucg_comm_xmega+0x13a>
        _delay_us(1);
      }
      break;
    case UCG_COM_MSG_CHANGE_RESET_LINE:
      if (arg) {
    90fc:	cd 2b       	or	r28, r29
    90fe:	21 f0       	breq	.+8      	; 0x9108 <ucg_comm_xmega+0xb2>
        UCG_XMEGA_RESET_PORT.OUTSET = UCG_XMEGA_RESET_bm;
    9100:	88 e0       	ldi	r24, 0x08	; 8
    9102:	80 93 65 06 	sts	0x0665, r24	; 0x800665 <__TEXT_REGION_LENGTH__+0x700665>
    9106:	44 c0       	rjmp	.+136    	; 0x9190 <ucg_comm_xmega+0x13a>
      } else {
        UCG_XMEGA_RESET_PORT.OUTCLR = UCG_XMEGA_RESET_bm;
    9108:	88 e0       	ldi	r24, 0x08	; 8
    910a:	80 93 66 06 	sts	0x0666, r24	; 0x800666 <__TEXT_REGION_LENGTH__+0x700666>
    910e:	40 c0       	rjmp	.+128    	; 0x9190 <ucg_comm_xmega+0x13a>
      }
      break;
    case UCG_COM_MSG_CHANGE_CS_LINE:
      if (arg) {
    9110:	cd 2b       	or	r28, r29
    9112:	21 f0       	breq	.+8      	; 0x911c <ucg_comm_xmega+0xc6>
        UCG_XMEGA_CS_PORT.OUTSET = UCG_XMEGA_CS_bm;
    9114:	80 e1       	ldi	r24, 0x10	; 16
    9116:	80 93 65 06 	sts	0x0665, r24	; 0x800665 <__TEXT_REGION_LENGTH__+0x700665>
    911a:	3a c0       	rjmp	.+116    	; 0x9190 <ucg_comm_xmega+0x13a>
      } else {
        UCG_XMEGA_CS_PORT.OUTCLR = UCG_XMEGA_CS_bm;
    911c:	80 e1       	ldi	r24, 0x10	; 16
    911e:	80 93 66 06 	sts	0x0666, r24	; 0x800666 <__TEXT_REGION_LENGTH__+0x700666>
    9122:	36 c0       	rjmp	.+108    	; 0x9190 <ucg_comm_xmega+0x13a>
      }
      break;
    case UCG_COM_MSG_CHANGE_CD_LINE:
      if (arg) {
    9124:	cd 2b       	or	r28, r29
    9126:	21 f0       	breq	.+8      	; 0x9130 <ucg_comm_xmega+0xda>
        UCG_XMEGA_CD_PORT.OUTSET = UCG_XMEGA_CD_bm;
    9128:	84 e0       	ldi	r24, 0x04	; 4
    912a:	80 93 65 06 	sts	0x0665, r24	; 0x800665 <__TEXT_REGION_LENGTH__+0x700665>
    912e:	30 c0       	rjmp	.+96     	; 0x9190 <ucg_comm_xmega+0x13a>
      } else {
        UCG_XMEGA_CD_PORT.OUTCLR = UCG_XMEGA_CD_bm;
    9130:	84 e0       	ldi	r24, 0x04	; 4
    9132:	80 93 66 06 	sts	0x0666, r24	; 0x800666 <__TEXT_REGION_LENGTH__+0x700666>
    9136:	2c c0       	rjmp	.+88     	; 0x9190 <ucg_comm_xmega+0x13a>
      }
      break;
    case UCG_COM_MSG_SEND_BYTE:
      xmega_transfer(arg);
    9138:	84 2f       	mov	r24, r20
    913a:	0e 94 91 47 	call	0x8f22	; 0x8f22 <xmega_transfer>
      break;
    913e:	28 c0       	rjmp	.+80     	; 0x9190 <ucg_comm_xmega+0x13a>
    case UCG_COM_MSG_REPEAT_1_BYTE:
      while( arg > 0 ) {
        xmega_transfer(data[0]);
    9140:	f8 01       	movw	r30, r16
    9142:	80 81       	ld	r24, Z
    9144:	0e 94 91 47 	call	0x8f22	; 0x8f22 <xmega_transfer>
        arg--;
    9148:	21 97       	sbiw	r28, 0x01	; 1
      break;
    case UCG_COM_MSG_SEND_BYTE:
      xmega_transfer(arg);
      break;
    case UCG_COM_MSG_REPEAT_1_BYTE:
      while( arg > 0 ) {
    914a:	d1 f7       	brne	.-12     	; 0x9140 <ucg_comm_xmega+0xea>
    914c:	21 c0       	rjmp	.+66     	; 0x9190 <ucg_comm_xmega+0x13a>
        arg--;
      }
      break;
    case UCG_COM_MSG_REPEAT_2_BYTES:
      while( arg > 0 ) {
        xmega_transfer(data[0]);
    914e:	f8 01       	movw	r30, r16
    9150:	80 81       	ld	r24, Z
    9152:	0e 94 91 47 	call	0x8f22	; 0x8f22 <xmega_transfer>
        xmega_transfer(data[1]);
    9156:	f8 01       	movw	r30, r16
    9158:	81 81       	ldd	r24, Z+1	; 0x01
    915a:	0e 94 91 47 	call	0x8f22	; 0x8f22 <xmega_transfer>
        arg--;
    915e:	21 97       	sbiw	r28, 0x01	; 1
        xmega_transfer(data[0]);
        arg--;
      }
      break;
    case UCG_COM_MSG_REPEAT_2_BYTES:
      while( arg > 0 ) {
    9160:	b1 f7       	brne	.-20     	; 0x914e <ucg_comm_xmega+0xf8>
    9162:	16 c0       	rjmp	.+44     	; 0x9190 <ucg_comm_xmega+0x13a>
        arg--;
      }
      break;
    case UCG_COM_MSG_REPEAT_3_BYTES:
      while( arg > 0 ) {
        xmega_transfer(data[0]);
    9164:	f8 01       	movw	r30, r16
    9166:	80 81       	ld	r24, Z
    9168:	0e 94 91 47 	call	0x8f22	; 0x8f22 <xmega_transfer>
        xmega_transfer(data[1]);
    916c:	f8 01       	movw	r30, r16
    916e:	81 81       	ldd	r24, Z+1	; 0x01
    9170:	0e 94 91 47 	call	0x8f22	; 0x8f22 <xmega_transfer>
        xmega_transfer(data[2]);
    9174:	f8 01       	movw	r30, r16
    9176:	82 81       	ldd	r24, Z+2	; 0x02
    9178:	0e 94 91 47 	call	0x8f22	; 0x8f22 <xmega_transfer>
        arg--;
    917c:	21 97       	sbiw	r28, 0x01	; 1
        xmega_transfer(data[1]);
        arg--;
      }
      break;
    case UCG_COM_MSG_REPEAT_3_BYTES:
      while( arg > 0 ) {
    917e:	91 f7       	brne	.-28     	; 0x9164 <ucg_comm_xmega+0x10e>
    9180:	07 c0       	rjmp	.+14     	; 0x9190 <ucg_comm_xmega+0x13a>
        arg--;
      }
      break;
    case UCG_COM_MSG_SEND_STR:
      while( arg > 0 ) {
        xmega_transfer(*data++);
    9182:	f8 01       	movw	r30, r16
    9184:	81 91       	ld	r24, Z+
    9186:	8f 01       	movw	r16, r30
    9188:	0e 94 91 47 	call	0x8f22	; 0x8f22 <xmega_transfer>
        arg--;
    918c:	21 97       	sbiw	r28, 0x01	; 1
        xmega_transfer(data[2]);
        arg--;
      }
      break;
    case UCG_COM_MSG_SEND_STR:
      while( arg > 0 ) {
    918e:	c9 f7       	brne	.-14     	; 0x9182 <ucg_comm_xmega+0x12c>
        }
      break;
  }
  
  return 1;
}
    9190:	81 e0       	ldi	r24, 0x01	; 1
    9192:	90 e0       	ldi	r25, 0x00	; 0
    9194:	df 91       	pop	r29
    9196:	cf 91       	pop	r28
    9198:	1f 91       	pop	r17
    919a:	0f 91       	pop	r16
    919c:	08 95       	ret

0000919e <__subsf3>:
    919e:	50 58       	subi	r21, 0x80	; 128

000091a0 <__addsf3>:
    91a0:	bb 27       	eor	r27, r27
    91a2:	aa 27       	eor	r26, r26
    91a4:	0e 94 e7 48 	call	0x91ce	; 0x91ce <__addsf3x>
    91a8:	0c 94 31 4a 	jmp	0x9462	; 0x9462 <__fp_round>
    91ac:	0e 94 23 4a 	call	0x9446	; 0x9446 <__fp_pscA>
    91b0:	38 f0       	brcs	.+14     	; 0x91c0 <__addsf3+0x20>
    91b2:	0e 94 2a 4a 	call	0x9454	; 0x9454 <__fp_pscB>
    91b6:	20 f0       	brcs	.+8      	; 0x91c0 <__addsf3+0x20>
    91b8:	39 f4       	brne	.+14     	; 0x91c8 <__addsf3+0x28>
    91ba:	9f 3f       	cpi	r25, 0xFF	; 255
    91bc:	19 f4       	brne	.+6      	; 0x91c4 <__addsf3+0x24>
    91be:	26 f4       	brtc	.+8      	; 0x91c8 <__addsf3+0x28>
    91c0:	0c 94 20 4a 	jmp	0x9440	; 0x9440 <__fp_nan>
    91c4:	0e f4       	brtc	.+2      	; 0x91c8 <__addsf3+0x28>
    91c6:	e0 95       	com	r30
    91c8:	e7 fb       	bst	r30, 7
    91ca:	0c 94 1a 4a 	jmp	0x9434	; 0x9434 <__fp_inf>

000091ce <__addsf3x>:
    91ce:	e9 2f       	mov	r30, r25
    91d0:	0e 94 42 4a 	call	0x9484	; 0x9484 <__fp_split3>
    91d4:	58 f3       	brcs	.-42     	; 0x91ac <__addsf3+0xc>
    91d6:	ba 17       	cp	r27, r26
    91d8:	62 07       	cpc	r22, r18
    91da:	73 07       	cpc	r23, r19
    91dc:	84 07       	cpc	r24, r20
    91de:	95 07       	cpc	r25, r21
    91e0:	20 f0       	brcs	.+8      	; 0x91ea <__addsf3x+0x1c>
    91e2:	79 f4       	brne	.+30     	; 0x9202 <__addsf3x+0x34>
    91e4:	a6 f5       	brtc	.+104    	; 0x924e <__addsf3x+0x80>
    91e6:	0c 94 64 4a 	jmp	0x94c8	; 0x94c8 <__fp_zero>
    91ea:	0e f4       	brtc	.+2      	; 0x91ee <__addsf3x+0x20>
    91ec:	e0 95       	com	r30
    91ee:	0b 2e       	mov	r0, r27
    91f0:	ba 2f       	mov	r27, r26
    91f2:	a0 2d       	mov	r26, r0
    91f4:	0b 01       	movw	r0, r22
    91f6:	b9 01       	movw	r22, r18
    91f8:	90 01       	movw	r18, r0
    91fa:	0c 01       	movw	r0, r24
    91fc:	ca 01       	movw	r24, r20
    91fe:	a0 01       	movw	r20, r0
    9200:	11 24       	eor	r1, r1
    9202:	ff 27       	eor	r31, r31
    9204:	59 1b       	sub	r21, r25
    9206:	99 f0       	breq	.+38     	; 0x922e <__addsf3x+0x60>
    9208:	59 3f       	cpi	r21, 0xF9	; 249
    920a:	50 f4       	brcc	.+20     	; 0x9220 <__addsf3x+0x52>
    920c:	50 3e       	cpi	r21, 0xE0	; 224
    920e:	68 f1       	brcs	.+90     	; 0x926a <__addsf3x+0x9c>
    9210:	1a 16       	cp	r1, r26
    9212:	f0 40       	sbci	r31, 0x00	; 0
    9214:	a2 2f       	mov	r26, r18
    9216:	23 2f       	mov	r18, r19
    9218:	34 2f       	mov	r19, r20
    921a:	44 27       	eor	r20, r20
    921c:	58 5f       	subi	r21, 0xF8	; 248
    921e:	f3 cf       	rjmp	.-26     	; 0x9206 <__addsf3x+0x38>
    9220:	46 95       	lsr	r20
    9222:	37 95       	ror	r19
    9224:	27 95       	ror	r18
    9226:	a7 95       	ror	r26
    9228:	f0 40       	sbci	r31, 0x00	; 0
    922a:	53 95       	inc	r21
    922c:	c9 f7       	brne	.-14     	; 0x9220 <__addsf3x+0x52>
    922e:	7e f4       	brtc	.+30     	; 0x924e <__addsf3x+0x80>
    9230:	1f 16       	cp	r1, r31
    9232:	ba 0b       	sbc	r27, r26
    9234:	62 0b       	sbc	r22, r18
    9236:	73 0b       	sbc	r23, r19
    9238:	84 0b       	sbc	r24, r20
    923a:	ba f0       	brmi	.+46     	; 0x926a <__addsf3x+0x9c>
    923c:	91 50       	subi	r25, 0x01	; 1
    923e:	a1 f0       	breq	.+40     	; 0x9268 <__addsf3x+0x9a>
    9240:	ff 0f       	add	r31, r31
    9242:	bb 1f       	adc	r27, r27
    9244:	66 1f       	adc	r22, r22
    9246:	77 1f       	adc	r23, r23
    9248:	88 1f       	adc	r24, r24
    924a:	c2 f7       	brpl	.-16     	; 0x923c <__addsf3x+0x6e>
    924c:	0e c0       	rjmp	.+28     	; 0x926a <__addsf3x+0x9c>
    924e:	ba 0f       	add	r27, r26
    9250:	62 1f       	adc	r22, r18
    9252:	73 1f       	adc	r23, r19
    9254:	84 1f       	adc	r24, r20
    9256:	48 f4       	brcc	.+18     	; 0x926a <__addsf3x+0x9c>
    9258:	87 95       	ror	r24
    925a:	77 95       	ror	r23
    925c:	67 95       	ror	r22
    925e:	b7 95       	ror	r27
    9260:	f7 95       	ror	r31
    9262:	9e 3f       	cpi	r25, 0xFE	; 254
    9264:	08 f0       	brcs	.+2      	; 0x9268 <__addsf3x+0x9a>
    9266:	b0 cf       	rjmp	.-160    	; 0x91c8 <__addsf3+0x28>
    9268:	93 95       	inc	r25
    926a:	88 0f       	add	r24, r24
    926c:	08 f0       	brcs	.+2      	; 0x9270 <__addsf3x+0xa2>
    926e:	99 27       	eor	r25, r25
    9270:	ee 0f       	add	r30, r30
    9272:	97 95       	ror	r25
    9274:	87 95       	ror	r24
    9276:	08 95       	ret

00009278 <__divsf3>:
    9278:	0e 94 50 49 	call	0x92a0	; 0x92a0 <__divsf3x>
    927c:	0c 94 31 4a 	jmp	0x9462	; 0x9462 <__fp_round>
    9280:	0e 94 2a 4a 	call	0x9454	; 0x9454 <__fp_pscB>
    9284:	58 f0       	brcs	.+22     	; 0x929c <__divsf3+0x24>
    9286:	0e 94 23 4a 	call	0x9446	; 0x9446 <__fp_pscA>
    928a:	40 f0       	brcs	.+16     	; 0x929c <__divsf3+0x24>
    928c:	29 f4       	brne	.+10     	; 0x9298 <__divsf3+0x20>
    928e:	5f 3f       	cpi	r21, 0xFF	; 255
    9290:	29 f0       	breq	.+10     	; 0x929c <__divsf3+0x24>
    9292:	0c 94 1a 4a 	jmp	0x9434	; 0x9434 <__fp_inf>
    9296:	51 11       	cpse	r21, r1
    9298:	0c 94 65 4a 	jmp	0x94ca	; 0x94ca <__fp_szero>
    929c:	0c 94 20 4a 	jmp	0x9440	; 0x9440 <__fp_nan>

000092a0 <__divsf3x>:
    92a0:	0e 94 42 4a 	call	0x9484	; 0x9484 <__fp_split3>
    92a4:	68 f3       	brcs	.-38     	; 0x9280 <__divsf3+0x8>

000092a6 <__divsf3_pse>:
    92a6:	99 23       	and	r25, r25
    92a8:	b1 f3       	breq	.-20     	; 0x9296 <__divsf3+0x1e>
    92aa:	55 23       	and	r21, r21
    92ac:	91 f3       	breq	.-28     	; 0x9292 <__divsf3+0x1a>
    92ae:	95 1b       	sub	r25, r21
    92b0:	55 0b       	sbc	r21, r21
    92b2:	bb 27       	eor	r27, r27
    92b4:	aa 27       	eor	r26, r26
    92b6:	62 17       	cp	r22, r18
    92b8:	73 07       	cpc	r23, r19
    92ba:	84 07       	cpc	r24, r20
    92bc:	38 f0       	brcs	.+14     	; 0x92cc <__divsf3_pse+0x26>
    92be:	9f 5f       	subi	r25, 0xFF	; 255
    92c0:	5f 4f       	sbci	r21, 0xFF	; 255
    92c2:	22 0f       	add	r18, r18
    92c4:	33 1f       	adc	r19, r19
    92c6:	44 1f       	adc	r20, r20
    92c8:	aa 1f       	adc	r26, r26
    92ca:	a9 f3       	breq	.-22     	; 0x92b6 <__divsf3_pse+0x10>
    92cc:	35 d0       	rcall	.+106    	; 0x9338 <__divsf3_pse+0x92>
    92ce:	0e 2e       	mov	r0, r30
    92d0:	3a f0       	brmi	.+14     	; 0x92e0 <__divsf3_pse+0x3a>
    92d2:	e0 e8       	ldi	r30, 0x80	; 128
    92d4:	32 d0       	rcall	.+100    	; 0x933a <__divsf3_pse+0x94>
    92d6:	91 50       	subi	r25, 0x01	; 1
    92d8:	50 40       	sbci	r21, 0x00	; 0
    92da:	e6 95       	lsr	r30
    92dc:	00 1c       	adc	r0, r0
    92de:	ca f7       	brpl	.-14     	; 0x92d2 <__divsf3_pse+0x2c>
    92e0:	2b d0       	rcall	.+86     	; 0x9338 <__divsf3_pse+0x92>
    92e2:	fe 2f       	mov	r31, r30
    92e4:	29 d0       	rcall	.+82     	; 0x9338 <__divsf3_pse+0x92>
    92e6:	66 0f       	add	r22, r22
    92e8:	77 1f       	adc	r23, r23
    92ea:	88 1f       	adc	r24, r24
    92ec:	bb 1f       	adc	r27, r27
    92ee:	26 17       	cp	r18, r22
    92f0:	37 07       	cpc	r19, r23
    92f2:	48 07       	cpc	r20, r24
    92f4:	ab 07       	cpc	r26, r27
    92f6:	b0 e8       	ldi	r27, 0x80	; 128
    92f8:	09 f0       	breq	.+2      	; 0x92fc <__divsf3_pse+0x56>
    92fa:	bb 0b       	sbc	r27, r27
    92fc:	80 2d       	mov	r24, r0
    92fe:	bf 01       	movw	r22, r30
    9300:	ff 27       	eor	r31, r31
    9302:	93 58       	subi	r25, 0x83	; 131
    9304:	5f 4f       	sbci	r21, 0xFF	; 255
    9306:	3a f0       	brmi	.+14     	; 0x9316 <__divsf3_pse+0x70>
    9308:	9e 3f       	cpi	r25, 0xFE	; 254
    930a:	51 05       	cpc	r21, r1
    930c:	78 f0       	brcs	.+30     	; 0x932c <__divsf3_pse+0x86>
    930e:	0c 94 1a 4a 	jmp	0x9434	; 0x9434 <__fp_inf>
    9312:	0c 94 65 4a 	jmp	0x94ca	; 0x94ca <__fp_szero>
    9316:	5f 3f       	cpi	r21, 0xFF	; 255
    9318:	e4 f3       	brlt	.-8      	; 0x9312 <__divsf3_pse+0x6c>
    931a:	98 3e       	cpi	r25, 0xE8	; 232
    931c:	d4 f3       	brlt	.-12     	; 0x9312 <__divsf3_pse+0x6c>
    931e:	86 95       	lsr	r24
    9320:	77 95       	ror	r23
    9322:	67 95       	ror	r22
    9324:	b7 95       	ror	r27
    9326:	f7 95       	ror	r31
    9328:	9f 5f       	subi	r25, 0xFF	; 255
    932a:	c9 f7       	brne	.-14     	; 0x931e <__divsf3_pse+0x78>
    932c:	88 0f       	add	r24, r24
    932e:	91 1d       	adc	r25, r1
    9330:	96 95       	lsr	r25
    9332:	87 95       	ror	r24
    9334:	97 f9       	bld	r25, 7
    9336:	08 95       	ret
    9338:	e1 e0       	ldi	r30, 0x01	; 1
    933a:	66 0f       	add	r22, r22
    933c:	77 1f       	adc	r23, r23
    933e:	88 1f       	adc	r24, r24
    9340:	bb 1f       	adc	r27, r27
    9342:	62 17       	cp	r22, r18
    9344:	73 07       	cpc	r23, r19
    9346:	84 07       	cpc	r24, r20
    9348:	ba 07       	cpc	r27, r26
    934a:	20 f0       	brcs	.+8      	; 0x9354 <__divsf3_pse+0xae>
    934c:	62 1b       	sub	r22, r18
    934e:	73 0b       	sbc	r23, r19
    9350:	84 0b       	sbc	r24, r20
    9352:	ba 0b       	sbc	r27, r26
    9354:	ee 1f       	adc	r30, r30
    9356:	88 f7       	brcc	.-30     	; 0x933a <__divsf3_pse+0x94>
    9358:	e0 95       	com	r30
    935a:	08 95       	ret

0000935c <__fixunssfsi>:
    935c:	0e 94 4a 4a 	call	0x9494	; 0x9494 <__fp_splitA>
    9360:	88 f0       	brcs	.+34     	; 0x9384 <__fixunssfsi+0x28>
    9362:	9f 57       	subi	r25, 0x7F	; 127
    9364:	98 f0       	brcs	.+38     	; 0x938c <__fixunssfsi+0x30>
    9366:	b9 2f       	mov	r27, r25
    9368:	99 27       	eor	r25, r25
    936a:	b7 51       	subi	r27, 0x17	; 23
    936c:	b0 f0       	brcs	.+44     	; 0x939a <__fixunssfsi+0x3e>
    936e:	e1 f0       	breq	.+56     	; 0x93a8 <__fixunssfsi+0x4c>
    9370:	66 0f       	add	r22, r22
    9372:	77 1f       	adc	r23, r23
    9374:	88 1f       	adc	r24, r24
    9376:	99 1f       	adc	r25, r25
    9378:	1a f0       	brmi	.+6      	; 0x9380 <__fixunssfsi+0x24>
    937a:	ba 95       	dec	r27
    937c:	c9 f7       	brne	.-14     	; 0x9370 <__fixunssfsi+0x14>
    937e:	14 c0       	rjmp	.+40     	; 0x93a8 <__fixunssfsi+0x4c>
    9380:	b1 30       	cpi	r27, 0x01	; 1
    9382:	91 f0       	breq	.+36     	; 0x93a8 <__fixunssfsi+0x4c>
    9384:	0e 94 64 4a 	call	0x94c8	; 0x94c8 <__fp_zero>
    9388:	b1 e0       	ldi	r27, 0x01	; 1
    938a:	08 95       	ret
    938c:	0c 94 64 4a 	jmp	0x94c8	; 0x94c8 <__fp_zero>
    9390:	67 2f       	mov	r22, r23
    9392:	78 2f       	mov	r23, r24
    9394:	88 27       	eor	r24, r24
    9396:	b8 5f       	subi	r27, 0xF8	; 248
    9398:	39 f0       	breq	.+14     	; 0x93a8 <__fixunssfsi+0x4c>
    939a:	b9 3f       	cpi	r27, 0xF9	; 249
    939c:	cc f3       	brlt	.-14     	; 0x9390 <__fixunssfsi+0x34>
    939e:	86 95       	lsr	r24
    93a0:	77 95       	ror	r23
    93a2:	67 95       	ror	r22
    93a4:	b3 95       	inc	r27
    93a6:	d9 f7       	brne	.-10     	; 0x939e <__fixunssfsi+0x42>
    93a8:	3e f4       	brtc	.+14     	; 0x93b8 <__fixunssfsi+0x5c>
    93aa:	90 95       	com	r25
    93ac:	80 95       	com	r24
    93ae:	70 95       	com	r23
    93b0:	61 95       	neg	r22
    93b2:	7f 4f       	sbci	r23, 0xFF	; 255
    93b4:	8f 4f       	sbci	r24, 0xFF	; 255
    93b6:	9f 4f       	sbci	r25, 0xFF	; 255
    93b8:	08 95       	ret

000093ba <__floatunsisf>:
    93ba:	e8 94       	clt
    93bc:	09 c0       	rjmp	.+18     	; 0x93d0 <__floatsisf+0x12>

000093be <__floatsisf>:
    93be:	97 fb       	bst	r25, 7
    93c0:	3e f4       	brtc	.+14     	; 0x93d0 <__floatsisf+0x12>
    93c2:	90 95       	com	r25
    93c4:	80 95       	com	r24
    93c6:	70 95       	com	r23
    93c8:	61 95       	neg	r22
    93ca:	7f 4f       	sbci	r23, 0xFF	; 255
    93cc:	8f 4f       	sbci	r24, 0xFF	; 255
    93ce:	9f 4f       	sbci	r25, 0xFF	; 255
    93d0:	99 23       	and	r25, r25
    93d2:	a9 f0       	breq	.+42     	; 0x93fe <__floatsisf+0x40>
    93d4:	f9 2f       	mov	r31, r25
    93d6:	96 e9       	ldi	r25, 0x96	; 150
    93d8:	bb 27       	eor	r27, r27
    93da:	93 95       	inc	r25
    93dc:	f6 95       	lsr	r31
    93de:	87 95       	ror	r24
    93e0:	77 95       	ror	r23
    93e2:	67 95       	ror	r22
    93e4:	b7 95       	ror	r27
    93e6:	f1 11       	cpse	r31, r1
    93e8:	f8 cf       	rjmp	.-16     	; 0x93da <__floatsisf+0x1c>
    93ea:	fa f4       	brpl	.+62     	; 0x942a <__floatsisf+0x6c>
    93ec:	bb 0f       	add	r27, r27
    93ee:	11 f4       	brne	.+4      	; 0x93f4 <__floatsisf+0x36>
    93f0:	60 ff       	sbrs	r22, 0
    93f2:	1b c0       	rjmp	.+54     	; 0x942a <__floatsisf+0x6c>
    93f4:	6f 5f       	subi	r22, 0xFF	; 255
    93f6:	7f 4f       	sbci	r23, 0xFF	; 255
    93f8:	8f 4f       	sbci	r24, 0xFF	; 255
    93fa:	9f 4f       	sbci	r25, 0xFF	; 255
    93fc:	16 c0       	rjmp	.+44     	; 0x942a <__floatsisf+0x6c>
    93fe:	88 23       	and	r24, r24
    9400:	11 f0       	breq	.+4      	; 0x9406 <__floatsisf+0x48>
    9402:	96 e9       	ldi	r25, 0x96	; 150
    9404:	11 c0       	rjmp	.+34     	; 0x9428 <__floatsisf+0x6a>
    9406:	77 23       	and	r23, r23
    9408:	21 f0       	breq	.+8      	; 0x9412 <__floatsisf+0x54>
    940a:	9e e8       	ldi	r25, 0x8E	; 142
    940c:	87 2f       	mov	r24, r23
    940e:	76 2f       	mov	r23, r22
    9410:	05 c0       	rjmp	.+10     	; 0x941c <__floatsisf+0x5e>
    9412:	66 23       	and	r22, r22
    9414:	71 f0       	breq	.+28     	; 0x9432 <__floatsisf+0x74>
    9416:	96 e8       	ldi	r25, 0x86	; 134
    9418:	86 2f       	mov	r24, r22
    941a:	70 e0       	ldi	r23, 0x00	; 0
    941c:	60 e0       	ldi	r22, 0x00	; 0
    941e:	2a f0       	brmi	.+10     	; 0x942a <__floatsisf+0x6c>
    9420:	9a 95       	dec	r25
    9422:	66 0f       	add	r22, r22
    9424:	77 1f       	adc	r23, r23
    9426:	88 1f       	adc	r24, r24
    9428:	da f7       	brpl	.-10     	; 0x9420 <__floatsisf+0x62>
    942a:	88 0f       	add	r24, r24
    942c:	96 95       	lsr	r25
    942e:	87 95       	ror	r24
    9430:	97 f9       	bld	r25, 7
    9432:	08 95       	ret

00009434 <__fp_inf>:
    9434:	97 f9       	bld	r25, 7
    9436:	9f 67       	ori	r25, 0x7F	; 127
    9438:	80 e8       	ldi	r24, 0x80	; 128
    943a:	70 e0       	ldi	r23, 0x00	; 0
    943c:	60 e0       	ldi	r22, 0x00	; 0
    943e:	08 95       	ret

00009440 <__fp_nan>:
    9440:	9f ef       	ldi	r25, 0xFF	; 255
    9442:	80 ec       	ldi	r24, 0xC0	; 192
    9444:	08 95       	ret

00009446 <__fp_pscA>:
    9446:	00 24       	eor	r0, r0
    9448:	0a 94       	dec	r0
    944a:	16 16       	cp	r1, r22
    944c:	17 06       	cpc	r1, r23
    944e:	18 06       	cpc	r1, r24
    9450:	09 06       	cpc	r0, r25
    9452:	08 95       	ret

00009454 <__fp_pscB>:
    9454:	00 24       	eor	r0, r0
    9456:	0a 94       	dec	r0
    9458:	12 16       	cp	r1, r18
    945a:	13 06       	cpc	r1, r19
    945c:	14 06       	cpc	r1, r20
    945e:	05 06       	cpc	r0, r21
    9460:	08 95       	ret

00009462 <__fp_round>:
    9462:	09 2e       	mov	r0, r25
    9464:	03 94       	inc	r0
    9466:	00 0c       	add	r0, r0
    9468:	11 f4       	brne	.+4      	; 0x946e <__fp_round+0xc>
    946a:	88 23       	and	r24, r24
    946c:	52 f0       	brmi	.+20     	; 0x9482 <__fp_round+0x20>
    946e:	bb 0f       	add	r27, r27
    9470:	40 f4       	brcc	.+16     	; 0x9482 <__fp_round+0x20>
    9472:	bf 2b       	or	r27, r31
    9474:	11 f4       	brne	.+4      	; 0x947a <__fp_round+0x18>
    9476:	60 ff       	sbrs	r22, 0
    9478:	04 c0       	rjmp	.+8      	; 0x9482 <__fp_round+0x20>
    947a:	6f 5f       	subi	r22, 0xFF	; 255
    947c:	7f 4f       	sbci	r23, 0xFF	; 255
    947e:	8f 4f       	sbci	r24, 0xFF	; 255
    9480:	9f 4f       	sbci	r25, 0xFF	; 255
    9482:	08 95       	ret

00009484 <__fp_split3>:
    9484:	57 fd       	sbrc	r21, 7
    9486:	90 58       	subi	r25, 0x80	; 128
    9488:	44 0f       	add	r20, r20
    948a:	55 1f       	adc	r21, r21
    948c:	59 f0       	breq	.+22     	; 0x94a4 <__fp_splitA+0x10>
    948e:	5f 3f       	cpi	r21, 0xFF	; 255
    9490:	71 f0       	breq	.+28     	; 0x94ae <__fp_splitA+0x1a>
    9492:	47 95       	ror	r20

00009494 <__fp_splitA>:
    9494:	88 0f       	add	r24, r24
    9496:	97 fb       	bst	r25, 7
    9498:	99 1f       	adc	r25, r25
    949a:	61 f0       	breq	.+24     	; 0x94b4 <__fp_splitA+0x20>
    949c:	9f 3f       	cpi	r25, 0xFF	; 255
    949e:	79 f0       	breq	.+30     	; 0x94be <__fp_splitA+0x2a>
    94a0:	87 95       	ror	r24
    94a2:	08 95       	ret
    94a4:	12 16       	cp	r1, r18
    94a6:	13 06       	cpc	r1, r19
    94a8:	14 06       	cpc	r1, r20
    94aa:	55 1f       	adc	r21, r21
    94ac:	f2 cf       	rjmp	.-28     	; 0x9492 <__fp_split3+0xe>
    94ae:	46 95       	lsr	r20
    94b0:	f1 df       	rcall	.-30     	; 0x9494 <__fp_splitA>
    94b2:	08 c0       	rjmp	.+16     	; 0x94c4 <__fp_splitA+0x30>
    94b4:	16 16       	cp	r1, r22
    94b6:	17 06       	cpc	r1, r23
    94b8:	18 06       	cpc	r1, r24
    94ba:	99 1f       	adc	r25, r25
    94bc:	f1 cf       	rjmp	.-30     	; 0x94a0 <__fp_splitA+0xc>
    94be:	86 95       	lsr	r24
    94c0:	71 05       	cpc	r23, r1
    94c2:	61 05       	cpc	r22, r1
    94c4:	08 94       	sec
    94c6:	08 95       	ret

000094c8 <__fp_zero>:
    94c8:	e8 94       	clt

000094ca <__fp_szero>:
    94ca:	bb 27       	eor	r27, r27
    94cc:	66 27       	eor	r22, r22
    94ce:	77 27       	eor	r23, r23
    94d0:	cb 01       	movw	r24, r22
    94d2:	97 f9       	bld	r25, 7
    94d4:	08 95       	ret

000094d6 <__mulsf3>:
    94d6:	0e 94 7e 4a 	call	0x94fc	; 0x94fc <__mulsf3x>
    94da:	0c 94 31 4a 	jmp	0x9462	; 0x9462 <__fp_round>
    94de:	0e 94 23 4a 	call	0x9446	; 0x9446 <__fp_pscA>
    94e2:	38 f0       	brcs	.+14     	; 0x94f2 <__mulsf3+0x1c>
    94e4:	0e 94 2a 4a 	call	0x9454	; 0x9454 <__fp_pscB>
    94e8:	20 f0       	brcs	.+8      	; 0x94f2 <__mulsf3+0x1c>
    94ea:	95 23       	and	r25, r21
    94ec:	11 f0       	breq	.+4      	; 0x94f2 <__mulsf3+0x1c>
    94ee:	0c 94 1a 4a 	jmp	0x9434	; 0x9434 <__fp_inf>
    94f2:	0c 94 20 4a 	jmp	0x9440	; 0x9440 <__fp_nan>
    94f6:	11 24       	eor	r1, r1
    94f8:	0c 94 65 4a 	jmp	0x94ca	; 0x94ca <__fp_szero>

000094fc <__mulsf3x>:
    94fc:	0e 94 42 4a 	call	0x9484	; 0x9484 <__fp_split3>
    9500:	70 f3       	brcs	.-36     	; 0x94de <__mulsf3+0x8>

00009502 <__mulsf3_pse>:
    9502:	95 9f       	mul	r25, r21
    9504:	c1 f3       	breq	.-16     	; 0x94f6 <__mulsf3+0x20>
    9506:	95 0f       	add	r25, r21
    9508:	50 e0       	ldi	r21, 0x00	; 0
    950a:	55 1f       	adc	r21, r21
    950c:	62 9f       	mul	r22, r18
    950e:	f0 01       	movw	r30, r0
    9510:	72 9f       	mul	r23, r18
    9512:	bb 27       	eor	r27, r27
    9514:	f0 0d       	add	r31, r0
    9516:	b1 1d       	adc	r27, r1
    9518:	63 9f       	mul	r22, r19
    951a:	aa 27       	eor	r26, r26
    951c:	f0 0d       	add	r31, r0
    951e:	b1 1d       	adc	r27, r1
    9520:	aa 1f       	adc	r26, r26
    9522:	64 9f       	mul	r22, r20
    9524:	66 27       	eor	r22, r22
    9526:	b0 0d       	add	r27, r0
    9528:	a1 1d       	adc	r26, r1
    952a:	66 1f       	adc	r22, r22
    952c:	82 9f       	mul	r24, r18
    952e:	22 27       	eor	r18, r18
    9530:	b0 0d       	add	r27, r0
    9532:	a1 1d       	adc	r26, r1
    9534:	62 1f       	adc	r22, r18
    9536:	73 9f       	mul	r23, r19
    9538:	b0 0d       	add	r27, r0
    953a:	a1 1d       	adc	r26, r1
    953c:	62 1f       	adc	r22, r18
    953e:	83 9f       	mul	r24, r19
    9540:	a0 0d       	add	r26, r0
    9542:	61 1d       	adc	r22, r1
    9544:	22 1f       	adc	r18, r18
    9546:	74 9f       	mul	r23, r20
    9548:	33 27       	eor	r19, r19
    954a:	a0 0d       	add	r26, r0
    954c:	61 1d       	adc	r22, r1
    954e:	23 1f       	adc	r18, r19
    9550:	84 9f       	mul	r24, r20
    9552:	60 0d       	add	r22, r0
    9554:	21 1d       	adc	r18, r1
    9556:	82 2f       	mov	r24, r18
    9558:	76 2f       	mov	r23, r22
    955a:	6a 2f       	mov	r22, r26
    955c:	11 24       	eor	r1, r1
    955e:	9f 57       	subi	r25, 0x7F	; 127
    9560:	50 40       	sbci	r21, 0x00	; 0
    9562:	9a f0       	brmi	.+38     	; 0x958a <__mulsf3_pse+0x88>
    9564:	f1 f0       	breq	.+60     	; 0x95a2 <__mulsf3_pse+0xa0>
    9566:	88 23       	and	r24, r24
    9568:	4a f0       	brmi	.+18     	; 0x957c <__mulsf3_pse+0x7a>
    956a:	ee 0f       	add	r30, r30
    956c:	ff 1f       	adc	r31, r31
    956e:	bb 1f       	adc	r27, r27
    9570:	66 1f       	adc	r22, r22
    9572:	77 1f       	adc	r23, r23
    9574:	88 1f       	adc	r24, r24
    9576:	91 50       	subi	r25, 0x01	; 1
    9578:	50 40       	sbci	r21, 0x00	; 0
    957a:	a9 f7       	brne	.-22     	; 0x9566 <__mulsf3_pse+0x64>
    957c:	9e 3f       	cpi	r25, 0xFE	; 254
    957e:	51 05       	cpc	r21, r1
    9580:	80 f0       	brcs	.+32     	; 0x95a2 <__mulsf3_pse+0xa0>
    9582:	0c 94 1a 4a 	jmp	0x9434	; 0x9434 <__fp_inf>
    9586:	0c 94 65 4a 	jmp	0x94ca	; 0x94ca <__fp_szero>
    958a:	5f 3f       	cpi	r21, 0xFF	; 255
    958c:	e4 f3       	brlt	.-8      	; 0x9586 <__mulsf3_pse+0x84>
    958e:	98 3e       	cpi	r25, 0xE8	; 232
    9590:	d4 f3       	brlt	.-12     	; 0x9586 <__mulsf3_pse+0x84>
    9592:	86 95       	lsr	r24
    9594:	77 95       	ror	r23
    9596:	67 95       	ror	r22
    9598:	b7 95       	ror	r27
    959a:	f7 95       	ror	r31
    959c:	e7 95       	ror	r30
    959e:	9f 5f       	subi	r25, 0xFF	; 255
    95a0:	c1 f7       	brne	.-16     	; 0x9592 <__mulsf3_pse+0x90>
    95a2:	fe 2b       	or	r31, r30
    95a4:	88 0f       	add	r24, r24
    95a6:	91 1d       	adc	r25, r1
    95a8:	96 95       	lsr	r25
    95aa:	87 95       	ror	r24
    95ac:	97 f9       	bld	r25, 7
    95ae:	08 95       	ret

000095b0 <round>:
    95b0:	0e 94 4a 4a 	call	0x9494	; 0x9494 <__fp_splitA>
    95b4:	e8 f0       	brcs	.+58     	; 0x95f0 <round+0x40>
    95b6:	9e 37       	cpi	r25, 0x7E	; 126
    95b8:	e8 f0       	brcs	.+58     	; 0x95f4 <round+0x44>
    95ba:	96 39       	cpi	r25, 0x96	; 150
    95bc:	b8 f4       	brcc	.+46     	; 0x95ec <round+0x3c>
    95be:	9e 38       	cpi	r25, 0x8E	; 142
    95c0:	48 f4       	brcc	.+18     	; 0x95d4 <round+0x24>
    95c2:	67 2f       	mov	r22, r23
    95c4:	78 2f       	mov	r23, r24
    95c6:	88 27       	eor	r24, r24
    95c8:	98 5f       	subi	r25, 0xF8	; 248
    95ca:	f9 cf       	rjmp	.-14     	; 0x95be <round+0xe>
    95cc:	86 95       	lsr	r24
    95ce:	77 95       	ror	r23
    95d0:	67 95       	ror	r22
    95d2:	93 95       	inc	r25
    95d4:	95 39       	cpi	r25, 0x95	; 149
    95d6:	d0 f3       	brcs	.-12     	; 0x95cc <round+0x1c>
    95d8:	b6 2f       	mov	r27, r22
    95da:	b1 70       	andi	r27, 0x01	; 1
    95dc:	6b 0f       	add	r22, r27
    95de:	71 1d       	adc	r23, r1
    95e0:	81 1d       	adc	r24, r1
    95e2:	20 f4       	brcc	.+8      	; 0x95ec <round+0x3c>
    95e4:	87 95       	ror	r24
    95e6:	77 95       	ror	r23
    95e8:	67 95       	ror	r22
    95ea:	93 95       	inc	r25
    95ec:	0c 94 fc 4a 	jmp	0x95f8	; 0x95f8 <__fp_mintl>
    95f0:	0c 94 17 4b 	jmp	0x962e	; 0x962e <__fp_mpack>
    95f4:	0c 94 65 4a 	jmp	0x94ca	; 0x94ca <__fp_szero>

000095f8 <__fp_mintl>:
    95f8:	88 23       	and	r24, r24
    95fa:	71 f4       	brne	.+28     	; 0x9618 <__fp_mintl+0x20>
    95fc:	77 23       	and	r23, r23
    95fe:	21 f0       	breq	.+8      	; 0x9608 <__fp_mintl+0x10>
    9600:	98 50       	subi	r25, 0x08	; 8
    9602:	87 2b       	or	r24, r23
    9604:	76 2f       	mov	r23, r22
    9606:	07 c0       	rjmp	.+14     	; 0x9616 <__fp_mintl+0x1e>
    9608:	66 23       	and	r22, r22
    960a:	11 f4       	brne	.+4      	; 0x9610 <__fp_mintl+0x18>
    960c:	99 27       	eor	r25, r25
    960e:	0d c0       	rjmp	.+26     	; 0x962a <__fp_mintl+0x32>
    9610:	90 51       	subi	r25, 0x10	; 16
    9612:	86 2b       	or	r24, r22
    9614:	70 e0       	ldi	r23, 0x00	; 0
    9616:	60 e0       	ldi	r22, 0x00	; 0
    9618:	2a f0       	brmi	.+10     	; 0x9624 <__fp_mintl+0x2c>
    961a:	9a 95       	dec	r25
    961c:	66 0f       	add	r22, r22
    961e:	77 1f       	adc	r23, r23
    9620:	88 1f       	adc	r24, r24
    9622:	da f7       	brpl	.-10     	; 0x961a <__fp_mintl+0x22>
    9624:	88 0f       	add	r24, r24
    9626:	96 95       	lsr	r25
    9628:	87 95       	ror	r24
    962a:	97 f9       	bld	r25, 7
    962c:	08 95       	ret

0000962e <__fp_mpack>:
    962e:	9f 3f       	cpi	r25, 0xFF	; 255
    9630:	31 f0       	breq	.+12     	; 0x963e <__fp_mpack_finite+0xc>

00009632 <__fp_mpack_finite>:
    9632:	91 50       	subi	r25, 0x01	; 1
    9634:	20 f4       	brcc	.+8      	; 0x963e <__fp_mpack_finite+0xc>
    9636:	87 95       	ror	r24
    9638:	77 95       	ror	r23
    963a:	67 95       	ror	r22
    963c:	b7 95       	ror	r27
    963e:	88 0f       	add	r24, r24
    9640:	91 1d       	adc	r25, r1
    9642:	96 95       	lsr	r25
    9644:	87 95       	ror	r24
    9646:	97 f9       	bld	r25, 7
    9648:	08 95       	ret

0000964a <__divmodhi4>:
    964a:	97 fb       	bst	r25, 7
    964c:	07 2e       	mov	r0, r23
    964e:	16 f4       	brtc	.+4      	; 0x9654 <__divmodhi4+0xa>
    9650:	00 94       	com	r0
    9652:	07 d0       	rcall	.+14     	; 0x9662 <__divmodhi4_neg1>
    9654:	77 fd       	sbrc	r23, 7
    9656:	09 d0       	rcall	.+18     	; 0x966a <__divmodhi4_neg2>
    9658:	0e 94 72 4b 	call	0x96e4	; 0x96e4 <__udivmodhi4>
    965c:	07 fc       	sbrc	r0, 7
    965e:	05 d0       	rcall	.+10     	; 0x966a <__divmodhi4_neg2>
    9660:	3e f4       	brtc	.+14     	; 0x9670 <__divmodhi4_exit>

00009662 <__divmodhi4_neg1>:
    9662:	90 95       	com	r25
    9664:	81 95       	neg	r24
    9666:	9f 4f       	sbci	r25, 0xFF	; 255
    9668:	08 95       	ret

0000966a <__divmodhi4_neg2>:
    966a:	70 95       	com	r23
    966c:	61 95       	neg	r22
    966e:	7f 4f       	sbci	r23, 0xFF	; 255

00009670 <__divmodhi4_exit>:
    9670:	08 95       	ret

00009672 <__udivmodsi4>:
    9672:	a1 e2       	ldi	r26, 0x21	; 33
    9674:	1a 2e       	mov	r1, r26
    9676:	aa 1b       	sub	r26, r26
    9678:	bb 1b       	sub	r27, r27
    967a:	fd 01       	movw	r30, r26
    967c:	0d c0       	rjmp	.+26     	; 0x9698 <__udivmodsi4_ep>

0000967e <__udivmodsi4_loop>:
    967e:	aa 1f       	adc	r26, r26
    9680:	bb 1f       	adc	r27, r27
    9682:	ee 1f       	adc	r30, r30
    9684:	ff 1f       	adc	r31, r31
    9686:	a2 17       	cp	r26, r18
    9688:	b3 07       	cpc	r27, r19
    968a:	e4 07       	cpc	r30, r20
    968c:	f5 07       	cpc	r31, r21
    968e:	20 f0       	brcs	.+8      	; 0x9698 <__udivmodsi4_ep>
    9690:	a2 1b       	sub	r26, r18
    9692:	b3 0b       	sbc	r27, r19
    9694:	e4 0b       	sbc	r30, r20
    9696:	f5 0b       	sbc	r31, r21

00009698 <__udivmodsi4_ep>:
    9698:	66 1f       	adc	r22, r22
    969a:	77 1f       	adc	r23, r23
    969c:	88 1f       	adc	r24, r24
    969e:	99 1f       	adc	r25, r25
    96a0:	1a 94       	dec	r1
    96a2:	69 f7       	brne	.-38     	; 0x967e <__udivmodsi4_loop>
    96a4:	60 95       	com	r22
    96a6:	70 95       	com	r23
    96a8:	80 95       	com	r24
    96aa:	90 95       	com	r25
    96ac:	9b 01       	movw	r18, r22
    96ae:	ac 01       	movw	r20, r24
    96b0:	bd 01       	movw	r22, r26
    96b2:	cf 01       	movw	r24, r30
    96b4:	08 95       	ret

000096b6 <__tablejump2__>:
    96b6:	ee 0f       	add	r30, r30
    96b8:	ff 1f       	adc	r31, r31
    96ba:	88 1f       	adc	r24, r24
    96bc:	8b bf       	out	0x3b, r24	; 59
    96be:	07 90       	elpm	r0, Z+
    96c0:	f6 91       	elpm	r31, Z
    96c2:	e0 2d       	mov	r30, r0
    96c4:	19 94       	eijmp

000096c6 <__umulhisi3>:
    96c6:	a2 9f       	mul	r26, r18
    96c8:	b0 01       	movw	r22, r0
    96ca:	b3 9f       	mul	r27, r19
    96cc:	c0 01       	movw	r24, r0
    96ce:	a3 9f       	mul	r26, r19
    96d0:	70 0d       	add	r23, r0
    96d2:	81 1d       	adc	r24, r1
    96d4:	11 24       	eor	r1, r1
    96d6:	91 1d       	adc	r25, r1
    96d8:	b2 9f       	mul	r27, r18
    96da:	70 0d       	add	r23, r0
    96dc:	81 1d       	adc	r24, r1
    96de:	11 24       	eor	r1, r1
    96e0:	91 1d       	adc	r25, r1
    96e2:	08 95       	ret

000096e4 <__udivmodhi4>:
    96e4:	aa 1b       	sub	r26, r26
    96e6:	bb 1b       	sub	r27, r27
    96e8:	51 e1       	ldi	r21, 0x11	; 17
    96ea:	07 c0       	rjmp	.+14     	; 0x96fa <__udivmodhi4_ep>

000096ec <__udivmodhi4_loop>:
    96ec:	aa 1f       	adc	r26, r26
    96ee:	bb 1f       	adc	r27, r27
    96f0:	a6 17       	cp	r26, r22
    96f2:	b7 07       	cpc	r27, r23
    96f4:	10 f0       	brcs	.+4      	; 0x96fa <__udivmodhi4_ep>
    96f6:	a6 1b       	sub	r26, r22
    96f8:	b7 0b       	sbc	r27, r23

000096fa <__udivmodhi4_ep>:
    96fa:	88 1f       	adc	r24, r24
    96fc:	99 1f       	adc	r25, r25
    96fe:	5a 95       	dec	r21
    9700:	a9 f7       	brne	.-22     	; 0x96ec <__udivmodhi4_loop>
    9702:	80 95       	com	r24
    9704:	90 95       	com	r25
    9706:	bc 01       	movw	r22, r24
    9708:	cd 01       	movw	r24, r26
    970a:	08 95       	ret

0000970c <malloc>:
    970c:	0f 93       	push	r16
    970e:	1f 93       	push	r17
    9710:	cf 93       	push	r28
    9712:	df 93       	push	r29
    9714:	82 30       	cpi	r24, 0x02	; 2
    9716:	91 05       	cpc	r25, r1
    9718:	10 f4       	brcc	.+4      	; 0x971e <malloc+0x12>
    971a:	82 e0       	ldi	r24, 0x02	; 2
    971c:	90 e0       	ldi	r25, 0x00	; 0
    971e:	e0 91 33 22 	lds	r30, 0x2233	; 0x802233 <__flp>
    9722:	f0 91 34 22 	lds	r31, 0x2234	; 0x802234 <__flp+0x1>
    9726:	20 e0       	ldi	r18, 0x00	; 0
    9728:	30 e0       	ldi	r19, 0x00	; 0
    972a:	a0 e0       	ldi	r26, 0x00	; 0
    972c:	b0 e0       	ldi	r27, 0x00	; 0
    972e:	30 97       	sbiw	r30, 0x00	; 0
    9730:	19 f1       	breq	.+70     	; 0x9778 <malloc+0x6c>
    9732:	40 81       	ld	r20, Z
    9734:	51 81       	ldd	r21, Z+1	; 0x01
    9736:	02 81       	ldd	r16, Z+2	; 0x02
    9738:	13 81       	ldd	r17, Z+3	; 0x03
    973a:	48 17       	cp	r20, r24
    973c:	59 07       	cpc	r21, r25
    973e:	c8 f0       	brcs	.+50     	; 0x9772 <malloc+0x66>
    9740:	84 17       	cp	r24, r20
    9742:	95 07       	cpc	r25, r21
    9744:	69 f4       	brne	.+26     	; 0x9760 <malloc+0x54>
    9746:	10 97       	sbiw	r26, 0x00	; 0
    9748:	31 f0       	breq	.+12     	; 0x9756 <malloc+0x4a>
    974a:	12 96       	adiw	r26, 0x02	; 2
    974c:	0c 93       	st	X, r16
    974e:	12 97       	sbiw	r26, 0x02	; 2
    9750:	13 96       	adiw	r26, 0x03	; 3
    9752:	1c 93       	st	X, r17
    9754:	27 c0       	rjmp	.+78     	; 0x97a4 <malloc+0x98>
    9756:	00 93 33 22 	sts	0x2233, r16	; 0x802233 <__flp>
    975a:	10 93 34 22 	sts	0x2234, r17	; 0x802234 <__flp+0x1>
    975e:	22 c0       	rjmp	.+68     	; 0x97a4 <malloc+0x98>
    9760:	21 15       	cp	r18, r1
    9762:	31 05       	cpc	r19, r1
    9764:	19 f0       	breq	.+6      	; 0x976c <malloc+0x60>
    9766:	42 17       	cp	r20, r18
    9768:	53 07       	cpc	r21, r19
    976a:	18 f4       	brcc	.+6      	; 0x9772 <malloc+0x66>
    976c:	9a 01       	movw	r18, r20
    976e:	bd 01       	movw	r22, r26
    9770:	ef 01       	movw	r28, r30
    9772:	df 01       	movw	r26, r30
    9774:	f8 01       	movw	r30, r16
    9776:	db cf       	rjmp	.-74     	; 0x972e <malloc+0x22>
    9778:	21 15       	cp	r18, r1
    977a:	31 05       	cpc	r19, r1
    977c:	f9 f0       	breq	.+62     	; 0x97bc <malloc+0xb0>
    977e:	28 1b       	sub	r18, r24
    9780:	39 0b       	sbc	r19, r25
    9782:	24 30       	cpi	r18, 0x04	; 4
    9784:	31 05       	cpc	r19, r1
    9786:	80 f4       	brcc	.+32     	; 0x97a8 <malloc+0x9c>
    9788:	8a 81       	ldd	r24, Y+2	; 0x02
    978a:	9b 81       	ldd	r25, Y+3	; 0x03
    978c:	61 15       	cp	r22, r1
    978e:	71 05       	cpc	r23, r1
    9790:	21 f0       	breq	.+8      	; 0x979a <malloc+0x8e>
    9792:	fb 01       	movw	r30, r22
    9794:	82 83       	std	Z+2, r24	; 0x02
    9796:	93 83       	std	Z+3, r25	; 0x03
    9798:	04 c0       	rjmp	.+8      	; 0x97a2 <malloc+0x96>
    979a:	80 93 33 22 	sts	0x2233, r24	; 0x802233 <__flp>
    979e:	90 93 34 22 	sts	0x2234, r25	; 0x802234 <__flp+0x1>
    97a2:	fe 01       	movw	r30, r28
    97a4:	32 96       	adiw	r30, 0x02	; 2
    97a6:	44 c0       	rjmp	.+136    	; 0x9830 <malloc+0x124>
    97a8:	fe 01       	movw	r30, r28
    97aa:	e2 0f       	add	r30, r18
    97ac:	f3 1f       	adc	r31, r19
    97ae:	81 93       	st	Z+, r24
    97b0:	91 93       	st	Z+, r25
    97b2:	22 50       	subi	r18, 0x02	; 2
    97b4:	31 09       	sbc	r19, r1
    97b6:	28 83       	st	Y, r18
    97b8:	39 83       	std	Y+1, r19	; 0x01
    97ba:	3a c0       	rjmp	.+116    	; 0x9830 <malloc+0x124>
    97bc:	20 91 31 22 	lds	r18, 0x2231	; 0x802231 <__brkval>
    97c0:	30 91 32 22 	lds	r19, 0x2232	; 0x802232 <__brkval+0x1>
    97c4:	23 2b       	or	r18, r19
    97c6:	41 f4       	brne	.+16     	; 0x97d8 <malloc+0xcc>
    97c8:	20 91 02 20 	lds	r18, 0x2002	; 0x802002 <__malloc_heap_start>
    97cc:	30 91 03 20 	lds	r19, 0x2003	; 0x802003 <__malloc_heap_start+0x1>
    97d0:	20 93 31 22 	sts	0x2231, r18	; 0x802231 <__brkval>
    97d4:	30 93 32 22 	sts	0x2232, r19	; 0x802232 <__brkval+0x1>
    97d8:	20 91 00 20 	lds	r18, 0x2000	; 0x802000 <__DATA_REGION_ORIGIN__>
    97dc:	30 91 01 20 	lds	r19, 0x2001	; 0x802001 <__DATA_REGION_ORIGIN__+0x1>
    97e0:	21 15       	cp	r18, r1
    97e2:	31 05       	cpc	r19, r1
    97e4:	41 f4       	brne	.+16     	; 0x97f6 <malloc+0xea>
    97e6:	2d b7       	in	r18, 0x3d	; 61
    97e8:	3e b7       	in	r19, 0x3e	; 62
    97ea:	40 91 04 20 	lds	r20, 0x2004	; 0x802004 <__malloc_margin>
    97ee:	50 91 05 20 	lds	r21, 0x2005	; 0x802005 <__malloc_margin+0x1>
    97f2:	24 1b       	sub	r18, r20
    97f4:	35 0b       	sbc	r19, r21
    97f6:	e0 91 31 22 	lds	r30, 0x2231	; 0x802231 <__brkval>
    97fa:	f0 91 32 22 	lds	r31, 0x2232	; 0x802232 <__brkval+0x1>
    97fe:	e2 17       	cp	r30, r18
    9800:	f3 07       	cpc	r31, r19
    9802:	a0 f4       	brcc	.+40     	; 0x982c <malloc+0x120>
    9804:	2e 1b       	sub	r18, r30
    9806:	3f 0b       	sbc	r19, r31
    9808:	28 17       	cp	r18, r24
    980a:	39 07       	cpc	r19, r25
    980c:	78 f0       	brcs	.+30     	; 0x982c <malloc+0x120>
    980e:	ac 01       	movw	r20, r24
    9810:	4e 5f       	subi	r20, 0xFE	; 254
    9812:	5f 4f       	sbci	r21, 0xFF	; 255
    9814:	24 17       	cp	r18, r20
    9816:	35 07       	cpc	r19, r21
    9818:	48 f0       	brcs	.+18     	; 0x982c <malloc+0x120>
    981a:	4e 0f       	add	r20, r30
    981c:	5f 1f       	adc	r21, r31
    981e:	40 93 31 22 	sts	0x2231, r20	; 0x802231 <__brkval>
    9822:	50 93 32 22 	sts	0x2232, r21	; 0x802232 <__brkval+0x1>
    9826:	81 93       	st	Z+, r24
    9828:	91 93       	st	Z+, r25
    982a:	02 c0       	rjmp	.+4      	; 0x9830 <malloc+0x124>
    982c:	e0 e0       	ldi	r30, 0x00	; 0
    982e:	f0 e0       	ldi	r31, 0x00	; 0
    9830:	cf 01       	movw	r24, r30
    9832:	df 91       	pop	r29
    9834:	cf 91       	pop	r28
    9836:	1f 91       	pop	r17
    9838:	0f 91       	pop	r16
    983a:	08 95       	ret

0000983c <free>:
    983c:	cf 93       	push	r28
    983e:	df 93       	push	r29
    9840:	00 97       	sbiw	r24, 0x00	; 0
    9842:	09 f4       	brne	.+2      	; 0x9846 <free+0xa>
    9844:	81 c0       	rjmp	.+258    	; 0x9948 <free+0x10c>
    9846:	fc 01       	movw	r30, r24
    9848:	32 97       	sbiw	r30, 0x02	; 2
    984a:	12 82       	std	Z+2, r1	; 0x02
    984c:	13 82       	std	Z+3, r1	; 0x03
    984e:	a0 91 33 22 	lds	r26, 0x2233	; 0x802233 <__flp>
    9852:	b0 91 34 22 	lds	r27, 0x2234	; 0x802234 <__flp+0x1>
    9856:	10 97       	sbiw	r26, 0x00	; 0
    9858:	81 f4       	brne	.+32     	; 0x987a <free+0x3e>
    985a:	20 81       	ld	r18, Z
    985c:	31 81       	ldd	r19, Z+1	; 0x01
    985e:	82 0f       	add	r24, r18
    9860:	93 1f       	adc	r25, r19
    9862:	20 91 31 22 	lds	r18, 0x2231	; 0x802231 <__brkval>
    9866:	30 91 32 22 	lds	r19, 0x2232	; 0x802232 <__brkval+0x1>
    986a:	28 17       	cp	r18, r24
    986c:	39 07       	cpc	r19, r25
    986e:	51 f5       	brne	.+84     	; 0x98c4 <free+0x88>
    9870:	e0 93 31 22 	sts	0x2231, r30	; 0x802231 <__brkval>
    9874:	f0 93 32 22 	sts	0x2232, r31	; 0x802232 <__brkval+0x1>
    9878:	67 c0       	rjmp	.+206    	; 0x9948 <free+0x10c>
    987a:	ed 01       	movw	r28, r26
    987c:	20 e0       	ldi	r18, 0x00	; 0
    987e:	30 e0       	ldi	r19, 0x00	; 0
    9880:	ce 17       	cp	r28, r30
    9882:	df 07       	cpc	r29, r31
    9884:	40 f4       	brcc	.+16     	; 0x9896 <free+0x5a>
    9886:	4a 81       	ldd	r20, Y+2	; 0x02
    9888:	5b 81       	ldd	r21, Y+3	; 0x03
    988a:	9e 01       	movw	r18, r28
    988c:	41 15       	cp	r20, r1
    988e:	51 05       	cpc	r21, r1
    9890:	f1 f0       	breq	.+60     	; 0x98ce <free+0x92>
    9892:	ea 01       	movw	r28, r20
    9894:	f5 cf       	rjmp	.-22     	; 0x9880 <free+0x44>
    9896:	c2 83       	std	Z+2, r28	; 0x02
    9898:	d3 83       	std	Z+3, r29	; 0x03
    989a:	40 81       	ld	r20, Z
    989c:	51 81       	ldd	r21, Z+1	; 0x01
    989e:	84 0f       	add	r24, r20
    98a0:	95 1f       	adc	r25, r21
    98a2:	c8 17       	cp	r28, r24
    98a4:	d9 07       	cpc	r29, r25
    98a6:	59 f4       	brne	.+22     	; 0x98be <free+0x82>
    98a8:	88 81       	ld	r24, Y
    98aa:	99 81       	ldd	r25, Y+1	; 0x01
    98ac:	84 0f       	add	r24, r20
    98ae:	95 1f       	adc	r25, r21
    98b0:	02 96       	adiw	r24, 0x02	; 2
    98b2:	80 83       	st	Z, r24
    98b4:	91 83       	std	Z+1, r25	; 0x01
    98b6:	8a 81       	ldd	r24, Y+2	; 0x02
    98b8:	9b 81       	ldd	r25, Y+3	; 0x03
    98ba:	82 83       	std	Z+2, r24	; 0x02
    98bc:	93 83       	std	Z+3, r25	; 0x03
    98be:	21 15       	cp	r18, r1
    98c0:	31 05       	cpc	r19, r1
    98c2:	29 f4       	brne	.+10     	; 0x98ce <free+0x92>
    98c4:	e0 93 33 22 	sts	0x2233, r30	; 0x802233 <__flp>
    98c8:	f0 93 34 22 	sts	0x2234, r31	; 0x802234 <__flp+0x1>
    98cc:	3d c0       	rjmp	.+122    	; 0x9948 <free+0x10c>
    98ce:	e9 01       	movw	r28, r18
    98d0:	ea 83       	std	Y+2, r30	; 0x02
    98d2:	fb 83       	std	Y+3, r31	; 0x03
    98d4:	49 91       	ld	r20, Y+
    98d6:	59 91       	ld	r21, Y+
    98d8:	c4 0f       	add	r28, r20
    98da:	d5 1f       	adc	r29, r21
    98dc:	ec 17       	cp	r30, r28
    98de:	fd 07       	cpc	r31, r29
    98e0:	61 f4       	brne	.+24     	; 0x98fa <free+0xbe>
    98e2:	80 81       	ld	r24, Z
    98e4:	91 81       	ldd	r25, Z+1	; 0x01
    98e6:	84 0f       	add	r24, r20
    98e8:	95 1f       	adc	r25, r21
    98ea:	02 96       	adiw	r24, 0x02	; 2
    98ec:	e9 01       	movw	r28, r18
    98ee:	88 83       	st	Y, r24
    98f0:	99 83       	std	Y+1, r25	; 0x01
    98f2:	82 81       	ldd	r24, Z+2	; 0x02
    98f4:	93 81       	ldd	r25, Z+3	; 0x03
    98f6:	8a 83       	std	Y+2, r24	; 0x02
    98f8:	9b 83       	std	Y+3, r25	; 0x03
    98fa:	e0 e0       	ldi	r30, 0x00	; 0
    98fc:	f0 e0       	ldi	r31, 0x00	; 0
    98fe:	12 96       	adiw	r26, 0x02	; 2
    9900:	8d 91       	ld	r24, X+
    9902:	9c 91       	ld	r25, X
    9904:	13 97       	sbiw	r26, 0x03	; 3
    9906:	00 97       	sbiw	r24, 0x00	; 0
    9908:	19 f0       	breq	.+6      	; 0x9910 <free+0xd4>
    990a:	fd 01       	movw	r30, r26
    990c:	dc 01       	movw	r26, r24
    990e:	f7 cf       	rjmp	.-18     	; 0x98fe <free+0xc2>
    9910:	8d 91       	ld	r24, X+
    9912:	9c 91       	ld	r25, X
    9914:	11 97       	sbiw	r26, 0x01	; 1
    9916:	9d 01       	movw	r18, r26
    9918:	2e 5f       	subi	r18, 0xFE	; 254
    991a:	3f 4f       	sbci	r19, 0xFF	; 255
    991c:	82 0f       	add	r24, r18
    991e:	93 1f       	adc	r25, r19
    9920:	20 91 31 22 	lds	r18, 0x2231	; 0x802231 <__brkval>
    9924:	30 91 32 22 	lds	r19, 0x2232	; 0x802232 <__brkval+0x1>
    9928:	28 17       	cp	r18, r24
    992a:	39 07       	cpc	r19, r25
    992c:	69 f4       	brne	.+26     	; 0x9948 <free+0x10c>
    992e:	30 97       	sbiw	r30, 0x00	; 0
    9930:	29 f4       	brne	.+10     	; 0x993c <free+0x100>
    9932:	10 92 33 22 	sts	0x2233, r1	; 0x802233 <__flp>
    9936:	10 92 34 22 	sts	0x2234, r1	; 0x802234 <__flp+0x1>
    993a:	02 c0       	rjmp	.+4      	; 0x9940 <free+0x104>
    993c:	12 82       	std	Z+2, r1	; 0x02
    993e:	13 82       	std	Z+3, r1	; 0x03
    9940:	a0 93 31 22 	sts	0x2231, r26	; 0x802231 <__brkval>
    9944:	b0 93 32 22 	sts	0x2232, r27	; 0x802232 <__brkval+0x1>
    9948:	df 91       	pop	r29
    994a:	cf 91       	pop	r28
    994c:	08 95       	ret

0000994e <memcpy>:
    994e:	fb 01       	movw	r30, r22
    9950:	dc 01       	movw	r26, r24
    9952:	02 c0       	rjmp	.+4      	; 0x9958 <memcpy+0xa>
    9954:	01 90       	ld	r0, Z+
    9956:	0d 92       	st	X+, r0
    9958:	41 50       	subi	r20, 0x01	; 1
    995a:	50 40       	sbci	r21, 0x00	; 0
    995c:	d8 f7       	brcc	.-10     	; 0x9954 <memcpy+0x6>
    995e:	08 95       	ret

00009960 <fdevopen>:
    9960:	0f 93       	push	r16
    9962:	1f 93       	push	r17
    9964:	cf 93       	push	r28
    9966:	df 93       	push	r29
    9968:	00 97       	sbiw	r24, 0x00	; 0
    996a:	31 f4       	brne	.+12     	; 0x9978 <fdevopen+0x18>
    996c:	61 15       	cp	r22, r1
    996e:	71 05       	cpc	r23, r1
    9970:	19 f4       	brne	.+6      	; 0x9978 <fdevopen+0x18>
    9972:	80 e0       	ldi	r24, 0x00	; 0
    9974:	90 e0       	ldi	r25, 0x00	; 0
    9976:	3a c0       	rjmp	.+116    	; 0x99ec <fdevopen+0x8c>
    9978:	8b 01       	movw	r16, r22
    997a:	ec 01       	movw	r28, r24
    997c:	6e e0       	ldi	r22, 0x0E	; 14
    997e:	70 e0       	ldi	r23, 0x00	; 0
    9980:	81 e0       	ldi	r24, 0x01	; 1
    9982:	90 e0       	ldi	r25, 0x00	; 0
    9984:	0e 94 13 4f 	call	0x9e26	; 0x9e26 <calloc>
    9988:	fc 01       	movw	r30, r24
    998a:	89 2b       	or	r24, r25
    998c:	91 f3       	breq	.-28     	; 0x9972 <fdevopen+0x12>
    998e:	80 e8       	ldi	r24, 0x80	; 128
    9990:	83 83       	std	Z+3, r24	; 0x03
    9992:	01 15       	cp	r16, r1
    9994:	11 05       	cpc	r17, r1
    9996:	71 f0       	breq	.+28     	; 0x99b4 <fdevopen+0x54>
    9998:	02 87       	std	Z+10, r16	; 0x0a
    999a:	13 87       	std	Z+11, r17	; 0x0b
    999c:	81 e8       	ldi	r24, 0x81	; 129
    999e:	83 83       	std	Z+3, r24	; 0x03
    99a0:	80 91 35 22 	lds	r24, 0x2235	; 0x802235 <__iob>
    99a4:	90 91 36 22 	lds	r25, 0x2236	; 0x802236 <__iob+0x1>
    99a8:	89 2b       	or	r24, r25
    99aa:	21 f4       	brne	.+8      	; 0x99b4 <fdevopen+0x54>
    99ac:	e0 93 35 22 	sts	0x2235, r30	; 0x802235 <__iob>
    99b0:	f0 93 36 22 	sts	0x2236, r31	; 0x802236 <__iob+0x1>
    99b4:	20 97       	sbiw	r28, 0x00	; 0
    99b6:	c9 f0       	breq	.+50     	; 0x99ea <fdevopen+0x8a>
    99b8:	c0 87       	std	Z+8, r28	; 0x08
    99ba:	d1 87       	std	Z+9, r29	; 0x09
    99bc:	83 81       	ldd	r24, Z+3	; 0x03
    99be:	82 60       	ori	r24, 0x02	; 2
    99c0:	83 83       	std	Z+3, r24	; 0x03
    99c2:	80 91 37 22 	lds	r24, 0x2237	; 0x802237 <__iob+0x2>
    99c6:	90 91 38 22 	lds	r25, 0x2238	; 0x802238 <__iob+0x3>
    99ca:	89 2b       	or	r24, r25
    99cc:	71 f4       	brne	.+28     	; 0x99ea <fdevopen+0x8a>
    99ce:	e0 93 37 22 	sts	0x2237, r30	; 0x802237 <__iob+0x2>
    99d2:	f0 93 38 22 	sts	0x2238, r31	; 0x802238 <__iob+0x3>
    99d6:	80 91 39 22 	lds	r24, 0x2239	; 0x802239 <__iob+0x4>
    99da:	90 91 3a 22 	lds	r25, 0x223A	; 0x80223a <__iob+0x5>
    99de:	89 2b       	or	r24, r25
    99e0:	21 f4       	brne	.+8      	; 0x99ea <fdevopen+0x8a>
    99e2:	e0 93 39 22 	sts	0x2239, r30	; 0x802239 <__iob+0x4>
    99e6:	f0 93 3a 22 	sts	0x223A, r31	; 0x80223a <__iob+0x5>
    99ea:	cf 01       	movw	r24, r30
    99ec:	df 91       	pop	r29
    99ee:	cf 91       	pop	r28
    99f0:	1f 91       	pop	r17
    99f2:	0f 91       	pop	r16
    99f4:	08 95       	ret

000099f6 <printf>:
    99f6:	cf 93       	push	r28
    99f8:	df 93       	push	r29
    99fa:	cd b7       	in	r28, 0x3d	; 61
    99fc:	de b7       	in	r29, 0x3e	; 62
    99fe:	ae 01       	movw	r20, r28
    9a00:	4a 5f       	subi	r20, 0xFA	; 250
    9a02:	5f 4f       	sbci	r21, 0xFF	; 255
    9a04:	fa 01       	movw	r30, r20
    9a06:	61 91       	ld	r22, Z+
    9a08:	71 91       	ld	r23, Z+
    9a0a:	af 01       	movw	r20, r30
    9a0c:	80 91 37 22 	lds	r24, 0x2237	; 0x802237 <__iob+0x2>
    9a10:	90 91 38 22 	lds	r25, 0x2238	; 0x802238 <__iob+0x3>
    9a14:	0e 94 0f 4d 	call	0x9a1e	; 0x9a1e <vfprintf>
    9a18:	df 91       	pop	r29
    9a1a:	cf 91       	pop	r28
    9a1c:	08 95       	ret

00009a1e <vfprintf>:
    9a1e:	2f 92       	push	r2
    9a20:	3f 92       	push	r3
    9a22:	4f 92       	push	r4
    9a24:	5f 92       	push	r5
    9a26:	6f 92       	push	r6
    9a28:	7f 92       	push	r7
    9a2a:	8f 92       	push	r8
    9a2c:	9f 92       	push	r9
    9a2e:	af 92       	push	r10
    9a30:	bf 92       	push	r11
    9a32:	cf 92       	push	r12
    9a34:	df 92       	push	r13
    9a36:	ef 92       	push	r14
    9a38:	ff 92       	push	r15
    9a3a:	0f 93       	push	r16
    9a3c:	1f 93       	push	r17
    9a3e:	cf 93       	push	r28
    9a40:	df 93       	push	r29
    9a42:	cd b7       	in	r28, 0x3d	; 61
    9a44:	de b7       	in	r29, 0x3e	; 62
    9a46:	2b 97       	sbiw	r28, 0x0b	; 11
    9a48:	cd bf       	out	0x3d, r28	; 61
    9a4a:	de bf       	out	0x3e, r29	; 62
    9a4c:	6c 01       	movw	r12, r24
    9a4e:	7b 01       	movw	r14, r22
    9a50:	8a 01       	movw	r16, r20
    9a52:	fc 01       	movw	r30, r24
    9a54:	16 82       	std	Z+6, r1	; 0x06
    9a56:	17 82       	std	Z+7, r1	; 0x07
    9a58:	83 81       	ldd	r24, Z+3	; 0x03
    9a5a:	81 ff       	sbrs	r24, 1
    9a5c:	cc c1       	rjmp	.+920    	; 0x9df6 <vfprintf+0x3d8>
    9a5e:	ce 01       	movw	r24, r28
    9a60:	01 96       	adiw	r24, 0x01	; 1
    9a62:	3c 01       	movw	r6, r24
    9a64:	f6 01       	movw	r30, r12
    9a66:	93 81       	ldd	r25, Z+3	; 0x03
    9a68:	f7 01       	movw	r30, r14
    9a6a:	93 fd       	sbrc	r25, 3
    9a6c:	85 91       	lpm	r24, Z+
    9a6e:	93 ff       	sbrs	r25, 3
    9a70:	81 91       	ld	r24, Z+
    9a72:	7f 01       	movw	r14, r30
    9a74:	88 23       	and	r24, r24
    9a76:	09 f4       	brne	.+2      	; 0x9a7a <vfprintf+0x5c>
    9a78:	ba c1       	rjmp	.+884    	; 0x9dee <vfprintf+0x3d0>
    9a7a:	85 32       	cpi	r24, 0x25	; 37
    9a7c:	39 f4       	brne	.+14     	; 0x9a8c <vfprintf+0x6e>
    9a7e:	93 fd       	sbrc	r25, 3
    9a80:	85 91       	lpm	r24, Z+
    9a82:	93 ff       	sbrs	r25, 3
    9a84:	81 91       	ld	r24, Z+
    9a86:	7f 01       	movw	r14, r30
    9a88:	85 32       	cpi	r24, 0x25	; 37
    9a8a:	29 f4       	brne	.+10     	; 0x9a96 <vfprintf+0x78>
    9a8c:	b6 01       	movw	r22, r12
    9a8e:	90 e0       	ldi	r25, 0x00	; 0
    9a90:	0e 94 4c 4f 	call	0x9e98	; 0x9e98 <fputc>
    9a94:	e7 cf       	rjmp	.-50     	; 0x9a64 <vfprintf+0x46>
    9a96:	91 2c       	mov	r9, r1
    9a98:	21 2c       	mov	r2, r1
    9a9a:	31 2c       	mov	r3, r1
    9a9c:	ff e1       	ldi	r31, 0x1F	; 31
    9a9e:	f3 15       	cp	r31, r3
    9aa0:	d8 f0       	brcs	.+54     	; 0x9ad8 <vfprintf+0xba>
    9aa2:	8b 32       	cpi	r24, 0x2B	; 43
    9aa4:	79 f0       	breq	.+30     	; 0x9ac4 <vfprintf+0xa6>
    9aa6:	38 f4       	brcc	.+14     	; 0x9ab6 <vfprintf+0x98>
    9aa8:	80 32       	cpi	r24, 0x20	; 32
    9aaa:	79 f0       	breq	.+30     	; 0x9aca <vfprintf+0xac>
    9aac:	83 32       	cpi	r24, 0x23	; 35
    9aae:	a1 f4       	brne	.+40     	; 0x9ad8 <vfprintf+0xba>
    9ab0:	23 2d       	mov	r18, r3
    9ab2:	20 61       	ori	r18, 0x10	; 16
    9ab4:	1d c0       	rjmp	.+58     	; 0x9af0 <vfprintf+0xd2>
    9ab6:	8d 32       	cpi	r24, 0x2D	; 45
    9ab8:	61 f0       	breq	.+24     	; 0x9ad2 <vfprintf+0xb4>
    9aba:	80 33       	cpi	r24, 0x30	; 48
    9abc:	69 f4       	brne	.+26     	; 0x9ad8 <vfprintf+0xba>
    9abe:	23 2d       	mov	r18, r3
    9ac0:	21 60       	ori	r18, 0x01	; 1
    9ac2:	16 c0       	rjmp	.+44     	; 0x9af0 <vfprintf+0xd2>
    9ac4:	83 2d       	mov	r24, r3
    9ac6:	82 60       	ori	r24, 0x02	; 2
    9ac8:	38 2e       	mov	r3, r24
    9aca:	e3 2d       	mov	r30, r3
    9acc:	e4 60       	ori	r30, 0x04	; 4
    9ace:	3e 2e       	mov	r3, r30
    9ad0:	2a c0       	rjmp	.+84     	; 0x9b26 <vfprintf+0x108>
    9ad2:	f3 2d       	mov	r31, r3
    9ad4:	f8 60       	ori	r31, 0x08	; 8
    9ad6:	1d c0       	rjmp	.+58     	; 0x9b12 <vfprintf+0xf4>
    9ad8:	37 fc       	sbrc	r3, 7
    9ada:	2d c0       	rjmp	.+90     	; 0x9b36 <vfprintf+0x118>
    9adc:	20 ed       	ldi	r18, 0xD0	; 208
    9ade:	28 0f       	add	r18, r24
    9ae0:	2a 30       	cpi	r18, 0x0A	; 10
    9ae2:	40 f0       	brcs	.+16     	; 0x9af4 <vfprintf+0xd6>
    9ae4:	8e 32       	cpi	r24, 0x2E	; 46
    9ae6:	b9 f4       	brne	.+46     	; 0x9b16 <vfprintf+0xf8>
    9ae8:	36 fc       	sbrc	r3, 6
    9aea:	81 c1       	rjmp	.+770    	; 0x9dee <vfprintf+0x3d0>
    9aec:	23 2d       	mov	r18, r3
    9aee:	20 64       	ori	r18, 0x40	; 64
    9af0:	32 2e       	mov	r3, r18
    9af2:	19 c0       	rjmp	.+50     	; 0x9b26 <vfprintf+0x108>
    9af4:	36 fe       	sbrs	r3, 6
    9af6:	06 c0       	rjmp	.+12     	; 0x9b04 <vfprintf+0xe6>
    9af8:	8a e0       	ldi	r24, 0x0A	; 10
    9afa:	98 9e       	mul	r9, r24
    9afc:	20 0d       	add	r18, r0
    9afe:	11 24       	eor	r1, r1
    9b00:	92 2e       	mov	r9, r18
    9b02:	11 c0       	rjmp	.+34     	; 0x9b26 <vfprintf+0x108>
    9b04:	ea e0       	ldi	r30, 0x0A	; 10
    9b06:	2e 9e       	mul	r2, r30
    9b08:	20 0d       	add	r18, r0
    9b0a:	11 24       	eor	r1, r1
    9b0c:	22 2e       	mov	r2, r18
    9b0e:	f3 2d       	mov	r31, r3
    9b10:	f0 62       	ori	r31, 0x20	; 32
    9b12:	3f 2e       	mov	r3, r31
    9b14:	08 c0       	rjmp	.+16     	; 0x9b26 <vfprintf+0x108>
    9b16:	8c 36       	cpi	r24, 0x6C	; 108
    9b18:	21 f4       	brne	.+8      	; 0x9b22 <vfprintf+0x104>
    9b1a:	83 2d       	mov	r24, r3
    9b1c:	80 68       	ori	r24, 0x80	; 128
    9b1e:	38 2e       	mov	r3, r24
    9b20:	02 c0       	rjmp	.+4      	; 0x9b26 <vfprintf+0x108>
    9b22:	88 36       	cpi	r24, 0x68	; 104
    9b24:	41 f4       	brne	.+16     	; 0x9b36 <vfprintf+0x118>
    9b26:	f7 01       	movw	r30, r14
    9b28:	93 fd       	sbrc	r25, 3
    9b2a:	85 91       	lpm	r24, Z+
    9b2c:	93 ff       	sbrs	r25, 3
    9b2e:	81 91       	ld	r24, Z+
    9b30:	7f 01       	movw	r14, r30
    9b32:	81 11       	cpse	r24, r1
    9b34:	b3 cf       	rjmp	.-154    	; 0x9a9c <vfprintf+0x7e>
    9b36:	98 2f       	mov	r25, r24
    9b38:	9f 7d       	andi	r25, 0xDF	; 223
    9b3a:	95 54       	subi	r25, 0x45	; 69
    9b3c:	93 30       	cpi	r25, 0x03	; 3
    9b3e:	28 f4       	brcc	.+10     	; 0x9b4a <vfprintf+0x12c>
    9b40:	0c 5f       	subi	r16, 0xFC	; 252
    9b42:	1f 4f       	sbci	r17, 0xFF	; 255
    9b44:	9f e3       	ldi	r25, 0x3F	; 63
    9b46:	99 83       	std	Y+1, r25	; 0x01
    9b48:	0d c0       	rjmp	.+26     	; 0x9b64 <vfprintf+0x146>
    9b4a:	83 36       	cpi	r24, 0x63	; 99
    9b4c:	31 f0       	breq	.+12     	; 0x9b5a <vfprintf+0x13c>
    9b4e:	83 37       	cpi	r24, 0x73	; 115
    9b50:	71 f0       	breq	.+28     	; 0x9b6e <vfprintf+0x150>
    9b52:	83 35       	cpi	r24, 0x53	; 83
    9b54:	09 f0       	breq	.+2      	; 0x9b58 <vfprintf+0x13a>
    9b56:	59 c0       	rjmp	.+178    	; 0x9c0a <vfprintf+0x1ec>
    9b58:	21 c0       	rjmp	.+66     	; 0x9b9c <vfprintf+0x17e>
    9b5a:	f8 01       	movw	r30, r16
    9b5c:	80 81       	ld	r24, Z
    9b5e:	89 83       	std	Y+1, r24	; 0x01
    9b60:	0e 5f       	subi	r16, 0xFE	; 254
    9b62:	1f 4f       	sbci	r17, 0xFF	; 255
    9b64:	88 24       	eor	r8, r8
    9b66:	83 94       	inc	r8
    9b68:	91 2c       	mov	r9, r1
    9b6a:	53 01       	movw	r10, r6
    9b6c:	13 c0       	rjmp	.+38     	; 0x9b94 <vfprintf+0x176>
    9b6e:	28 01       	movw	r4, r16
    9b70:	f2 e0       	ldi	r31, 0x02	; 2
    9b72:	4f 0e       	add	r4, r31
    9b74:	51 1c       	adc	r5, r1
    9b76:	f8 01       	movw	r30, r16
    9b78:	a0 80       	ld	r10, Z
    9b7a:	b1 80       	ldd	r11, Z+1	; 0x01
    9b7c:	36 fe       	sbrs	r3, 6
    9b7e:	03 c0       	rjmp	.+6      	; 0x9b86 <vfprintf+0x168>
    9b80:	69 2d       	mov	r22, r9
    9b82:	70 e0       	ldi	r23, 0x00	; 0
    9b84:	02 c0       	rjmp	.+4      	; 0x9b8a <vfprintf+0x16c>
    9b86:	6f ef       	ldi	r22, 0xFF	; 255
    9b88:	7f ef       	ldi	r23, 0xFF	; 255
    9b8a:	c5 01       	movw	r24, r10
    9b8c:	0e 94 41 4f 	call	0x9e82	; 0x9e82 <strnlen>
    9b90:	4c 01       	movw	r8, r24
    9b92:	82 01       	movw	r16, r4
    9b94:	f3 2d       	mov	r31, r3
    9b96:	ff 77       	andi	r31, 0x7F	; 127
    9b98:	3f 2e       	mov	r3, r31
    9b9a:	16 c0       	rjmp	.+44     	; 0x9bc8 <vfprintf+0x1aa>
    9b9c:	28 01       	movw	r4, r16
    9b9e:	22 e0       	ldi	r18, 0x02	; 2
    9ba0:	42 0e       	add	r4, r18
    9ba2:	51 1c       	adc	r5, r1
    9ba4:	f8 01       	movw	r30, r16
    9ba6:	a0 80       	ld	r10, Z
    9ba8:	b1 80       	ldd	r11, Z+1	; 0x01
    9baa:	36 fe       	sbrs	r3, 6
    9bac:	03 c0       	rjmp	.+6      	; 0x9bb4 <vfprintf+0x196>
    9bae:	69 2d       	mov	r22, r9
    9bb0:	70 e0       	ldi	r23, 0x00	; 0
    9bb2:	02 c0       	rjmp	.+4      	; 0x9bb8 <vfprintf+0x19a>
    9bb4:	6f ef       	ldi	r22, 0xFF	; 255
    9bb6:	7f ef       	ldi	r23, 0xFF	; 255
    9bb8:	c5 01       	movw	r24, r10
    9bba:	0e 94 2f 4f 	call	0x9e5e	; 0x9e5e <strnlen_P>
    9bbe:	4c 01       	movw	r8, r24
    9bc0:	f3 2d       	mov	r31, r3
    9bc2:	f0 68       	ori	r31, 0x80	; 128
    9bc4:	3f 2e       	mov	r3, r31
    9bc6:	82 01       	movw	r16, r4
    9bc8:	33 fc       	sbrc	r3, 3
    9bca:	1b c0       	rjmp	.+54     	; 0x9c02 <vfprintf+0x1e4>
    9bcc:	82 2d       	mov	r24, r2
    9bce:	90 e0       	ldi	r25, 0x00	; 0
    9bd0:	88 16       	cp	r8, r24
    9bd2:	99 06       	cpc	r9, r25
    9bd4:	b0 f4       	brcc	.+44     	; 0x9c02 <vfprintf+0x1e4>
    9bd6:	b6 01       	movw	r22, r12
    9bd8:	80 e2       	ldi	r24, 0x20	; 32
    9bda:	90 e0       	ldi	r25, 0x00	; 0
    9bdc:	0e 94 4c 4f 	call	0x9e98	; 0x9e98 <fputc>
    9be0:	2a 94       	dec	r2
    9be2:	f4 cf       	rjmp	.-24     	; 0x9bcc <vfprintf+0x1ae>
    9be4:	f5 01       	movw	r30, r10
    9be6:	37 fc       	sbrc	r3, 7
    9be8:	85 91       	lpm	r24, Z+
    9bea:	37 fe       	sbrs	r3, 7
    9bec:	81 91       	ld	r24, Z+
    9bee:	5f 01       	movw	r10, r30
    9bf0:	b6 01       	movw	r22, r12
    9bf2:	90 e0       	ldi	r25, 0x00	; 0
    9bf4:	0e 94 4c 4f 	call	0x9e98	; 0x9e98 <fputc>
    9bf8:	21 10       	cpse	r2, r1
    9bfa:	2a 94       	dec	r2
    9bfc:	21 e0       	ldi	r18, 0x01	; 1
    9bfe:	82 1a       	sub	r8, r18
    9c00:	91 08       	sbc	r9, r1
    9c02:	81 14       	cp	r8, r1
    9c04:	91 04       	cpc	r9, r1
    9c06:	71 f7       	brne	.-36     	; 0x9be4 <vfprintf+0x1c6>
    9c08:	e8 c0       	rjmp	.+464    	; 0x9dda <vfprintf+0x3bc>
    9c0a:	84 36       	cpi	r24, 0x64	; 100
    9c0c:	11 f0       	breq	.+4      	; 0x9c12 <vfprintf+0x1f4>
    9c0e:	89 36       	cpi	r24, 0x69	; 105
    9c10:	41 f5       	brne	.+80     	; 0x9c62 <vfprintf+0x244>
    9c12:	f8 01       	movw	r30, r16
    9c14:	37 fe       	sbrs	r3, 7
    9c16:	07 c0       	rjmp	.+14     	; 0x9c26 <vfprintf+0x208>
    9c18:	60 81       	ld	r22, Z
    9c1a:	71 81       	ldd	r23, Z+1	; 0x01
    9c1c:	82 81       	ldd	r24, Z+2	; 0x02
    9c1e:	93 81       	ldd	r25, Z+3	; 0x03
    9c20:	0c 5f       	subi	r16, 0xFC	; 252
    9c22:	1f 4f       	sbci	r17, 0xFF	; 255
    9c24:	08 c0       	rjmp	.+16     	; 0x9c36 <vfprintf+0x218>
    9c26:	60 81       	ld	r22, Z
    9c28:	71 81       	ldd	r23, Z+1	; 0x01
    9c2a:	07 2e       	mov	r0, r23
    9c2c:	00 0c       	add	r0, r0
    9c2e:	88 0b       	sbc	r24, r24
    9c30:	99 0b       	sbc	r25, r25
    9c32:	0e 5f       	subi	r16, 0xFE	; 254
    9c34:	1f 4f       	sbci	r17, 0xFF	; 255
    9c36:	f3 2d       	mov	r31, r3
    9c38:	ff 76       	andi	r31, 0x6F	; 111
    9c3a:	3f 2e       	mov	r3, r31
    9c3c:	97 ff       	sbrs	r25, 7
    9c3e:	09 c0       	rjmp	.+18     	; 0x9c52 <vfprintf+0x234>
    9c40:	90 95       	com	r25
    9c42:	80 95       	com	r24
    9c44:	70 95       	com	r23
    9c46:	61 95       	neg	r22
    9c48:	7f 4f       	sbci	r23, 0xFF	; 255
    9c4a:	8f 4f       	sbci	r24, 0xFF	; 255
    9c4c:	9f 4f       	sbci	r25, 0xFF	; 255
    9c4e:	f0 68       	ori	r31, 0x80	; 128
    9c50:	3f 2e       	mov	r3, r31
    9c52:	2a e0       	ldi	r18, 0x0A	; 10
    9c54:	30 e0       	ldi	r19, 0x00	; 0
    9c56:	a3 01       	movw	r20, r6
    9c58:	0e 94 88 4f 	call	0x9f10	; 0x9f10 <__ultoa_invert>
    9c5c:	88 2e       	mov	r8, r24
    9c5e:	86 18       	sub	r8, r6
    9c60:	45 c0       	rjmp	.+138    	; 0x9cec <vfprintf+0x2ce>
    9c62:	85 37       	cpi	r24, 0x75	; 117
    9c64:	31 f4       	brne	.+12     	; 0x9c72 <vfprintf+0x254>
    9c66:	23 2d       	mov	r18, r3
    9c68:	2f 7e       	andi	r18, 0xEF	; 239
    9c6a:	b2 2e       	mov	r11, r18
    9c6c:	2a e0       	ldi	r18, 0x0A	; 10
    9c6e:	30 e0       	ldi	r19, 0x00	; 0
    9c70:	25 c0       	rjmp	.+74     	; 0x9cbc <vfprintf+0x29e>
    9c72:	93 2d       	mov	r25, r3
    9c74:	99 7f       	andi	r25, 0xF9	; 249
    9c76:	b9 2e       	mov	r11, r25
    9c78:	8f 36       	cpi	r24, 0x6F	; 111
    9c7a:	c1 f0       	breq	.+48     	; 0x9cac <vfprintf+0x28e>
    9c7c:	18 f4       	brcc	.+6      	; 0x9c84 <vfprintf+0x266>
    9c7e:	88 35       	cpi	r24, 0x58	; 88
    9c80:	79 f0       	breq	.+30     	; 0x9ca0 <vfprintf+0x282>
    9c82:	b5 c0       	rjmp	.+362    	; 0x9dee <vfprintf+0x3d0>
    9c84:	80 37       	cpi	r24, 0x70	; 112
    9c86:	19 f0       	breq	.+6      	; 0x9c8e <vfprintf+0x270>
    9c88:	88 37       	cpi	r24, 0x78	; 120
    9c8a:	21 f0       	breq	.+8      	; 0x9c94 <vfprintf+0x276>
    9c8c:	b0 c0       	rjmp	.+352    	; 0x9dee <vfprintf+0x3d0>
    9c8e:	e9 2f       	mov	r30, r25
    9c90:	e0 61       	ori	r30, 0x10	; 16
    9c92:	be 2e       	mov	r11, r30
    9c94:	b4 fe       	sbrs	r11, 4
    9c96:	0d c0       	rjmp	.+26     	; 0x9cb2 <vfprintf+0x294>
    9c98:	fb 2d       	mov	r31, r11
    9c9a:	f4 60       	ori	r31, 0x04	; 4
    9c9c:	bf 2e       	mov	r11, r31
    9c9e:	09 c0       	rjmp	.+18     	; 0x9cb2 <vfprintf+0x294>
    9ca0:	34 fe       	sbrs	r3, 4
    9ca2:	0a c0       	rjmp	.+20     	; 0x9cb8 <vfprintf+0x29a>
    9ca4:	29 2f       	mov	r18, r25
    9ca6:	26 60       	ori	r18, 0x06	; 6
    9ca8:	b2 2e       	mov	r11, r18
    9caa:	06 c0       	rjmp	.+12     	; 0x9cb8 <vfprintf+0x29a>
    9cac:	28 e0       	ldi	r18, 0x08	; 8
    9cae:	30 e0       	ldi	r19, 0x00	; 0
    9cb0:	05 c0       	rjmp	.+10     	; 0x9cbc <vfprintf+0x29e>
    9cb2:	20 e1       	ldi	r18, 0x10	; 16
    9cb4:	30 e0       	ldi	r19, 0x00	; 0
    9cb6:	02 c0       	rjmp	.+4      	; 0x9cbc <vfprintf+0x29e>
    9cb8:	20 e1       	ldi	r18, 0x10	; 16
    9cba:	32 e0       	ldi	r19, 0x02	; 2
    9cbc:	f8 01       	movw	r30, r16
    9cbe:	b7 fe       	sbrs	r11, 7
    9cc0:	07 c0       	rjmp	.+14     	; 0x9cd0 <vfprintf+0x2b2>
    9cc2:	60 81       	ld	r22, Z
    9cc4:	71 81       	ldd	r23, Z+1	; 0x01
    9cc6:	82 81       	ldd	r24, Z+2	; 0x02
    9cc8:	93 81       	ldd	r25, Z+3	; 0x03
    9cca:	0c 5f       	subi	r16, 0xFC	; 252
    9ccc:	1f 4f       	sbci	r17, 0xFF	; 255
    9cce:	06 c0       	rjmp	.+12     	; 0x9cdc <vfprintf+0x2be>
    9cd0:	60 81       	ld	r22, Z
    9cd2:	71 81       	ldd	r23, Z+1	; 0x01
    9cd4:	80 e0       	ldi	r24, 0x00	; 0
    9cd6:	90 e0       	ldi	r25, 0x00	; 0
    9cd8:	0e 5f       	subi	r16, 0xFE	; 254
    9cda:	1f 4f       	sbci	r17, 0xFF	; 255
    9cdc:	a3 01       	movw	r20, r6
    9cde:	0e 94 88 4f 	call	0x9f10	; 0x9f10 <__ultoa_invert>
    9ce2:	88 2e       	mov	r8, r24
    9ce4:	86 18       	sub	r8, r6
    9ce6:	fb 2d       	mov	r31, r11
    9ce8:	ff 77       	andi	r31, 0x7F	; 127
    9cea:	3f 2e       	mov	r3, r31
    9cec:	36 fe       	sbrs	r3, 6
    9cee:	0d c0       	rjmp	.+26     	; 0x9d0a <vfprintf+0x2ec>
    9cf0:	23 2d       	mov	r18, r3
    9cf2:	2e 7f       	andi	r18, 0xFE	; 254
    9cf4:	a2 2e       	mov	r10, r18
    9cf6:	89 14       	cp	r8, r9
    9cf8:	58 f4       	brcc	.+22     	; 0x9d10 <vfprintf+0x2f2>
    9cfa:	34 fe       	sbrs	r3, 4
    9cfc:	0b c0       	rjmp	.+22     	; 0x9d14 <vfprintf+0x2f6>
    9cfe:	32 fc       	sbrc	r3, 2
    9d00:	09 c0       	rjmp	.+18     	; 0x9d14 <vfprintf+0x2f6>
    9d02:	83 2d       	mov	r24, r3
    9d04:	8e 7e       	andi	r24, 0xEE	; 238
    9d06:	a8 2e       	mov	r10, r24
    9d08:	05 c0       	rjmp	.+10     	; 0x9d14 <vfprintf+0x2f6>
    9d0a:	b8 2c       	mov	r11, r8
    9d0c:	a3 2c       	mov	r10, r3
    9d0e:	03 c0       	rjmp	.+6      	; 0x9d16 <vfprintf+0x2f8>
    9d10:	b8 2c       	mov	r11, r8
    9d12:	01 c0       	rjmp	.+2      	; 0x9d16 <vfprintf+0x2f8>
    9d14:	b9 2c       	mov	r11, r9
    9d16:	a4 fe       	sbrs	r10, 4
    9d18:	0f c0       	rjmp	.+30     	; 0x9d38 <vfprintf+0x31a>
    9d1a:	fe 01       	movw	r30, r28
    9d1c:	e8 0d       	add	r30, r8
    9d1e:	f1 1d       	adc	r31, r1
    9d20:	80 81       	ld	r24, Z
    9d22:	80 33       	cpi	r24, 0x30	; 48
    9d24:	21 f4       	brne	.+8      	; 0x9d2e <vfprintf+0x310>
    9d26:	9a 2d       	mov	r25, r10
    9d28:	99 7e       	andi	r25, 0xE9	; 233
    9d2a:	a9 2e       	mov	r10, r25
    9d2c:	09 c0       	rjmp	.+18     	; 0x9d40 <vfprintf+0x322>
    9d2e:	a2 fe       	sbrs	r10, 2
    9d30:	06 c0       	rjmp	.+12     	; 0x9d3e <vfprintf+0x320>
    9d32:	b3 94       	inc	r11
    9d34:	b3 94       	inc	r11
    9d36:	04 c0       	rjmp	.+8      	; 0x9d40 <vfprintf+0x322>
    9d38:	8a 2d       	mov	r24, r10
    9d3a:	86 78       	andi	r24, 0x86	; 134
    9d3c:	09 f0       	breq	.+2      	; 0x9d40 <vfprintf+0x322>
    9d3e:	b3 94       	inc	r11
    9d40:	a3 fc       	sbrc	r10, 3
    9d42:	11 c0       	rjmp	.+34     	; 0x9d66 <vfprintf+0x348>
    9d44:	a0 fe       	sbrs	r10, 0
    9d46:	06 c0       	rjmp	.+12     	; 0x9d54 <vfprintf+0x336>
    9d48:	b2 14       	cp	r11, r2
    9d4a:	88 f4       	brcc	.+34     	; 0x9d6e <vfprintf+0x350>
    9d4c:	28 0c       	add	r2, r8
    9d4e:	92 2c       	mov	r9, r2
    9d50:	9b 18       	sub	r9, r11
    9d52:	0e c0       	rjmp	.+28     	; 0x9d70 <vfprintf+0x352>
    9d54:	b2 14       	cp	r11, r2
    9d56:	60 f4       	brcc	.+24     	; 0x9d70 <vfprintf+0x352>
    9d58:	b6 01       	movw	r22, r12
    9d5a:	80 e2       	ldi	r24, 0x20	; 32
    9d5c:	90 e0       	ldi	r25, 0x00	; 0
    9d5e:	0e 94 4c 4f 	call	0x9e98	; 0x9e98 <fputc>
    9d62:	b3 94       	inc	r11
    9d64:	f7 cf       	rjmp	.-18     	; 0x9d54 <vfprintf+0x336>
    9d66:	b2 14       	cp	r11, r2
    9d68:	18 f4       	brcc	.+6      	; 0x9d70 <vfprintf+0x352>
    9d6a:	2b 18       	sub	r2, r11
    9d6c:	02 c0       	rjmp	.+4      	; 0x9d72 <vfprintf+0x354>
    9d6e:	98 2c       	mov	r9, r8
    9d70:	21 2c       	mov	r2, r1
    9d72:	a4 fe       	sbrs	r10, 4
    9d74:	10 c0       	rjmp	.+32     	; 0x9d96 <vfprintf+0x378>
    9d76:	b6 01       	movw	r22, r12
    9d78:	80 e3       	ldi	r24, 0x30	; 48
    9d7a:	90 e0       	ldi	r25, 0x00	; 0
    9d7c:	0e 94 4c 4f 	call	0x9e98	; 0x9e98 <fputc>
    9d80:	a2 fe       	sbrs	r10, 2
    9d82:	17 c0       	rjmp	.+46     	; 0x9db2 <vfprintf+0x394>
    9d84:	a1 fc       	sbrc	r10, 1
    9d86:	03 c0       	rjmp	.+6      	; 0x9d8e <vfprintf+0x370>
    9d88:	88 e7       	ldi	r24, 0x78	; 120
    9d8a:	90 e0       	ldi	r25, 0x00	; 0
    9d8c:	02 c0       	rjmp	.+4      	; 0x9d92 <vfprintf+0x374>
    9d8e:	88 e5       	ldi	r24, 0x58	; 88
    9d90:	90 e0       	ldi	r25, 0x00	; 0
    9d92:	b6 01       	movw	r22, r12
    9d94:	0c c0       	rjmp	.+24     	; 0x9dae <vfprintf+0x390>
    9d96:	8a 2d       	mov	r24, r10
    9d98:	86 78       	andi	r24, 0x86	; 134
    9d9a:	59 f0       	breq	.+22     	; 0x9db2 <vfprintf+0x394>
    9d9c:	a1 fe       	sbrs	r10, 1
    9d9e:	02 c0       	rjmp	.+4      	; 0x9da4 <vfprintf+0x386>
    9da0:	8b e2       	ldi	r24, 0x2B	; 43
    9da2:	01 c0       	rjmp	.+2      	; 0x9da6 <vfprintf+0x388>
    9da4:	80 e2       	ldi	r24, 0x20	; 32
    9da6:	a7 fc       	sbrc	r10, 7
    9da8:	8d e2       	ldi	r24, 0x2D	; 45
    9daa:	b6 01       	movw	r22, r12
    9dac:	90 e0       	ldi	r25, 0x00	; 0
    9dae:	0e 94 4c 4f 	call	0x9e98	; 0x9e98 <fputc>
    9db2:	89 14       	cp	r8, r9
    9db4:	38 f4       	brcc	.+14     	; 0x9dc4 <vfprintf+0x3a6>
    9db6:	b6 01       	movw	r22, r12
    9db8:	80 e3       	ldi	r24, 0x30	; 48
    9dba:	90 e0       	ldi	r25, 0x00	; 0
    9dbc:	0e 94 4c 4f 	call	0x9e98	; 0x9e98 <fputc>
    9dc0:	9a 94       	dec	r9
    9dc2:	f7 cf       	rjmp	.-18     	; 0x9db2 <vfprintf+0x394>
    9dc4:	8a 94       	dec	r8
    9dc6:	f3 01       	movw	r30, r6
    9dc8:	e8 0d       	add	r30, r8
    9dca:	f1 1d       	adc	r31, r1
    9dcc:	80 81       	ld	r24, Z
    9dce:	b6 01       	movw	r22, r12
    9dd0:	90 e0       	ldi	r25, 0x00	; 0
    9dd2:	0e 94 4c 4f 	call	0x9e98	; 0x9e98 <fputc>
    9dd6:	81 10       	cpse	r8, r1
    9dd8:	f5 cf       	rjmp	.-22     	; 0x9dc4 <vfprintf+0x3a6>
    9dda:	22 20       	and	r2, r2
    9ddc:	09 f4       	brne	.+2      	; 0x9de0 <vfprintf+0x3c2>
    9dde:	42 ce       	rjmp	.-892    	; 0x9a64 <vfprintf+0x46>
    9de0:	b6 01       	movw	r22, r12
    9de2:	80 e2       	ldi	r24, 0x20	; 32
    9de4:	90 e0       	ldi	r25, 0x00	; 0
    9de6:	0e 94 4c 4f 	call	0x9e98	; 0x9e98 <fputc>
    9dea:	2a 94       	dec	r2
    9dec:	f6 cf       	rjmp	.-20     	; 0x9dda <vfprintf+0x3bc>
    9dee:	f6 01       	movw	r30, r12
    9df0:	86 81       	ldd	r24, Z+6	; 0x06
    9df2:	97 81       	ldd	r25, Z+7	; 0x07
    9df4:	02 c0       	rjmp	.+4      	; 0x9dfa <vfprintf+0x3dc>
    9df6:	8f ef       	ldi	r24, 0xFF	; 255
    9df8:	9f ef       	ldi	r25, 0xFF	; 255
    9dfa:	2b 96       	adiw	r28, 0x0b	; 11
    9dfc:	cd bf       	out	0x3d, r28	; 61
    9dfe:	de bf       	out	0x3e, r29	; 62
    9e00:	df 91       	pop	r29
    9e02:	cf 91       	pop	r28
    9e04:	1f 91       	pop	r17
    9e06:	0f 91       	pop	r16
    9e08:	ff 90       	pop	r15
    9e0a:	ef 90       	pop	r14
    9e0c:	df 90       	pop	r13
    9e0e:	cf 90       	pop	r12
    9e10:	bf 90       	pop	r11
    9e12:	af 90       	pop	r10
    9e14:	9f 90       	pop	r9
    9e16:	8f 90       	pop	r8
    9e18:	7f 90       	pop	r7
    9e1a:	6f 90       	pop	r6
    9e1c:	5f 90       	pop	r5
    9e1e:	4f 90       	pop	r4
    9e20:	3f 90       	pop	r3
    9e22:	2f 90       	pop	r2
    9e24:	08 95       	ret

00009e26 <calloc>:
    9e26:	0f 93       	push	r16
    9e28:	1f 93       	push	r17
    9e2a:	cf 93       	push	r28
    9e2c:	df 93       	push	r29
    9e2e:	86 9f       	mul	r24, r22
    9e30:	80 01       	movw	r16, r0
    9e32:	87 9f       	mul	r24, r23
    9e34:	10 0d       	add	r17, r0
    9e36:	96 9f       	mul	r25, r22
    9e38:	10 0d       	add	r17, r0
    9e3a:	11 24       	eor	r1, r1
    9e3c:	c8 01       	movw	r24, r16
    9e3e:	0e 94 86 4b 	call	0x970c	; 0x970c <malloc>
    9e42:	ec 01       	movw	r28, r24
    9e44:	00 97       	sbiw	r24, 0x00	; 0
    9e46:	29 f0       	breq	.+10     	; 0x9e52 <calloc+0x2c>
    9e48:	a8 01       	movw	r20, r16
    9e4a:	60 e0       	ldi	r22, 0x00	; 0
    9e4c:	70 e0       	ldi	r23, 0x00	; 0
    9e4e:	0e 94 3a 4f 	call	0x9e74	; 0x9e74 <memset>
    9e52:	ce 01       	movw	r24, r28
    9e54:	df 91       	pop	r29
    9e56:	cf 91       	pop	r28
    9e58:	1f 91       	pop	r17
    9e5a:	0f 91       	pop	r16
    9e5c:	08 95       	ret

00009e5e <strnlen_P>:
    9e5e:	fc 01       	movw	r30, r24
    9e60:	05 90       	lpm	r0, Z+
    9e62:	61 50       	subi	r22, 0x01	; 1
    9e64:	70 40       	sbci	r23, 0x00	; 0
    9e66:	01 10       	cpse	r0, r1
    9e68:	d8 f7       	brcc	.-10     	; 0x9e60 <strnlen_P+0x2>
    9e6a:	80 95       	com	r24
    9e6c:	90 95       	com	r25
    9e6e:	8e 0f       	add	r24, r30
    9e70:	9f 1f       	adc	r25, r31
    9e72:	08 95       	ret

00009e74 <memset>:
    9e74:	dc 01       	movw	r26, r24
    9e76:	01 c0       	rjmp	.+2      	; 0x9e7a <memset+0x6>
    9e78:	6d 93       	st	X+, r22
    9e7a:	41 50       	subi	r20, 0x01	; 1
    9e7c:	50 40       	sbci	r21, 0x00	; 0
    9e7e:	e0 f7       	brcc	.-8      	; 0x9e78 <memset+0x4>
    9e80:	08 95       	ret

00009e82 <strnlen>:
    9e82:	fc 01       	movw	r30, r24
    9e84:	61 50       	subi	r22, 0x01	; 1
    9e86:	70 40       	sbci	r23, 0x00	; 0
    9e88:	01 90       	ld	r0, Z+
    9e8a:	01 10       	cpse	r0, r1
    9e8c:	d8 f7       	brcc	.-10     	; 0x9e84 <strnlen+0x2>
    9e8e:	80 95       	com	r24
    9e90:	90 95       	com	r25
    9e92:	8e 0f       	add	r24, r30
    9e94:	9f 1f       	adc	r25, r31
    9e96:	08 95       	ret

00009e98 <fputc>:
    9e98:	0f 93       	push	r16
    9e9a:	1f 93       	push	r17
    9e9c:	cf 93       	push	r28
    9e9e:	df 93       	push	r29
    9ea0:	fb 01       	movw	r30, r22
    9ea2:	23 81       	ldd	r18, Z+3	; 0x03
    9ea4:	21 fd       	sbrc	r18, 1
    9ea6:	03 c0       	rjmp	.+6      	; 0x9eae <fputc+0x16>
    9ea8:	8f ef       	ldi	r24, 0xFF	; 255
    9eaa:	9f ef       	ldi	r25, 0xFF	; 255
    9eac:	2c c0       	rjmp	.+88     	; 0x9f06 <fputc+0x6e>
    9eae:	22 ff       	sbrs	r18, 2
    9eb0:	16 c0       	rjmp	.+44     	; 0x9ede <fputc+0x46>
    9eb2:	46 81       	ldd	r20, Z+6	; 0x06
    9eb4:	57 81       	ldd	r21, Z+7	; 0x07
    9eb6:	24 81       	ldd	r18, Z+4	; 0x04
    9eb8:	35 81       	ldd	r19, Z+5	; 0x05
    9eba:	42 17       	cp	r20, r18
    9ebc:	53 07       	cpc	r21, r19
    9ebe:	44 f4       	brge	.+16     	; 0x9ed0 <fputc+0x38>
    9ec0:	a0 81       	ld	r26, Z
    9ec2:	b1 81       	ldd	r27, Z+1	; 0x01
    9ec4:	9d 01       	movw	r18, r26
    9ec6:	2f 5f       	subi	r18, 0xFF	; 255
    9ec8:	3f 4f       	sbci	r19, 0xFF	; 255
    9eca:	20 83       	st	Z, r18
    9ecc:	31 83       	std	Z+1, r19	; 0x01
    9ece:	8c 93       	st	X, r24
    9ed0:	26 81       	ldd	r18, Z+6	; 0x06
    9ed2:	37 81       	ldd	r19, Z+7	; 0x07
    9ed4:	2f 5f       	subi	r18, 0xFF	; 255
    9ed6:	3f 4f       	sbci	r19, 0xFF	; 255
    9ed8:	26 83       	std	Z+6, r18	; 0x06
    9eda:	37 83       	std	Z+7, r19	; 0x07
    9edc:	14 c0       	rjmp	.+40     	; 0x9f06 <fputc+0x6e>
    9ede:	8b 01       	movw	r16, r22
    9ee0:	ec 01       	movw	r28, r24
    9ee2:	fb 01       	movw	r30, r22
    9ee4:	00 84       	ldd	r0, Z+8	; 0x08
    9ee6:	f1 85       	ldd	r31, Z+9	; 0x09
    9ee8:	e0 2d       	mov	r30, r0
    9eea:	19 95       	eicall
    9eec:	89 2b       	or	r24, r25
    9eee:	e1 f6       	brne	.-72     	; 0x9ea8 <fputc+0x10>
    9ef0:	d8 01       	movw	r26, r16
    9ef2:	16 96       	adiw	r26, 0x06	; 6
    9ef4:	8d 91       	ld	r24, X+
    9ef6:	9c 91       	ld	r25, X
    9ef8:	17 97       	sbiw	r26, 0x07	; 7
    9efa:	01 96       	adiw	r24, 0x01	; 1
    9efc:	16 96       	adiw	r26, 0x06	; 6
    9efe:	8d 93       	st	X+, r24
    9f00:	9c 93       	st	X, r25
    9f02:	17 97       	sbiw	r26, 0x07	; 7
    9f04:	ce 01       	movw	r24, r28
    9f06:	df 91       	pop	r29
    9f08:	cf 91       	pop	r28
    9f0a:	1f 91       	pop	r17
    9f0c:	0f 91       	pop	r16
    9f0e:	08 95       	ret

00009f10 <__ultoa_invert>:
    9f10:	fa 01       	movw	r30, r20
    9f12:	aa 27       	eor	r26, r26
    9f14:	28 30       	cpi	r18, 0x08	; 8
    9f16:	51 f1       	breq	.+84     	; 0x9f6c <__ultoa_invert+0x5c>
    9f18:	20 31       	cpi	r18, 0x10	; 16
    9f1a:	81 f1       	breq	.+96     	; 0x9f7c <__ultoa_invert+0x6c>
    9f1c:	e8 94       	clt
    9f1e:	6f 93       	push	r22
    9f20:	6e 7f       	andi	r22, 0xFE	; 254
    9f22:	6e 5f       	subi	r22, 0xFE	; 254
    9f24:	7f 4f       	sbci	r23, 0xFF	; 255
    9f26:	8f 4f       	sbci	r24, 0xFF	; 255
    9f28:	9f 4f       	sbci	r25, 0xFF	; 255
    9f2a:	af 4f       	sbci	r26, 0xFF	; 255
    9f2c:	b1 e0       	ldi	r27, 0x01	; 1
    9f2e:	3e d0       	rcall	.+124    	; 0x9fac <__ultoa_invert+0x9c>
    9f30:	b4 e0       	ldi	r27, 0x04	; 4
    9f32:	3c d0       	rcall	.+120    	; 0x9fac <__ultoa_invert+0x9c>
    9f34:	67 0f       	add	r22, r23
    9f36:	78 1f       	adc	r23, r24
    9f38:	89 1f       	adc	r24, r25
    9f3a:	9a 1f       	adc	r25, r26
    9f3c:	a1 1d       	adc	r26, r1
    9f3e:	68 0f       	add	r22, r24
    9f40:	79 1f       	adc	r23, r25
    9f42:	8a 1f       	adc	r24, r26
    9f44:	91 1d       	adc	r25, r1
    9f46:	a1 1d       	adc	r26, r1
    9f48:	6a 0f       	add	r22, r26
    9f4a:	71 1d       	adc	r23, r1
    9f4c:	81 1d       	adc	r24, r1
    9f4e:	91 1d       	adc	r25, r1
    9f50:	a1 1d       	adc	r26, r1
    9f52:	20 d0       	rcall	.+64     	; 0x9f94 <__ultoa_invert+0x84>
    9f54:	09 f4       	brne	.+2      	; 0x9f58 <__ultoa_invert+0x48>
    9f56:	68 94       	set
    9f58:	3f 91       	pop	r19
    9f5a:	2a e0       	ldi	r18, 0x0A	; 10
    9f5c:	26 9f       	mul	r18, r22
    9f5e:	11 24       	eor	r1, r1
    9f60:	30 19       	sub	r19, r0
    9f62:	30 5d       	subi	r19, 0xD0	; 208
    9f64:	31 93       	st	Z+, r19
    9f66:	de f6       	brtc	.-74     	; 0x9f1e <__ultoa_invert+0xe>
    9f68:	cf 01       	movw	r24, r30
    9f6a:	08 95       	ret
    9f6c:	46 2f       	mov	r20, r22
    9f6e:	47 70       	andi	r20, 0x07	; 7
    9f70:	40 5d       	subi	r20, 0xD0	; 208
    9f72:	41 93       	st	Z+, r20
    9f74:	b3 e0       	ldi	r27, 0x03	; 3
    9f76:	0f d0       	rcall	.+30     	; 0x9f96 <__ultoa_invert+0x86>
    9f78:	c9 f7       	brne	.-14     	; 0x9f6c <__ultoa_invert+0x5c>
    9f7a:	f6 cf       	rjmp	.-20     	; 0x9f68 <__ultoa_invert+0x58>
    9f7c:	46 2f       	mov	r20, r22
    9f7e:	4f 70       	andi	r20, 0x0F	; 15
    9f80:	40 5d       	subi	r20, 0xD0	; 208
    9f82:	4a 33       	cpi	r20, 0x3A	; 58
    9f84:	18 f0       	brcs	.+6      	; 0x9f8c <__ultoa_invert+0x7c>
    9f86:	49 5d       	subi	r20, 0xD9	; 217
    9f88:	31 fd       	sbrc	r19, 1
    9f8a:	40 52       	subi	r20, 0x20	; 32
    9f8c:	41 93       	st	Z+, r20
    9f8e:	02 d0       	rcall	.+4      	; 0x9f94 <__ultoa_invert+0x84>
    9f90:	a9 f7       	brne	.-22     	; 0x9f7c <__ultoa_invert+0x6c>
    9f92:	ea cf       	rjmp	.-44     	; 0x9f68 <__ultoa_invert+0x58>
    9f94:	b4 e0       	ldi	r27, 0x04	; 4
    9f96:	a6 95       	lsr	r26
    9f98:	97 95       	ror	r25
    9f9a:	87 95       	ror	r24
    9f9c:	77 95       	ror	r23
    9f9e:	67 95       	ror	r22
    9fa0:	ba 95       	dec	r27
    9fa2:	c9 f7       	brne	.-14     	; 0x9f96 <__ultoa_invert+0x86>
    9fa4:	00 97       	sbiw	r24, 0x00	; 0
    9fa6:	61 05       	cpc	r22, r1
    9fa8:	71 05       	cpc	r23, r1
    9faa:	08 95       	ret
    9fac:	9b 01       	movw	r18, r22
    9fae:	ac 01       	movw	r20, r24
    9fb0:	0a 2e       	mov	r0, r26
    9fb2:	06 94       	lsr	r0
    9fb4:	57 95       	ror	r21
    9fb6:	47 95       	ror	r20
    9fb8:	37 95       	ror	r19
    9fba:	27 95       	ror	r18
    9fbc:	ba 95       	dec	r27
    9fbe:	c9 f7       	brne	.-14     	; 0x9fb2 <__ultoa_invert+0xa2>
    9fc0:	62 0f       	add	r22, r18
    9fc2:	73 1f       	adc	r23, r19
    9fc4:	84 1f       	adc	r24, r20
    9fc6:	95 1f       	adc	r25, r21
    9fc8:	a0 1d       	adc	r26, r0
    9fca:	08 95       	ret

00009fcc <_exit>:
    9fcc:	f8 94       	cli

00009fce <__stop_program>:
    9fce:	ff cf       	rjmp	.-2      	; 0x9fce <__stop_program>
